Archive member included because of file (symbol)

protocol/src/init/.output/AR6320/hw.3/lib/libwlaninit.a(wlan_init.o)
                              mac_core/patch/AR6320/v3/.output/AR6320/hw.3/obj/app_start.o (g_extra_dram_arenas)
protocol/src/init/.output/AR6320/hw.3/lib/libwlaninit.a(wlan_peer.o)
                              protocol/src/init/.output/AR6320/hw.3/lib/libwlaninit.a(wlan_init.o) (wlan_peer_module_install)
protocol/src/init/.output/AR6320/hw.3/lib/libwlaninit.a(umac_init.o)
                              protocol/src/init/.output/AR6320/hw.3/lib/libwlaninit.a(wlan_init.o) (_umacinit_api)
protocol/src/init/.output/AR6320/hw.3/lib/libwlaninit.a(wlan_bss.o)
                              protocol/src/init/.output/AR6320/hw.3/lib/libwlaninit.a(wlan_init.o) (bssApiIndirectionTable)
protocol/src/init/.output/AR6320/hw.3/lib/libwlaninit.a(wlan_buf.o)
                              protocol/src/init/.output/AR6320/hw.3/lib/libwlaninit.a(wlan_init.o) (wlan_buf_module_install)
protocol/src/init/.output/AR6320/hw.3/lib/libwlaninit.a(wlan_dev.o)
                              protocol/src/init/.output/AR6320/hw.3/lib/libwlaninit.a(wlan_init.o) (wlandev_module_install)
mac_core/src/mac_core_init/.output/AR6320/hw.3/lib/libmaccoreinit.a(mac_core_init.o)
                              protocol/src/init/.output/AR6320/hw.3/lib/libwlaninit.a(wlan_init.o) (mac_core_init_module_install)
protocol/src/cfg/.output/AR6320/hw.3/lib/libcfg.a(cfg.o)
                              protocol/src/init/.output/AR6320/hw.3/lib/libwlaninit.a(wlan_dev.o) (gcfg_api)
mac_core/src/wal/AR/coex/.output/AR6320/hw.3/lib/wal_coex.a(wal_coex.o)
                              protocol/src/init/.output/AR6320/hw.3/lib/libwlaninit.a(wlan_dev.o) (_wal_coex_update_1ss_tx_selfgen_mask)
mac_core/src/wal/AR/coex/.output/AR6320/hw.3/lib/wal_coex.a(wal_btcoex.o)
                              mac_core/src/wal/AR/coex/.output/AR6320/hw.3/lib/wal_coex.a(wal_coex.o) (pBtCoexDev)
mac_core/src/wal/AR/coex/.output/AR6320/hw.3/lib/wal_coex.a(wal_mwscoex.o)
                              mac_core/src/wal/AR/coex/.output/AR6320/hw.3/lib/wal_coex.a(wal_coex.o) (pMwsCoexDev)
mac_core/src/wal/AR/coex/.output/AR6320/hw.3/lib/wal_coex.a(wal_mwscoex_crc.o)
                              mac_core/src/wal/AR/coex/.output/AR6320/hw.3/lib/wal_coex.a(wal_mwscoex.o) (crc_16_calc)
mac_core/src/wal/AR/coex/.output/AR6320/hw.3/lib/wal_coex.a(qmi_idl_lib.o)
                              mac_core/src/wal/AR/coex/.output/AR6320/hw.3/lib/wal_coex.a(wal_mwscoex.o) (qmi_idl_message_decode)
mac_core/src/wal/AR/coex/.output/AR6320/hw.3/lib/wal_coex.a(qmi_idl_accessor.o)
                              mac_core/src/wal/AR/coex/.output/AR6320/hw.3/lib/wal_coex.a(wal_mwscoex.o) (qmi_idl_get_max_message_len)
mac_core/src/wal/AR/coex/.output/AR6320/hw.3/lib/wal_coex.a(coexistence_service_v02.o)
                              mac_core/src/wal/AR/coex/.output/AR6320/hw.3/lib/wal_coex.a(wal_mwscoex.o) (coex_get_service_object_internal_v02)
mac_core/src/wal/whal/ini/.output/AR6320/hw.3/lib/libwhalini.a(whalini.o)
                              mac_core/src/mac_core_init/.output/AR6320/hw.3/lib/libmaccoreinit.a(mac_core_init.o) (whal_ini_module_install)
mac_core/src/data_txrx/.output/AR6320/hw.3/lib/libdatatxrx.a(data_txrx.o)
                              mac_core/src/mac_core_init/.output/AR6320/hw.3/lib/libmaccoreinit.a(mac_core_init.o) (wlan_data_txrx_api_table)
mac_core/src/data_txrx/.output/AR6320/hw.3/lib/libdatatxrx.a(ieee80211_hdr.o)
                              protocol/src/init/.output/AR6320/hw.3/lib/libwlaninit.a(umac_init.o) (ieee80211_hdr_module_install)
mac_core/src/data_txrx/.output/AR6320/hw.3/lib/libdatatxrx.a(data_rx.o)
                              protocol/src/init/.output/AR6320/hw.3/lib/libwlaninit.a(wlan_buf.o) (data_rx_indir_tbl)
mac_core/src/data_txrx/.output/AR6320/hw.3/lib/libdatatxrx.a(data_rx_peer.o)
                              mac_core/src/data_txrx/.output/AR6320/hw.3/lib/libdatatxrx.a(data_rx.o) (data_rx_peer_alloc)
mac_core/src/data_txrx/.output/AR6320/hw.3/lib/libdatatxrx.a(data_rx_pn.o)
                              mac_core/src/data_txrx/.output/AR6320/hw.3/lib/libdatatxrx.a(data_rx.o) (data_rx_pn_is_wep)
mac_core/src/data_txrx/.output/AR6320/hw.3/lib/libdatatxrx.a(data_rx_reorder.o)
                              mac_core/src/data_txrx/.output/AR6320/hw.3/lib/libdatatxrx.a(data_rx_peer.o) (data_rx_reorder_tid_free)
protocol/src/mgmt_txrx/.output/AR6320/hw.3/lib/libmgmttxrx.a(ieee_mgmt_rx.o)
                              protocol/src/init/.output/AR6320/hw.3/lib/libwlaninit.a(wlan_init.o) (ieee_mgmt_module_install)
protocol/src/mgmt_txrx/.output/AR6320/hw.3/lib/libmgmttxrx.a(wlan_mgmt_local_txrx.o)
                              protocol/src/init/.output/AR6320/hw.3/lib/libwlaninit.a(wlan_init.o) (wlan_mgmt_local_txrx_module_install)
protocol/src/mgmt_txrx/.output/AR6320/hw.3/lib/libmgmttxrx.a(wlan_mgmt_txrx.o)
                              protocol/src/init/.output/AR6320/hw.3/lib/libwlaninit.a(wlan_dev.o) (firmware_bridge)
protocol/src/vdev_mgr/.output/AR6320/hw.3/lib/libvdevmgr.a(wlan_vdev.o)
                              protocol/src/init/.output/AR6320/hw.3/lib/libwlaninit.a(wlan_init.o) (wlan_vdev_module_install)
protocol/src/vdev_mgr/.output/AR6320/hw.3/lib/libvdevmgr.a(wlan_vdev_keepalive.o)
                              protocol/src/vdev_mgr/.output/AR6320/hw.3/lib/libvdevmgr.a(wlan_vdev.o) (wlan_vdev_keepalive_indir_tbl)
protocol/src/vdev_mgr/.output/AR6320/hw.3/lib/libvdevmgr.a(wlan_vdev_misc.o)
                              protocol/src/vdev_mgr/.output/AR6320/hw.3/lib/libvdevmgr.a(wlan_vdev.o) (wlan_vdev_misc_indir_tbl)
protocol/src/vdev_mgr/.output/AR6320/hw.3/lib/libvdevmgr.a(wlan_vdev_pause.o)
                              protocol/src/vdev_mgr/.output/AR6320/hw.3/lib/libvdevmgr.a(wlan_vdev.o) (wlan_vdev_pause_indir_tbl)
protocol/src/vdev_mgr/.output/AR6320/hw.3/lib/libvdevmgr.a(wlan_vdev_schedule.o)
                              protocol/src/vdev_mgr/.output/AR6320/hw.3/lib/libvdevmgr.a(wlan_vdev.o) (wlan_vdev_schedule_indir_tbl)
protocol/src/key_mgmt/.output/AR6320/hw.3/lib/libkeymgmt.a(wlan_key_mgmt.o)
                              protocol/src/vdev_mgr/.output/AR6320/hw.3/lib/libvdevmgr.a(wlan_vdev.o) (keymgmtApiIndirectionTable)
mac_core/src/ratectrl/.output/AR6320/hw.3/lib/libratectrl_11ac.a(ratectrl_11ac.o)
                              protocol/src/vdev_mgr/.output/AR6320/hw.3/lib/libvdevmgr.a(wlan_vdev.o) (g_default_gtx_tpc_min)
mac_core/src/ratectrl/.output/AR6320/hw.3/lib/libratectrl_11ac.a(ratectrl_11ac_if.o)
                              protocol/src/init/.output/AR6320/hw.3/lib/libwlaninit.a(wlan_init.o) (rateInterfaceIndirectionTable)
mac_core/src/ratectrl/.output/AR6320/hw.3/lib/libratectrl_11ac.a(ratectrl_peer_state.o)
                              mac_core/src/ratectrl/.output/AR6320/hw.3/lib/libratectrl_11ac.a(ratectrl_11ac_if.o) (rate_ctrl_state_register)
protocol/src/rtt/.output/AR6320/hw.3/lib/librtt.a(wlan_rtt.o)
                              protocol/src/init/.output/AR6320/hw.3/lib/libwlaninit.a(wlan_init.o) (_wlan_rtt_api)
protocol/src/phyerr/.output/AR6320/hw.3/lib/libphyerr.a(wlan_dfs_phyerr_filter.o)
                              protocol/src/vdev_mgr/.output/AR6320/hw.3/lib/libvdevmgr.a(wlan_vdev.o) (_wlan_dfs_phyerr_filter_api)
protocol/src/phyerr/.output/AR6320/hw.3/lib/libphyerr.a(wlan_phyerr.o)
                              protocol/src/init/.output/AR6320/hw.3/lib/libwlaninit.a(wlan_init.o) (_wlan_phyerr_api)
protocol/src/rfkill/.output/AR6320/hw.3/lib/librfkill.a(wlan_rfkill.o)
                              protocol/src/init/.output/AR6320/hw.3/lib/libwlaninit.a(wlan_dev.o) (_wlan_rfkill_apis)
protocol/src/wmi/.output/AR6320/hw.3/lib/libumacwmi.a(umac_wmi_events.o)
                              protocol/src/init/.output/AR6320/hw.3/lib/libwlaninit.a(wlan_peer.o) (umac_wmi_events_api_tbl)
protocol/src/wmi/.output/AR6320/hw.3/lib/libumacwmi.a(wlan_wmi.o)
                              protocol/src/init/.output/AR6320/hw.3/lib/libwlaninit.a(wlan_init.o) (_wlan_wmi_api)
protocol/src/wmi/.output/AR6320/hw.3/lib/libumacwmi.a(wlan_wmi_events.o)
                              protocol/src/init/.output/AR6320/hw.3/lib/libwlaninit.a(wlan_init.o) (_wlan_wmi_event_api)
protocol/src/wmi/.output/AR6320/hw.3/lib/libumacwmi.a(wmi_gpiohook.o)
                              protocol/src/init/.output/AR6320/hw.3/lib/libwlaninit.a(wlan_init.o) (gpio_WMI_register)
protocol/src/wmi/.output/AR6320/hw.3/lib/libumacwmi.a(wmi_tlv_helper.o)
                              protocol/src/mgmt_txrx/.output/AR6320/hw.3/lib/libmgmttxrx.a(wlan_mgmt_txrx.o) (wmitlv_check_and_pad_command_tlvs)
protocol/src/wmi/.output/AR6320/hw.3/lib/libumacwmi.a(umac_wmi.o)
                              protocol/src/wmi/.output/AR6320/hw.3/lib/libumacwmi.a(wlan_wmi.o) (umacWmiApiIndirectionTable)
protocol/src/offload_mgr/.output/AR6320/hw.3/lib/liboffload_mgr.a(beacon_filter.o)
                              protocol/src/init/.output/AR6320/hw.3/lib/libwlaninit.a(wlan_init.o) (wlanbcnfltApiIndirectionTable)
protocol/src/offload_mgr/.output/AR6320/hw.3/lib/liboffload_mgr.a(csa_offload_main.o)
                              protocol/src/init/.output/AR6320/hw.3/lib/libwlaninit.a(wlan_init.o) (csa_api_fn)
protocol/src/offload_mgr/.output/AR6320/hw.3/lib/liboffload_mgr.a(offload_mgr.o)
                              protocol/src/init/.output/AR6320/hw.3/lib/libwlaninit.a(wlan_init.o) (offldmgr_module_install)
protocol/src/offload_mgr/.output/AR6320/hw.3/lib/liboffload_mgr.a(wlan_d0wow.o)
                              protocol/src/init/.output/AR6320/hw.3/lib/libwlaninit.a(wlan_init.o) (wlanD0wowApiIndirectionTable)
protocol/src/offload_mgr/.output/AR6320/hw.3/lib/liboffload_mgr.a(wlan_gtk_offload.o)
                              protocol/src/init/.output/AR6320/hw.3/lib/libwlaninit.a(wlan_init.o) (wlanGtkOffloadApiIndirectionTable)
protocol/src/offload_mgr/.output/AR6320/hw.3/lib/liboffload_mgr.a(wlan_wow.o)
                              protocol/src/init/.output/AR6320/hw.3/lib/libwlaninit.a(wlan_init.o) (wlan_wow_module_install)
protocol/src/mgmt/.output/AR6320/hw.3/lib/libmgmt.a(wlan_beacon.o)
                              protocol/src/init/.output/AR6320/hw.3/lib/libwlaninit.a(wlan_init.o) (wlan_beacon_module_install)
protocol/src/mgmt/.output/AR6320/hw.3/lib/libmgmt.a(wlan_early_rx_sm.o)
                              protocol/src/mgmt/.output/AR6320/hw.3/lib/libmgmt.a(wlan_beacon.o) (_wlan_early_rx_bcn_rcv_handler)
protocol/src/mgmt/.output/AR6320/hw.3/lib/libmgmt.a(wlan_ie_utils.o)
                              protocol/src/init/.output/AR6320/hw.3/lib/libwlaninit.a(wlan_init.o) (wlan_utils_module_install)
protocol/src/mgmt/.output/AR6320/hw.3/lib/libmgmt.a(wlan_wnm.o)
                              protocol/src/vdev_mgr/.output/AR6320/hw.3/lib/libvdevmgr.a(wlan_vdev_keepalive.o) (wlan_mgmt_local_send_ethernetloopback)
protocol/src/power/.output/AR6320/hw.3/lib/libpower.a(wlan_pm_arbiter.o)
                              protocol/src/init/.output/AR6320/hw.3/lib/libwlaninit.a(umac_init.o) (wlan_pm_arbiter_init)
protocol/src/power/.output/AR6320/hw.3/lib/libpower.a(wlan_powersave.o)
                              protocol/src/init/.output/AR6320/hw.3/lib/libwlaninit.a(umac_init.o) (wlan_ps_init)
protocol/src/power/.output/AR6320/hw.3/lib/libpower.a(wlan_powersave_ap.o)
                              protocol/src/vdev_mgr/.output/AR6320/hw.3/lib/libvdevmgr.a(wlan_vdev_keepalive.o) (wlan_ps_ap_peer_update_tim)
protocol/src/power/.output/AR6320/hw.3/lib/libpower.a(wlan_powersave_ibss.o)
                              protocol/src/init/.output/AR6320/hw.3/lib/libwlaninit.a(wlan_init.o) (wlan_ibss_ps_api_table)
protocol/src/power/.output/AR6320/hw.3/lib/libpower.a(wlan_powersave_ibss_nw_sm.o)
                              protocol/src/power/.output/AR6320/hw.3/lib/libpower.a(wlan_powersave_ibss.o) (wlan_ps_ibss_unicast_timeout_null_completion)
protocol/src/power/.output/AR6320/hw.3/lib/libpower.a(wlan_powersave_ibss_peer_ps_sm.o)
                              protocol/src/power/.output/AR6320/hw.3/lib/libpower.a(wlan_powersave_ibss.o) (wlan_ps_ibss_peer_ps_state_monitor_timeout)
protocol/src/power/.output/AR6320/hw.3/lib/libpower.a(wlan_powersave_ibss_self_ps_sm.o)
                              protocol/src/power/.output/AR6320/hw.3/lib/libpower.a(wlan_powersave_ibss.o) (wlan_ps_ibss_self_ps_state_notification_timeout)
protocol/src/power/.output/AR6320/hw.3/lib/libpower.a(wlan_powersave_sta.o)
                              protocol/src/power/.output/AR6320/hw.3/lib/libpower.a(wlan_powersave.o) (wlan_ps_sta_wal_peer_event_pre_send)
protocol/src/power/.output/AR6320/hw.3/lib/libpower.a(wlan_powersave_sta_sm.o)
                              protocol/src/power/.output/AR6320/hw.3/lib/libpower.a(wlan_powersave_sta.o) (wlan_ps_sta_update_sm)
protocol/src/power/.output/AR6320/hw.3/lib/libpower.a(wlan_powersave_tdls.o)
                              protocol/src/power/.output/AR6320/hw.3/lib/libpower.a(wlan_powersave.o) (wlan_tdls_buf_peer_process_pre_send)
protocol/src/power/.output/AR6320/hw.3/lib/libpower.a(wlan_qpower.o)
                              protocol/src/power/.output/AR6320/hw.3/lib/libpower.a(wlan_powersave_sta_sm.o) (wlan_qpower_update_inactivity_timeout)
protocol/src/power/smps/.output/AR6320/hw.3/lib/libsmps.a(wlan_smps.o)
                              protocol/src/vdev_mgr/.output/AR6320/hw.3/lib/libvdevmgr.a(wlan_vdev.o) (wlan_smps_sta_is_rssi_above_thresh)
protocol/src/power/smps/.output/AR6320/hw.3/lib/libsmps.a(wlan_smps_sm.o)
                              protocol/src/power/smps/.output/AR6320/hw.3/lib/libsmps.a(wlan_smps.o) (wlan_smps_rssi_threshold_update)
protocol/src/resmgr/.output/AR6320/hw.3/lib/libresmgr.a(channel_mgr.o)
                              protocol/src/vdev_mgr/.output/AR6320/hw.3/lib/libvdevmgr.a(wlan_vdev_pause.o) (g_cts2s_timeout)
protocol/src/resmgr/.output/AR6320/hw.3/lib/libresmgr.a(resmgr.o)
                              protocol/src/init/.output/AR6320/hw.3/lib/libwlaninit.a(wlan_init.o) (g_resmgr_api_tbl)
protocol/src/resmgr/.output/AR6320/hw.3/lib/libresmgr.a(resmgr_dyn_sch.o)
                              protocol/src/resmgr/.output/AR6320/hw.3/lib/libresmgr.a(resmgr.o) (resmgr_dyn_sch_init)
protocol/src/resmgr/.output/AR6320/hw.3/lib/libresmgr.a(resmgr_ocs.o)
                              protocol/src/resmgr/.output/AR6320/hw.3/lib/libresmgr.a(resmgr.o) (resmgr_ocs_find_ch_allocator)
protocol/src/resmgr/.output/AR6320/hw.3/lib/libresmgr.a(virtual_channel.o)
                              protocol/src/resmgr/.output/AR6320/hw.3/lib/libresmgr.a(channel_mgr.o) (wlan_virtual_chan_set_cts2s_sent)
protocol/src/resmgr/.output/AR6320/hw.3/lib/libresmgr.a(virtual_channel_arbiter.o)
                              protocol/src/resmgr/.output/AR6320/hw.3/lib/libresmgr.a(resmgr.o) (wlan_virtual_chan_arbitrate_vc_attributes)
mac_core/src/hostif/htc/.output/AR6320/hw.3/lib/libhtc.a(htc.o)
                              protocol/src/init/.output/AR6320/hw.3/lib/libwlaninit.a(wlan_init.o) (g_pHTCInstances)
mac_core/src/hostif/htt/.output/AR6320/hw.3/lib/libhtt.a(htt_tgt_hif_svc.o)
                              mac_core/src/mac_core_init/.output/AR6320/hw.3/lib/libmaccoreinit.a(mac_core_init.o) (htt_tgt_hif_svc_api_indir_tbl)
mac_core/src/hostif/htt/.output/AR6320/hw.3/lib/libhtt.a(htt_tgt_rx.o)
                              protocol/src/init/.output/AR6320/hw.3/lib/libwlaninit.a(wlan_buf.o) (htt_tgt_rx_api_indir_tbl)
mac_core/src/hostif/htt/.output/AR6320/hw.3/lib/libhtt.a(htt_tgt_rx_event.o)
                              mac_core/src/hostif/htt/.output/AR6320/hw.3/lib/libhtt.a(htt_tgt_hif_svc.o) (htt_tgt_rx_event_internal_indir_tbl)
mac_core/src/hostif/htt/.output/AR6320/hw.3/lib/libhtt.a(htt_tgt_stats.o)
                              mac_core/src/mac_core_init/.output/AR6320/hw.3/lib/libmaccoreinit.a(mac_core_init.o) (htt_tgt_stats_api_indir_tbl)
mac_core/src/hostif/htt/.output/AR6320/hw.3/lib/libhtt.a(htt_tgt_tx.o)
                              mac_core/src/hostif/htt/.output/AR6320/hw.3/lib/libhtt.a(htt_tgt_hif_svc.o) (g_htt_tgt_tx_state)
mac_core/src/utils/sm/.output/AR6320/hw.3/lib/libsm.a(sm.o)
                              mac_core/src/mac_core_init/.output/AR6320/hw.3/lib/libmaccoreinit.a(mac_core_init.o) (sm_module_install)
protocol/src/coex/.output/AR6320/hw.3/lib/libcoex.a(coex.o)
                              protocol/src/init/.output/AR6320/hw.3/lib/libwlaninit.a(wlan_init.o) (CoexApiTable)
mac_core/src/hostif/wmisvc/.output/AR6320/hw.3/lib/libwmisvc.a(wmi_svc.o)
                              mac_core/src/mac_core_init/.output/AR6320/hw.3/lib/libmaccoreinit.a(mac_core_init.o) (WMI_service_module_install)
protocol/src/scan/.output/AR6320/hw.3/lib/libscan.a(wlan_dcs.o)
                              protocol/src/init/.output/AR6320/hw.3/lib/libwlaninit.a(umac_init.o) (wlan_dcs_api_tbl)
protocol/src/scan/.output/AR6320/hw.3/lib/libscan.a(wlan_scan_sch.o)
                              protocol/src/offload_mgr/.output/AR6320/hw.3/lib/liboffload_mgr.a(offload_mgr.o) (wlan_scan_sch_internal_indir_tbl)
protocol/src/scan/.output/AR6320/hw.3/lib/libscan.a(wlan_scan_sm.o)
                              protocol/src/init/.output/AR6320/hw.3/lib/libwlaninit.a(wlan_init.o) (install_scan_var_stub)
protocol/src/scan/.output/AR6320/hw.3/lib/libscan.a(wlan_scan.o)
                              protocol/src/scan/.output/AR6320/hw.3/lib/libscan.a(wlan_scan_sch.o) (wlan_scan_autochan_event_handler)
protocol/src/roam/.output/AR6320/hw.3/lib/libroam.a(wlan_roam.o)
                              protocol/src/init/.output/AR6320/hw.3/lib/libwlaninit.a(umac_init.o) (wlan_roam_api_tbl)
protocol/src/roam/.output/AR6320/hw.3/lib/libroam.a(wlan_roam_internal.o)
                              protocol/src/roam/.output/AR6320/hw.3/lib/libroam.a(wlan_roam.o) (wlan_roam_priv_api_tbl)
protocol/src/roam/.output/AR6320/hw.3/lib/libroam.a(wlan_roam_wmi.o)
                              protocol/src/init/.output/AR6320/hw.3/lib/libwlaninit.a(wlan_init.o) (wlan_roam_offload_register)
protocol/src/pps/.output/AR6320/hw.3/lib/libpps.a(wlan_pps.o)
                              protocol/src/init/.output/AR6320/hw.3/lib/libwlaninit.a(wlan_init.o) (wlan_pps_api_tbl)
protocol/src/stats/.output/AR6320/hw.3/lib/libstats.a(wlan_stats.o)
                              protocol/src/init/.output/AR6320/hw.3/lib/libwlaninit.a(wlan_init.o) (wlan_stats_api_tbl)
protocol/src/stats/.output/AR6320/hw.3/lib/libstats.a(wlan_estimate_linkspeed.o)
                              protocol/src/stats/.output/AR6320/hw.3/lib/libstats.a(wlan_stats.o) (_wlan_est_linkspeed_indicate_home_chan_update)
mac_core/src/soc/pcielp/.output/AR6320/hw.3/lib/libpcielp.a(pcielp_core.o)
                              mac_core/src/mac_core_init/.output/AR6320/hw.3/lib/libmaccoreinit.a(mac_core_init.o) (PcielpApiTable)
mac_core/src/soc/pcielp/.output/AR6320/hw.3/lib/libpcielp.a(pcielp_ltr.o)
                              mac_core/src/soc/pcielp/.output/AR6320/hw.3/lib/libpcielp.a(pcielp_core.o) (pcielp_ltr_init)
mac_core/src/soc/pcielp/.output/AR6320/hw.3/lib/libpcielp.a(pcielp_dsleep.o)
                              mac_core/src/soc/pcielp/.output/AR6320/hw.3/lib/libpcielp.a(pcielp_core.o) (pcielp_dsleep_init)
mac_core/src/soc/pcielp/.output/AR6320/hw.3/lib/libpcielp.a(pcielp_l1ss.o)
                              mac_core/src/soc/pcielp/.output/AR6320/hw.3/lib/libpcielp.a(pcielp_core.o) (pcielp_l1ss_init)
mac_core/src/soc/pcielp/.output/AR6320/hw.3/lib/libpcielp.a(pcielp_buffering.o)
                              mac_core/src/soc/pcielp/.output/AR6320/hw.3/lib/libpcielp.a(pcielp_core.o) (pcielp_buffering_init)
mac_core/src/pktlog/.output/AR6320/hw.3/lib/libpktlog.a(pktlog.o)
                              mac_core/src/mac_core_init/.output/AR6320/hw.3/lib/libmaccoreinit.a(mac_core_init.o) (pktlog_api_table)
protocol/src/tbd/.output/AR6320/hw.3/lib/libtbd.a(tbd.o)
                              protocol/src/init/.output/AR6320/hw.3/lib/libwlaninit.a(wlan_init.o) (tbd_api_func)
protocol/src/p2p/.output/AR6320/hw.3/lib/libp2p.a(p2p_main.o)
                              protocol/src/init/.output/AR6320/hw.3/lib/libwlaninit.a(wlan_init.o) (p2p_module_install)
protocol/src/p2p/.output/AR6320/hw.3/lib/libp2p.a(p2p_parse.o)
                              protocol/src/p2p/.output/AR6320/hw.3/lib/libp2p.a(p2p_main.o) (_p2p_get_noa_ie)
protocol/src/p2p/.output/AR6320/hw.3/lib/libp2p.a(p2p_schedules.o)
                              protocol/src/p2p/.output/AR6320/hw.3/lib/libp2p.a(p2p_main.o) (_p2p_go_schedule_tsf_timeout)
protocol/src/p2p/.output/AR6320/hw.3/lib/libp2p.a(p2p_go_ps.o)
                              protocol/src/p2p/.output/AR6320/hw.3/lib/libp2p.a(p2p_main.o) (_p2p_notify_sta_sleep)
protocol/src/chatter/.output/AR6320/hw.3/lib/libchatter.a(wlan_chatter.o)
                              protocol/src/offload_mgr/.output/AR6320/hw.3/lib/liboffload_mgr.a(wlan_wow.o) (wlan_chatter_set_mode)
protocol/src/chatter/.output/AR6320/hw.3/lib/libchatter.a(wlan_coalescing.o)
                              protocol/src/chatter/.output/AR6320/hw.3/lib/libchatter.a(wlan_chatter.o) (wlan_pkt_coalescing_flush_done)
mac_core/src/retention/.output/AR6320/hw.3/lib/libretention.a(wlan_retention.o)
                              protocol/src/init/.output/AR6320/hw.3/lib/libwlaninit.a(wlan_dev.o) (wlan_retention_init)
mac_core/src/utils/buf_chunk/.output/AR6320/hw.3/lib/libbufchunk.a(buf_chunk_api.o)
                              protocol/src/scan/.output/AR6320/hw.3/lib/libscan.a(wlan_scan_sch.o) (_buf_chunk_mgr_fn)
protocol/src/txbf/.output/AR6320/hw.3/lib/libtxbf.a(wlan_txbf.o)
                              protocol/src/offload_mgr/.output/AR6320/hw.3/lib/liboffload_mgr.a(wlan_wow.o) (g_txbf_en)
protocol/src/tdls/.output/AR6320/hw.3/lib/libtdls.a(wlan_tdls.o)
                              protocol/src/init/.output/AR6320/hw.3/lib/libwlaninit.a(wlan_init.o) (tdls_api_table)
protocol/src/tdls/.output/AR6320/hw.3/lib/libtdls.a(wlan_tdls_peer.o)
                              protocol/src/tdls/.output/AR6320/hw.3/lib/libtdls.a(wlan_tdls.o) (wlan_tdls_peer_teardown)
protocol/src/tdls/.output/AR6320/hw.3/lib/libtdls.a(wlan_tdls_uapsd.o)
                              protocol/src/tdls/.output/AR6320/hw.3/lib/libtdls.a(wlan_tdls_peer.o) (wlan_tdls_ptr_recv_notif_handler)
protocol/src/tcpip/.output/AR6320/hw.3/lib/libtcpip.a(wlan_ipv6.o)
                              protocol/src/offload_mgr/.output/AR6320/hw.3/lib/liboffload_mgr.a(wlan_wow.o) (ipv6_api_indir_table)
mac_core/src/misc/extend_alloc/.output/AR6320/hw.3/lib/libextendalloc.a(extend_allocate.o)
                              mac_core/src/mac_core_init/.output/AR6320/hw.3/lib/libmaccoreinit.a(mac_core_init.o) (ExtendAllocateApis)
protocol/src/thermal_mgr/.output/AR6320/hw.3/lib/libthermalmgr.a(wlan_thermal_mgr.o)
                              protocol/src/init/.output/AR6320/hw.3/lib/libwlaninit.a(wlan_init.o) (wlan_thermal_mgr_init)
mac_core/src/wal/AR/init/.output/AR6320/hw.3/lib/ar_wal_init.a(ar_wal_init.o)
                              protocol/src/init/.output/AR6320/hw.3/lib/libwlaninit.a(wlan_init.o) (wal_init_api_tbl)
mac_core/src/wal/whal/init/.output/AR6320/hw.3/lib/libwhal_init.a(whal_init.o)
                              mac_core/src/wal/AR/init/.output/AR6320/hw.3/lib/ar_wal_init.a(ar_wal_init.o) (whal_attach_pre_init)
mac_core/src/hostif/wdi_ipa/.output/AR6320/hw.3/lib/libwdi_ipa.a(wdi_ipa.o)
                              mac_core/src/mac_core_init/.output/AR6320/hw.3/lib/libmaccoreinit.a(mac_core_init.o) (wdi_ipa_api_indir_tbl)
mac_core/src/hostif/wdi_ipa/.output/AR6320/hw.3/lib/libwdi_ipa.a(wdi_ipa_rx.o)
                              mac_core/src/hostif/wdi_ipa/.output/AR6320/hw.3/lib/libwdi_ipa.a(wdi_ipa.o) (wdi_ipa_rx_api_indir_tbl)
mac_core/src/hostif/wdi_ipa/.output/AR6320/hw.3/lib/libwdi_ipa.a(wdi_ipa_tx.o)
                              mac_core/src/hostif/wdi_ipa/.output/AR6320/hw.3/lib/libwdi_ipa.a(wdi_ipa.o) (wdi_ipa_tx_api_indir_tbl)
mac_core/src/hostif/hif/hif_dbguart/.output/AR6320/hw.3/lib/lib_hif_dbguart.a(hif_dbguart_install.o)
                              mac_core/src/hostif/wmisvc/.output/AR6320/hw.3/lib/libwmisvc.a(wmi_svc.o) (_hif_duart)
mac_core/src/hostif/hif/hif_dbguart/.output/AR6320/hw.3/lib/lib_hif_dbguart.a(hif_dbguart.o)
                              mac_core/src/hostif/hif/hif_dbguart/.output/AR6320/hw.3/lib/lib_hif_dbguart.a(hif_dbguart_install.o) (hif_duart_module_install_internal)
protocol/src/lpi/.output/AR6320/hw.3/lib/liblpi.a(wlan_lpi.o)
                              protocol/src/init/.output/AR6320/hw.3/lib/libwlaninit.a(wlan_init.o) (wlan_lpi_api)
protocol/src/profile/.output/AR6320/hw.3/lib/libwlanprofile.a(wlan_profile.o)
                              protocol/src/init/.output/AR6320/hw.3/lib/libwlaninit.a(wlan_init.o) (wlan_profile_api_table)
protocol/src/offload/.output/AR6320/hw.3/lib/liboffload.a(wlan_arp_ns_offload.o)
                              protocol/src/init/.output/AR6320/hw.3/lib/libwlaninit.a(wlan_init.o) (wlanarpnsoffloadapiTable)
protocol/src/offload/.output/AR6320/hw.3/lib/liboffload.a(wlan_beacon_tx_offload.o)
                              protocol/src/init/.output/AR6320/hw.3/lib/libwlaninit.a(wlan_init.o) (beacon_tx_offload_api)
protocol/src/offload/.output/AR6320/hw.3/lib/liboffload.a(wlan_network_list_offload.o)
                              protocol/src/init/.output/AR6320/hw.3/lib/libwlaninit.a(wlan_init.o) (wlan_nlo_api)
protocol/src/offload/.output/AR6320/hw.3/lib/liboffload.a(wlan_swbmiss_offload.o)
                              protocol/src/init/.output/AR6320/hw.3/lib/libwlaninit.a(wlan_init.o) (wlan_swbmiss_offload_api_tbl)
protocol/src/framegen/.output/AR6320/hw.3/lib/libframegen.a(wlan_framegen.o)
                              protocol/src/offload/.output/AR6320/hw.3/lib/liboffload.a(wlan_arp_ns_offload.o) (zero_mac)
protocol/src/offload_mgr/stub/.output/AR6320/hw.3/lib/liboffload_mgr_stub.a(offload_mgr_stub.o)
                              protocol/src/init/.output/AR6320/hw.3/lib/libwlaninit.a(wlan_init.o) (offldApiIndirectionTable)
protocol/src/offload_mgr/stub/.output/AR6320/hw.3/lib/liboffload_mgr_stub.a(wlan_wow_stub.o)
                              protocol/src/init/.output/AR6320/hw.3/lib/libwlaninit.a(wlan_init.o) (wlanWowApiIndirectionTable)
mac_core/src/misc/codeswap/.output/AR6320/hw.3/lib/libcodeswap.a(codeswap.o)
                              mac_core/patch/AR6320/v3/.output/AR6320/hw.3/obj/app_start.o (codeswap_init)
mac_core/src/misc/codeswap/.output/AR6320/hw.3/lib/libcodeswap.a(codeswap_dmamgr.o)
                              mac_core/src/misc/codeswap/.output/AR6320/hw.3/lib/libcodeswap.a(codeswap.o) (_codeswap_dmamgr_fetch_code)
protocol/src/scan/stub/.output/AR6320/hw.3/lib/libscan_stub.a(wlan_scan_sch_stub.o)
                              protocol/src/init/.output/AR6320/hw.3/lib/libwlaninit.a(wlan_init.o) (wlan_scan_sch_api_tbl)
protocol/src/blockack/.output/AR6320/hw.3/lib/libblockack.a(wlan_blockack.o)
                              protocol/src/init/.output/AR6320/hw.3/lib/libwlaninit.a(wlan_init.o) (blockack_api_table)
protocol/src/init/stub/.output/AR6320/hw.3/lib/libwlaninit_stub.a(wlan_buf_stub.o)
                              protocol/src/init/.output/AR6320/hw.3/lib/libwlaninit.a(wlan_init.o) (wlan_buf_api_table)
protocol/src/init/stub/.output/AR6320/hw.3/lib/libwlaninit_stub.a(wlan_dev_stub.o)
                              protocol/src/init/.output/AR6320/hw.3/lib/libwlaninit.a(wlan_init.o) (g_pdev_p)
protocol/src/init/stub/.output/AR6320/hw.3/lib/libwlaninit_stub.a(wlan_peer_stub.o)
                              protocol/src/init/.output/AR6320/hw.3/lib/libwlaninit.a(wlan_init.o) (peerApiIndirectionTable)
mac_core/src/data_txrx/stub/.output/AR6320/hw.3/lib/libdatatxrx_stub.a(ieee80211_hdr_stub.o)
                              mac_core/src/data_txrx/.output/AR6320/hw.3/lib/libdatatxrx.a(ieee80211_hdr.o) (ieee80211_hdr_fns)
protocol/src/vdev_mgr/stub/.output/AR6320/hw.3/lib/libvdevmgr_stub.a(wlan_vdev_stub.o)
                              protocol/src/init/.output/AR6320/hw.3/lib/libwlaninit.a(wlan_init.o) (wlan_vdev_api_tbl)
protocol/src/mgmt_txrx/stub/.output/AR6320/hw.3/lib/libmgmttxrx_stub.a(wlan_mgmt_local_txrx_stub.o)
                              protocol/src/init/.output/AR6320/hw.3/lib/libwlaninit.a(wlan_init.o) (wlan_mgmt_local_txrx_api_table)
protocol/src/mgmt_txrx/stub/.output/AR6320/hw.3/lib/libmgmttxrx_stub.a(ieee_mgmt_rx_stub.o)
                              protocol/src/init/.output/AR6320/hw.3/lib/libwlaninit.a(wlan_init.o) (ieee_mgmt_api_table)
protocol/src/mgmt/stub/.output/AR6320/hw.3/lib/libmgmt_stub.a(wlan_beacon_stub.o)
                              protocol/src/init/.output/AR6320/hw.3/lib/libwlaninit.a(wlan_init.o) (wlanBeaconApiIndirectionTable)
protocol/src/mgmt/stub/.output/AR6320/hw.3/lib/libmgmt_stub.a(wlan_ie_utils_stub.o)
                              protocol/src/init/.output/AR6320/hw.3/lib/libwlaninit.a(wlan_init.o) (wlan_utils_api_table)
protocol/src/p2p/stub/.output/AR6320/hw.3/lib/libp2p_stub.a(p2p_stub.o)
                              protocol/src/init/.output/AR6320/hw.3/lib/libwlaninit.a(wlan_init.o) (p2p_api_fn)
mac_core/src/wal/whal/reset/.output/AR6320/hw.3/lib/ar6000_cal.a(ar6320_cal.o)
                              mac_core/src/wal/whal/init/.output/AR6320/hw.3/lib/libwhal_init.a(whal_init.o) (ar6000InitCalStruct)
mac_core/src/wal/whal/reset/.output/AR6320/hw.3/lib/ar6000_cal.a(ar6320_rxdc_cal.o)
                              mac_core/src/wal/whal/reset/.output/AR6320/hw.3/lib/ar6000_cal.a(ar6320_cal.o) (ar6000InitRxDcCalStruct)
mac_core/src/wal/whal/reset/.output/AR6320/hw.3/lib/ar6000_cal.a(ar6320_iq_cal.o)
                              mac_core/src/wal/whal/reset/.output/AR6320/hw.3/lib/ar6000_cal.a(ar6320_cal.o) (pWhalIQCalIndirectionTable)
mac_core/src/wal/whal/reset/.output/AR6320/hw.3/lib/ar6000_cal.a(ar6320_pef_cal.o)
                              mac_core/src/wal/whal/reset/.output/AR6320/hw.3/lib/ar6000_cal.a(ar6320_cal.o) (pWhalPefCalIndirectionTable)
protocol/src/unit_test/.output/AR6320/hw.3/lib/libunittest.a(unit_test.o)
                              protocol/src/init/.output/AR6320/hw.3/lib/libwlaninit.a(wlan_init.o) (unit_test_api_table)
protocol/src/frameparse/.output/AR6320/hw.3/lib/libframeparse.a(wlan_frameparse.o)
                              protocol/src/lpi/.output/AR6320/hw.3/lib/liblpi.a(wlan_lpi.o) (frmParseApiIndirectionTable)
protocol/src/nan/.output/AR6320/hw.3/lib/libnanwlan.a(wlan_nan.o)
                              protocol/src/init/.output/AR6320/hw.3/lib/libwlaninit.a(umac_init.o) (_wlan_nan_api)
protocol/src/nan/.output/AR6320/hw.3/lib/libnanwlan.a(wlan_nan_sync.o)
                              protocol/src/nan/.output/AR6320/hw.3/lib/libnanwlan.a(wlan_nan.o) (NANSYNC_Init)
protocol/src/nan/.output/AR6320/hw.3/lib/libnanwlan.a(wlan_nan_mac.o)
                              protocol/src/nan/.output/AR6320/hw.3/lib/libnanwlan.a(wlan_nan_sync.o) (_wlan_nan_mac)
protocol/src/nan/.output/AR6320/hw.3/lib/libnanwlan.a(wlan_nan_publish.o)
                              protocol/src/nan/.output/AR6320/hw.3/lib/libnanwlan.a(wlan_nan_mac.o) (_wlan_nan_pub)
protocol/src/nan/.output/AR6320/hw.3/lib/libnanwlan.a(wlan_nan_subscribe.o)
                              protocol/src/nan/.output/AR6320/hw.3/lib/libnanwlan.a(wlan_nan_mac.o) (_wlan_nan_sub)
protocol/src/nan/.output/AR6320/hw.3/lib/libnanwlan.a(wlan_nan_ctrl.o)
                              protocol/src/nan/.output/AR6320/hw.3/lib/libnanwlan.a(wlan_nan.o) (_wlan_nan_ctrl)
protocol/src/nan/.output/AR6320/hw.3/lib/libnanwlan.a(wlan_nan_de_if.o)
                              protocol/src/init/.output/AR6320/hw.3/lib/libwlaninit.a(wlan_dev.o) (g_wlan_nan_vdev_idx)
protocol/src/nan/.output/AR6320/hw.3/lib/libnanwlan.a(wlan_nan_rx.o)
                              protocol/src/nan/.output/AR6320/hw.3/lib/libnanwlan.a(wlan_nan_de_if.o) (wlan_nan_if_init_rx)
protocol/src/nan/.output/AR6320/hw.3/lib/libnanwlan.a(wlan_nan_match.o)
                              protocol/src/nan/.output/AR6320/hw.3/lib/libnanwlan.a(wlan_nan_publish.o) (_wlan_nan_match)
protocol/src/nan/.output/AR6320/hw.3/lib/libnanwlan.a(wconn_util_list.o)
                              protocol/src/nan/.output/AR6320/hw.3/lib/libnanwlan.a(wlan_nan_mac.o) (_wconn_util_list)
protocol/src/nan/.output/AR6320/hw.3/lib/libnanwlan.a(wlan_nan_attr.o)
                              protocol/src/nan/.output/AR6320/hw.3/lib/libnanwlan.a(wlan_nan_mac.o) (_wlan_nan_attr)
protocol/src/nan/.output/AR6320/hw.3/lib/libnanwlan.a(wlan_nan_bloom_filter.o)
                              protocol/src/nan/.output/AR6320/hw.3/lib/libnanwlan.a(wlan_nan_mac.o) (_wlan_nan_bf)
protocol/src/nan/.output/AR6320/hw.3/lib/libnanwlan.a(wlan_nan_crc.o)
                              protocol/src/nan/.output/AR6320/hw.3/lib/libnanwlan.a(wlan_nan_bloom_filter.o) (_wlan_nan_crc)
protocol/src/nan/.output/AR6320/hw.3/lib/libnanwlan.a(wlan_nan_log.o)
                              protocol/src/nan/.output/AR6320/hw.3/lib/libnanwlan.a(wlan_nan_mac.o) (_wlan_nan_log)
protocol/src/nan/.output/AR6320/hw.3/lib/libnanwlan.a(wlan_nan_time.o)
                              protocol/src/nan/.output/AR6320/hw.3/lib/libnanwlan.a(wlan_nan_publish.o) (_wlan_nan_time)
protocol/src/nan/.output/AR6320/hw.3/lib/libnanwlan.a(wlan_nan_tlv.o)
                              protocol/src/nan/.output/AR6320/hw.3/lib/libnanwlan.a(wlan_nan_publish.o) (_wlan_nan_tlv)
protocol/src/nan/.output/AR6320/hw.3/lib/libnanwlan.a(wlan_nan_util.o)
                              protocol/src/nan/.output/AR6320/hw.3/lib/libnanwlan.a(wlan_nan_sync.o) (NAN_ComputeMasterRank)
protocol/src/nan/.output/AR6320/hw.3/lib/libnanwlan.a(wlan_nan_beacon_ie.o)
                              protocol/src/nan/.output/AR6320/hw.3/lib/libnanwlan.a(wlan_nan_sync.o) (NANBCN_UpdateVendorSpecificAttr)
protocol/src/nan/.output/AR6320/hw.3/lib/libnanwlan.a(wlan_nan_beacon_rx.o)
                              protocol/src/nan/.output/AR6320/hw.3/lib/libnanwlan.a(wlan_nan_sync.o) (NANBCN_DwEndStateCheck)
protocol/src/nan/.output/AR6320/hw.3/lib/libnanwlan.a(wlan_nan_beacon_tx.o)
                              protocol/src/nan/.output/AR6320/hw.3/lib/libnanwlan.a(wlan_nan_sync.o) (NANBCN_PrepareBeacon)
protocol/src/nan/.output/AR6320/hw.3/lib/libnanwlan.a(wlan_nan_cluster_sm.o)
                              protocol/src/nan/.output/AR6320/hw.3/lib/libnanwlan.a(wlan_nan_sync.o) (WLANNAN_ClusterSM_Init)
protocol/src/nan/.output/AR6320/hw.3/lib/libnanwlan.a(wlan_nan_scan.o)
                              protocol/src/nan/.output/AR6320/hw.3/lib/libnanwlan.a(wlan_nan_sync.o) (NANScan_RegisterCb)
protocol/src/nan/.output/AR6320/hw.3/lib/libnanwlan.a(wlan_nan_sched.o)
                              protocol/src/nan/.output/AR6320/hw.3/lib/libnanwlan.a(wlan_nan_sync.o) (NANSCHED_Init)
protocol/src/nan/.output/AR6320/hw.3/lib/libnanwlan.a(sha2.o)
                              protocol/src/nan/.output/AR6320/hw.3/lib/libnanwlan.a(wlan_nan_attr.o) (SHA256_Data)
protocol/src/extscan/.output/AR6320/hw.3/lib/libextscan.a(wlan_extscan_main.o)
                              protocol/src/init/.output/AR6320/hw.3/lib/libwlaninit.a(wlan_init.o) (wlan_extscan_api_table)
protocol/src/extscan/.output/AR6320/hw.3/lib/libextscan.a(wlan_extscan_wlan_change.o)
                              protocol/src/extscan/.output/AR6320/hw.3/lib/libextscan.a(wlan_extscan_main.o) (extscan_wlan_change_process_table)
protocol/src/extscan/.output/AR6320/hw.3/lib/libextscan.a(wlan_extscan_wmi.o)
                              protocol/src/extscan/.output/AR6320/hw.3/lib/libextscan.a(wlan_extscan_main.o) (_wlan_extscan_register)
protocol/src/extscan/.output/AR6320/hw.3/lib/libextscan.a(wlan_extscan_bssid.o)
                              protocol/src/extscan/.output/AR6320/hw.3/lib/libextscan.a(wlan_extscan_main.o) (extscan_bssid_rssi_add_entry)
protocol/src/extscan/.output/AR6320/hw.3/lib/libextscan.a(wlan_extscan_bucket.o)
                              protocol/src/extscan/.output/AR6320/hw.3/lib/libextscan.a(wlan_extscan_bssid.o) (extscan_bucket_get_request_id)
protocol/src/extscan/.output/AR6320/hw.3/lib/libextscan.a(wlan_extscan_hotlist.o)
                              protocol/src/extscan/.output/AR6320/hw.3/lib/libextscan.a(wlan_extscan_bssid.o) (extscan_hotlist_update_table)
mac_core/src/wal/AR/rtt/.output/AR6320/hw.3/lib/ar_wal_rtt.a(wal_rtt.o)
                              protocol/src/rtt/.output/AR6320/hw.3/lib/librtt.a(wlan_rtt.o) (wal_rtt_api_fn_tbl)
mac_core/patch/AR6320/v3/.output/AR6320/hw.3/lib/lib_maccore_patches.a(install_patches.o)
                              mac_core/patch/AR6320/v3/.output/AR6320/hw.3/obj/app_start.o (install_phase0_patches)
mac_core/patch/AR6320/v3/.output/AR6320/hw.3/lib/lib_maccore_patches.a(whal_install_patches.o)
                              mac_core/patch/AR6320/v3/.output/AR6320/hw.3/lib/lib_maccore_patches.a(install_patches.o) (whal_install_patches)
mac_core/patch/AR6320/v3/.output/AR6320/hw.3/lib/lib_maccore_patches.a(wal_install_patches.o)
                              mac_core/patch/AR6320/v3/.output/AR6320/hw.3/lib/lib_maccore_patches.a(install_patches.o) (wal_install_patches)
mac_core/patch/AR6320/v3/.output/AR6320/hw.3/lib/lib_maccore_patches.a(ar_wal_connection_pause_patch.o)
                              mac_core/patch/AR6320/v3/.output/AR6320/hw.3/lib/lib_maccore_patches.a(wal_install_patches.o) (ar_wal_connection_pause_patch_install)
mac_core/patch/AR6320/v3/.output/AR6320/hw.3/lib/lib_maccore_patches.a(ar_wal_phy_dev_patch.o)
                              protocol/src/offload_mgr/.output/AR6320/hw.3/lib/liboffload_mgr.a(wlan_wow.o) (g_use_opt_whal_reset)
mac_core/patch/AR6320/v3/.output/AR6320/hw.3/lib/lib_maccore_patches.a(cmnos_retention_patch.o)
                              protocol/src/init/.output/AR6320/hw.3/lib/libwlaninit.a(wlan_dev.o) (patch_cmnos_retention_hyst_en)
mac_core/patch/AR6320/v3/.output/AR6320/hw.3/lib/lib_maccore_patches.a(ar_wal_tx_de_patch.o)
                              mac_core/src/wal/AR/coex/.output/AR6320/hw.3/lib/wal_coex.a(wal_coex.o) (_tx_de_register_coex_cb)
mac_core/patch/AR6320/v3/.output/AR6320/hw.3/lib/lib_maccore_patches.a(ar_wal_local_frames_wifi_ip01_patch.o)
                              mac_core/patch/AR6320/v3/.output/AR6320/hw.3/lib/lib_maccore_patches.a(wal_install_patches.o) (ar_wal_local_frames_wifi_ip01_install_patch)
mac_core/patch/AR6320/v3/.output/AR6320/hw.3/lib/lib_maccore_patches.a(pool_mgr_patch.o)
                              protocol/src/init/.output/AR6320/hw.3/lib/libwlaninit.a(wlan_dev.o) (_pool_mem_iter_init)
mac_core/patch/AR6320/v3/.output/AR6320/hw.3/lib/lib_maccore_patches.a(ar_wal_rx_patch.o)
                              mac_core/src/data_txrx/.output/AR6320/hw.3/lib/libdatatxrx.a(data_rx.o) (g_rx_reorder_stats)
mac_core/patch/AR6320/v3/.output/AR6320/hw.3/lib/lib_maccore_patches.a(ar_wal_rx_offload_patch.o)
                              mac_core/patch/AR6320/v3/.output/AR6320/hw.3/lib/lib_maccore_patches.a(wal_install_patches.o) (ar_wal_rx_offload_patch_install)
mac_core/patch/AR6320/v3/.output/AR6320/hw.3/lib/lib_maccore_patches.a(ar_wal_rx_common_patch.o)
                              mac_core/patch/AR6320/v3/.output/AR6320/hw.3/lib/lib_maccore_patches.a(wal_install_patches.o) (ar_wal_rx_common_patch_install)
mac_core/patch/AR6320/v3/.output/AR6320/hw.3/lib/lib_maccore_patches.a(ar_wal_vdev_patch.o)
                              protocol/src/vdev_mgr/.output/AR6320/hw.3/lib/libvdevmgr.a(wlan_vdev.o) (patch_wal_set_chan_paprd_status)
mac_core/patch/AR6320/v3/.output/AR6320/hw.3/lib/lib_maccore_patches.a(ar_tx_q_enque_patch.o)
                              mac_core/patch/AR6320/v3/.output/AR6320/hw.3/lib/lib_maccore_patches.a(wal_install_patches.o) (ar_tx_q_enque_install_patch)
mac_core/patch/AR6320/v3/.output/AR6320/hw.3/lib/lib_maccore_patches.a(tx_sched_patch.o)
                              mac_core/patch/AR6320/v3/.output/AR6320/hw.3/lib/lib_maccore_patches.a(install_patches.o) (tx_sched_install_patch)
mac_core/patch/AR6320/v3/.output/AR6320/hw.3/lib/lib_maccore_patches.a(ar_wal_tx_send_patch.o)
                              protocol/src/offload/.output/AR6320/hw.3/lib/liboffload.a(wlan_beacon_tx_offload.o) (g_dbg_pause_sifs_burst)
mac_core/patch/AR6320/v3/.output/AR6320/hw.3/lib/lib_maccore_patches.a(ar_wal_chain_mgmt_patch.o)
                              protocol/src/init/.output/AR6320/hw.3/lib/libwlaninit.a(wlan_dev.o) (patch_wal_chm_set_tx_cck_chain_masks)
mac_core/patch/AR6320/v3/.output/AR6320/hw.3/lib/lib_maccore_patches.a(ar_wal_peer_patch.o)
                              mac_core/patch/AR6320/v3/.output/AR6320/hw.3/lib/lib_maccore_patches.a(ar_wal_tx_de_patch.o) (g_wal_peer_key)
mac_core/patch/AR6320/v3/.output/AR6320/hw.3/lib/lib_maccore_patches.a(ar600P_txbf_patch.o)
                              mac_core/patch/AR6320/v3/.output/AR6320/hw.3/lib/lib_maccore_patches.a(ar_wal_tx_send_patch.o) (ar6000_paprd_tx_queue_done)
mac_core/patch/AR6320/v3/.output/AR6320/hw.3/lib/lib_maccore_patches.a(wal_pps_patch.o)
                              mac_core/patch/AR6320/v3/.output/AR6320/hw.3/lib/lib_maccore_patches.a(wal_install_patches.o) (wal_pps_patch_install)
mac_core/patch/AR6320/v3/.output/AR6320/hw.3/lib/lib_maccore_patches.a(ar_xmit_wifi_ip01_patch.o)
                              mac_core/patch/AR6320/v3/.output/AR6320/hw.3/lib/lib_maccore_patches.a(ar600P_txbf_patch.o) (ar6000_xmit_txbfee_war_en)
mac_core/patch/AR6320/v3/.output/AR6320/hw.3/lib/lib_maccore_patches.a(ar_wal_channel_change_patch.o)
                              mac_core/patch/AR6320/v3/.output/AR6320/hw.3/lib/lib_maccore_patches.a(wal_install_patches.o) (patch_wal_channel_change_api_module_install)
mac_core/patch/AR6320/v3/.output/AR6320/hw.3/lib/lib_maccore_patches.a(ar_wal_rc_patch.o)
                              protocol/src/txbf/.output/AR6320/hw.3/lib/libtxbf.a(wlan_txbf.o) (g_txbf_musu_stats)
mac_core/patch/AR6320/v3/.output/AR6320/hw.3/lib/lib_maccore_patches.a(wal_rtt_patch.o)
                              mac_core/patch/AR6320/v3/.output/AR6320/hw.3/lib/lib_maccore_patches.a(wal_install_patches.o) (wal_rtt_patch_install)
mac_core/patch/AR6320/v3/.output/AR6320/hw.3/lib/lib_maccore_patches.a(whal_rtt_patch.o)
                              mac_core/patch/AR6320/v3/.output/AR6320/hw.3/lib/lib_maccore_patches.a(whal_install_patches.o) (whal_rtt_patch_install)
mac_core/patch/AR6320/v3/.output/AR6320/hw.3/lib/lib_maccore_patches.a(dbglog_patch.o)
                              protocol/src/init/.output/AR6320/hw.3/lib/libwlaninit.a(wlan_dev.o) (patch_dbglog_suspend)
mac_core/patch/AR6320/v3/.output/AR6320/hw.3/lib/lib_maccore_patches.a(ar600p_beacon_patch.o)
                              mac_core/patch/AR6320/v3/.output/AR6320/hw.3/lib/lib_maccore_patches.a(ar_wal_vdev_patch.o) (patch_ar6000SetTsf)
mac_core/patch/AR6320/v3/.output/AR6320/hw.3/lib/lib_maccore_patches.a(ar6000_power_patch.o)
                              mac_core/patch/AR6320/v3/.output/AR6320/hw.3/lib/lib_maccore_patches.a(ar_wal_phy_dev_patch.o) (g_dsrMacAwakeEnable)
mac_core/patch/AR6320/v3/.output/AR6320/hw.3/lib/lib_maccore_patches.a(ar6000_interrupt_patch.o)
                              mac_core/patch/AR6320/v3/.output/AR6320/hw.3/lib/lib_maccore_patches.a(whal_install_patches.o) (ar6000_interrupt_patch_install)
mac_core/patch/AR6320/v3/.output/AR6320/hw.3/lib/lib_maccore_patches.a(cmnos_intrinf_patch.o)
                              mac_core/patch/AR6320/v3/.output/AR6320/hw.3/lib/lib_maccore_patches.a(cmnos_retention_patch.o) (stackinit_isr_flag)
mac_core/patch/AR6320/v3/.output/AR6320/hw.3/lib/lib_maccore_patches.a(patch_pcie.o)
                              protocol/src/wmi/.output/AR6320/hw.3/lib/libumacwmi.a(wlan_wmi.o) (pcie_linkdown)
mac_core/patch/AR6320/v3/.output/AR6320/hw.3/lib/lib_maccore_patches.a(patch_usb.o)
                              mac_core/patch/AR6320/v3/.output/AR6320/hw.3/lib/lib_maccore_patches.a(install_patches.o) (patch_usb)
mac_core/patch/AR6320/v3/.output/AR6320/hw.3/lib/lib_maccore_patches.a(wal_beacon_patch.o)
                              protocol/src/mgmt/.output/AR6320/hw.3/lib/libmgmt.a(wlan_beacon.o) (_wal_beacon_queue_reset)
mac_core/patch/AR6320/v3/.output/AR6320/hw.3/lib/lib_maccore_patches.a(wal_swba_patch.o)
                              mac_core/patch/AR6320/v3/.output/AR6320/hw.3/lib/lib_maccore_patches.a(wal_install_patches.o) (wal_swba_install_patch)
mac_core/patch/AR6320/v3/.output/AR6320/hw.3/lib/lib_maccore_patches.a(ar600P_retention_patch.o)
                              mac_core/patch/AR6320/v3/.output/AR6320/hw.3/obj/app_start.o (shadow_register)
mac_core/patch/AR6320/v3/.output/AR6320/hw.3/lib/lib_maccore_patches.a(ar_wal_rmc_patch.o)
                              mac_core/patch/AR6320/v3/.output/AR6320/hw.3/lib/lib_maccore_patches.a(wal_install_patches.o) (ar_wal_rmc_patch_install)
mac_core/patch/AR6320/v3/.output/AR6320/hw.3/lib/lib_maccore_patches.a(whal_rgc_patch.o)
                              mac_core/patch/AR6320/v3/.output/AR6320/hw.3/lib/lib_maccore_patches.a(whal_install_patches.o) (whal_rgc_patch_install)
mac_core/patch/AR6320/v3/.output/AR6320/hw.3/lib/lib_maccore_patches.a(patch_hif_ce.o)
                              mac_core/src/misc/codeswap/.output/AR6320/hw.3/lib/libcodeswap.a(codeswap_dmamgr.o) (patch_HIF_memcpy_wait_for_completion)
mac_core/patch/AR6320/v3/.output/AR6320/hw.3/lib/lib_maccore_patches.a(patch_whal_coex.o)
                              mac_core/src/wal/whal/reset/.output/AR6320/hw.3/lib/ar6000_cal.a(ar6320_cal.o) (patch_whal_coex_halphy_event)
mac_core/patch/AR6320/v3/.output/AR6320/hw.3/lib/lib_maccore_patches.a(patch_whal_mws.o)
                              mac_core/src/wal/AR/coex/.output/AR6320/hw.3/lib/wal_coex.a(wal_mwscoex.o) (_whal_mws_enable_WCI2)
mac_core/patch/AR6320/v3/.output/AR6320/hw.3/lib/lib_maccore_patches.a(patch_whal_mci.o)
                              mac_core/patch/AR6320/v3/.output/AR6320/hw.3/lib/lib_maccore_patches.a(install_patches.o) (patch_whal_mci)
mac_core/patch/AR6320/v3/.output/AR6320/hw.3/lib/lib_maccore_patches.a(ar_wal_tx_dm_patch.o)
                              mac_core/patch/AR6320/v3/.output/AR6320/hw.3/lib/lib_maccore_patches.a(ar_wal_tx_send_patch.o) (_tx_dm_bin_desc_free)
mac_core/patch/AR6320/v3/.output/AR6320/hw.3/lib/lib_maccore_patches.a(patch_copy_engine.o)
                              mac_core/patch/AR6320/v3/.output/AR6320/hw.3/lib/lib_maccore_patches.a(patch_hif_ce.o) (patch_CE_check_idle)
mac_core/patch/AR6320/v3/.output/AR6320/hw.3/lib/lib_maccore_patches.a(wal_concurrency_patch.o)
                              mac_core/patch/AR6320/v3/.output/AR6320/hw.3/lib/lib_maccore_patches.a(wal_install_patches.o) (wal_concurrency_install_patch)
mac_core/patch/AR6320/v3/.output/AR6320/hw.3/lib/lib_maccore_patches.a(ar_wal_tdls_patch.o)
                              mac_core/patch/AR6320/v3/.output/AR6320/hw.3/lib/lib_maccore_patches.a(ar_wal_rx_offload_patch.o) (_ar_wal_tdls_process_rx_frame)
mac_core/patch/AR6320/v3/.output/AR6320/hw.3/lib/lib_maccore_patches.a(cmnos_timer_patch.o)
                              mac_core/patch/AR6320/v3/.output/AR6320/hw.3/lib/lib_maccore_patches.a(cmnos_intrinf_patch.o) (patch_timer_hang_check_handle)
mac_core/patch/AR6320/v3/.output/AR6320/hw.3/lib/lib_maccore_patches.a(ar_wal_tx_hcm_patch.o)
                              mac_core/patch/AR6320/v3/.output/AR6320/hw.3/lib/lib_maccore_patches.a(wal_install_patches.o) (ar_wal_tx_hcm_patch_install)
mac_core/patch/AR6320/v3/.output/AR6320/hw.3/lib/lib_maccore_patches.a(ar_wal_tdls_conn_table_patch.o)
                              mac_core/patch/AR6320/v3/.output/AR6320/hw.3/lib/lib_maccore_patches.a(wal_install_patches.o) (ar_wal_tdls_conn_table_patch_install)
mac_core/patch/AR6320/v3/.output/AR6320/hw.3/lib/lib_maccore_patches.a(ar600P_recv_patch.o)
                              mac_core/patch/AR6320/v3/.output/AR6320/hw.3/lib/lib_maccore_patches.a(ar_wal_rx_patch.o) (patch_ar6000GetRxRingFwIndx)
mac_core/patch/AR6320/v3/.output/AR6320/hw.3/lib/lib_maccore_patches.a(patch_gpio.o)
                              mac_core/patch/AR6320/v3/.output/AR6320/hw.3/obj/app_start.o (patch_gpio)
mac_core/patch/AR6320/v3/.output/AR6320/hw.3/lib/lib_maccore_patches.a(os_install_wlan_extra_memory_patches.o)
                              mac_core/patch/AR6320/v3/.output/AR6320/hw.3/obj/app_start.o (g_patch_extra_dram_num)
mac_core/patch/AR6320/v3/.output/AR6320/hw.3/lib/lib_maccore_patches.a(patch_athos_main.o)
                              mac_core/patch/AR6320/v3/.output/AR6320/hw.3/lib/lib_maccore_patches.a(install_patches.o) (athos_main_patch_install)
mac_core/patch/AR6320/v3/.output/AR6320/hw.3/lib/lib_maccore_patches.a(cmnos_misc_patch.o)
                              protocol/src/wmi/.output/AR6320/hw.3/lib/libumacwmi.a(wlan_wmi.o) (cmnos_fw_corruption_notify)
mac_core/patch/AR6320/v3/.output/AR6320/hw.3/lib/lib_maccore_patches.a(sha1_patch.o)
                              mac_core/patch/AR6320/v3/.output/AR6320/hw.3/lib/lib_maccore_patches.a(install_patches.o) (sha1_install_patch)
mac_core/patch/AR6320/v3/.output/AR6320/hw.3/lib/lib_maccore_patches.a(qheap_patch.o)
                              mac_core/src/hostif/htt/.output/AR6320/hw.3/lib/libhtt.a(htt_tgt_hif_svc.o) (qheap_is_valid)
mac_core/patch/AR6320/v3/.output/AR6320/hw.3/lib/lib_maccore_patches.a(patch_hif_sdio.o)
                              mac_core/patch/AR6320/v3/.output/AR6320/hw.3/lib/lib_maccore_patches.a(install_patches.o) (patch_hif_sdio)
mac_core/patch/AR6320/v3/.output/AR6320/hw.3/lib/lib_maccore_patches.a(ar_wal_txbf_patch.o)
                              protocol/src/txbf/.output/AR6320/hw.3/lib/libtxbf.a(wlan_txbf.o) (wal_txbfee_set_gid_userpos)
mac_core/patch/AR6320/v3/.output/AR6320/hw.3/lib/lib_maccore_patches.a(wmi_dbgloghook_patch.o)
                              mac_core/patch/AR6320/v3/.output/AR6320/hw.3/lib/lib_maccore_patches.a(dbglog_patch.o) (patch_dbglog_WMI_register)
mac_core/patch/AR6320/v3/.output/AR6320/hw.3/lib/lib_maccore_patches.a(cmnos_allocram_patch.o)
                              protocol/src/init/.output/AR6320/hw.3/lib/libwlaninit.a(wlan_init.o) (cmnos_allocram_ex)
protocol/src/extwow/.output/AR6320/hw.3/lib/libextwow.a(wlan_extwow.o)
                              protocol/src/init/.output/AR6320/hw.3/lib/libwlaninit.a(wlan_init.o) (wlanExtwowApiIndirectionTable)
halphy/patch/AR6320/v3/.output/AR6320/hw.3/lib/lib_halphy_patches.a(halphy_install_patches.o)
                              mac_core/patch/AR6320/v3/.output/AR6320/hw.3/lib/lib_maccore_patches.a(whal_install_patches.o) (halphy_install_patches)
halphy/patch/AR6320/v3/.output/AR6320/hw.3/lib/lib_halphy_patches.a(ar6000_nf_cal_patch.o)
                              mac_core/patch/AR6320/v3/.output/AR6320/hw.3/lib/lib_maccore_patches.a(ar600P_retention_patch.o) (ar6000AGCFilterPowerRestore)
halphy/patch/AR6320/v3/.output/AR6320/hw.3/lib/lib_halphy_patches.a(ar6000_ani_patch.o)
                              halphy/patch/AR6320/v3/.output/AR6320/hw.3/lib/lib_halphy_patches.a(halphy_install_patches.o) (ar6000_ani_patch_install)
halphy/patch/AR6320/v3/.output/AR6320/hw.3/lib/lib_halphy_patches.a(ar6320_ini_patch.o)
                              halphy/patch/AR6320/v3/.output/AR6320/hw.3/lib/lib_halphy_patches.a(halphy_install_patches.o) (ar6320_ini_patch_install)
halphy/patch/AR6320/v3/.output/AR6320/hw.3/lib/lib_halphy_patches.a(ar6320_tpc_config_patch.o)
                              halphy/patch/AR6320/v3/.output/AR6320/hw.3/lib/lib_halphy_patches.a(halphy_install_patches.o) (ar6320_tpc_config_patch_install)
halphy/patch/AR6320/v3/.output/AR6320/hw.3/lib/lib_halphy_patches.a(ar6320_eeprom_patch.o)
                              halphy/patch/AR6320/v3/.output/AR6320/hw.3/lib/lib_halphy_patches.a(ar6320_ini_patch.o) (cur_ini_ver)
halphy/patch/AR6320/v3/.output/AR6320/hw.3/lib/lib_halphy_patches.a(ar600P_reset_patch.o)
                              mac_core/src/wal/whal/reset/.output/AR6320/hw.3/lib/ar6000_cal.a(ar6320_cal.o) (ResetSCPCMode)
halphy/patch/AR6320/v3/.output/AR6320/hw.3/lib/lib_halphy_patches.a(ar6000_paprd_patch.o)
                              mac_core/src/wal/whal/reset/.output/AR6320/hw.3/lib/ar6000_cal.a(ar6320_cal.o) (ar6000PaprdDoSCPCCal)
halphy/patch/AR6320/v3/.output/AR6320/hw.3/lib/lib_halphy_patches.a(ar6000_phy_patch.o)
                              halphy/patch/AR6320/v3/.output/AR6320/hw.3/lib/lib_halphy_patches.a(halphy_install_patches.o) (ar6000_phy_patch_install)
/cad/tensilica/chips/peregrine/RE-2013.3-linux/peregrine/xtensa-elf/lib/xcc//libgcc.a(_divsi3.o)
                              mac_core/src/wal/AR/coex/.output/AR6320/hw.3/lib/wal_coex.a(wal_mwscoex.o) (__divsi3)
/cad/tensilica/chips/peregrine/RE-2013.3-linux/peregrine/xtensa-elf/lib/xcc//libgcc.a(_modsi3.o)
                              mac_core/src/wal/AR/coex/.output/AR6320/hw.3/lib/wal_coex.a(wal_mwscoex.o) (__modsi3)
/cad/tensilica/chips/peregrine/RE-2013.3-linux/peregrine/xtensa-elf/lib/xcc//libgcc.a(_udivsi3.o)
                              mac_core/src/wal/AR/coex/.output/AR6320/hw.3/lib/wal_coex.a(wal_coex.o) (__udivsi3)
/cad/tensilica/chips/peregrine/RE-2013.3-linux/peregrine/xtensa-elf/lib/xcc//libgcc.a(_umodsi3.o)
                              mac_core/src/wal/AR/coex/.output/AR6320/hw.3/lib/wal_coex.a(wal_btcoex.o) (__umodsi3)
/cad/tensilica/chips/peregrine/RE-2013.3-linux/peregrine/xtensa-elf/lib/xcc//libgcc.a(_ashldi3.o)
                              mac_core/src/data_txrx/.output/AR6320/hw.3/lib/libdatatxrx.a(data_rx_reorder.o) (__ashldi3)
/cad/tensilica/chips/peregrine/RE-2013.3-linux/peregrine/xtensa-elf/lib/xcc//libgcc.a(_ashrdi3.o)
                              mac_core/patch/AR6320/v3/.output/AR6320/hw.3/lib/lib_maccore_patches.a(ar_wal_tx_send_patch.o) (__ashrdi3)
/cad/tensilica/chips/peregrine/RE-2013.3-linux/peregrine/xtensa-elf/lib/xcc//libgcc.a(_lshrdi3.o)
                              mac_core/src/data_txrx/.output/AR6320/hw.3/lib/libdatatxrx.a(data_rx_reorder.o) (__lshrdi3)
/cad/tensilica/chips/peregrine/RE-2013.3-linux/peregrine/xtensa-elf/lib/xcc//libgcc.a(_muldf3.o)
                              protocol/src/resmgr/.output/AR6320/hw.3/lib/libresmgr.a(resmgr_dyn_sch.o) (__muldf3)
/cad/tensilica/chips/peregrine/RE-2013.3-linux/peregrine/xtensa-elf/lib/xcc//libgcc.a(_fixunsdfsi.o)
                              protocol/src/resmgr/.output/AR6320/hw.3/lib/libresmgr.a(resmgr_dyn_sch.o) (__fixunsdfsi)
/cad/tensilica/chips/peregrine/RE-2013.3-linux/peregrine/xtensa-elf/lib/xcc//libgcc.a(_floatsidf.o)
                              protocol/src/resmgr/.output/AR6320/hw.3/lib/libresmgr.a(resmgr_dyn_sch.o) (__floatsidf)
/cad/tensilica/chips/peregrine/RE-2013.3-linux/peregrine/xtensa-elf/lib/xcc//libgcc.a(_muldi3.o)
                              protocol/src/vdev_mgr/.output/AR6320/hw.3/lib/libvdevmgr.a(wlan_vdev_schedule.o) (__muldi3)
/cad/tensilica/chips/peregrine/RE-2013.3-linux/peregrine/xtensa-elf/lib/xcc//libgcc.a(_udivdi3.o)
                              protocol/src/vdev_mgr/.output/AR6320/hw.3/lib/libvdevmgr.a(wlan_vdev_schedule.o) (__udivdi3)
/cad/tensilica/chips/peregrine/RE-2013.3-linux/peregrine/xtensa-elf/lib/xcc//libgcc.a(_umoddi3.o)
                              protocol/src/vdev_mgr/.output/AR6320/hw.3/lib/libvdevmgr.a(wlan_vdev_schedule.o) (__umoddi3)
/cad/tensilica/chips/peregrine/RE-2013.3-linux/peregrine/xtensa-elf/lib/xcc//libgcc.a(lib2funcs.o)
                              mac_core/patch/AR6320/v3/.output/AR6320/hw.3/lib/lib_maccore_patches.a(ar_wal_rx_patch.o) (__xtensa_libgcc_window_spill)
protocol/src/tcpip/.output/AR6320/hw.3/lib/libtcpip.a(wlan_pb.o)
                              protocol/src/extwow/.output/AR6320/hw.3/lib/libextwow.a(wlan_extwow.o) (wlanPbApiIndirectionTable)
protocol/src/tcpip/.output/AR6320/hw.3/lib/libtcpip.a(wlan_tcpip.o)
                              protocol/src/extwow/.output/AR6320/hw.3/lib/libextwow.a(wlan_extwow.o) (wlanTcpipApiIndirectionTable)
mac_core/src/misc/serport/.output/AR6320/hw.3/lib/libserport.a(serial_if.o)
                              mac_core/src/hostif/hif/hif_dbguart/.output/AR6320/hw.3/lib/lib_hif_dbguart.a(hif_dbguart.o) (SERP_module_install)
mac_core/src/misc/serport/.output/AR6320/hw.3/lib/libserport.a(serial_port.o)
                              mac_core/src/misc/serport/.output/AR6320/hw.3/lib/libserport.a(serial_if.o) (_SerPFlushBuffer)
mac_core/src/misc/uartserp/.output/AR6320/hw.3/lib/libuartserp.a(uartserp.o)
                              mac_core/src/hostif/hif/hif_dbguart/.output/AR6320/hw.3/lib/lib_hif_dbguart.a(hif_dbguart.o) (UARTSERP_HW_module_install)
mac_core/src/wal/AR/nan/.output/AR6320/hw.3/lib/ar_wal_nan.a(wal_nan_mac.o)
                              protocol/src/nan/.output/AR6320/hw.3/lib/libnanwlan.a(wlan_nan_de_if.o) (g_dbg_nan_mac_dwcm_en)
mac_core/src/wal/whal/rtt/.output/AR6320/hw.3/lib/whal_rtt.a(whal_rtt.o)
                              mac_core/patch/AR6320/v3/.output/AR6320/hw.3/lib/lib_maccore_patches.a(whal_rtt_patch.o) (whal_rtt_api_fn_tbl)

Memory Configuration

Name             Origin             Length             Attributes
ex_init_seg      0x000a0400         0x00006b00
ext_iram_seg     0x000a6f00         0x00011100
ext_laddr_seg    0x0a000000         0x00010000
lit_seg          0x0097b000         0x0000a000
iram_seg         0x00985000         0x00093000
dram_seg         0x004144d0         0x0003bb30
strip_seg        0x01000000         0x00100000
*default*        0x00000000         0xffffffff

Linker script and memory map

START GROUP
LOAD /cad/tensilica/chips/peregrine/RE-2013.3-linux/peregrine/xtensa-elf/lib/xcc//libgcc.a
LOAD protocol/src/init/.output/AR6320/hw.3/lib/libwlaninit.a
LOAD mac_core/src/mac_core_init/.output/AR6320/hw.3/lib/libmaccoreinit.a
LOAD protocol/src/cfg/.output/AR6320/hw.3/lib/libcfg.a
LOAD mac_core/src/wal/AR/coex/.output/AR6320/hw.3/lib/wal_coex.a
LOAD mac_core/src/wal/whal/ini/.output/AR6320/hw.3/lib/libwhalini.a
LOAD mac_core/src/data_txrx/.output/AR6320/hw.3/lib/libdatatxrx.a
LOAD protocol/src/mgmt_txrx/.output/AR6320/hw.3/lib/libmgmttxrx.a
LOAD protocol/src/vdev_mgr/.output/AR6320/hw.3/lib/libvdevmgr.a
LOAD protocol/src/key_mgmt/.output/AR6320/hw.3/lib/libkeymgmt.a
LOAD mac_core/src/ratectrl/.output/AR6320/hw.3/lib/libratectrl_11ac.a
LOAD protocol/src/rtt/.output/AR6320/hw.3/lib/librtt.a
LOAD protocol/src/plm/.output/AR6320/hw.3/lib/libplm.a
LOAD protocol/src/phyerr/.output/AR6320/hw.3/lib/libphyerr.a
LOAD protocol/src/rfkill/.output/AR6320/hw.3/lib/librfkill.a
LOAD protocol/src/led/.output/AR6320/hw.3/lib/libled.a
LOAD protocol/src/wmi/.output/AR6320/hw.3/lib/libumacwmi.a
LOAD protocol/src/offload_mgr/.output/AR6320/hw.3/lib/liboffload_mgr.a
LOAD protocol/src/mgmt/.output/AR6320/hw.3/lib/libmgmt.a
LOAD protocol/src/power/.output/AR6320/hw.3/lib/libpower.a
LOAD protocol/src/power/smps/.output/AR6320/hw.3/lib/libsmps.a
LOAD protocol/src/resmgr/.output/AR6320/hw.3/lib/libresmgr.a
LOAD mac_core/src/hostif/htc/.output/AR6320/hw.3/lib/libhtc.a
LOAD mac_core/src/hostif/htt/.output/AR6320/hw.3/lib/libhtt.a
LOAD mac_core/src/utils/sm/.output/AR6320/hw.3/lib/libsm.a
LOAD protocol/src/coex/.output/AR6320/hw.3/lib/libcoex.a
LOAD mac_core/src/misc/profile/.output/AR6320/hw.3/lib/libprofile.a
LOAD mac_core/src/hostif/wmisvc/.output/AR6320/hw.3/lib/libwmisvc.a
LOAD protocol/src/scan/.output/AR6320/hw.3/lib/libscan.a
LOAD protocol/src/roam/.output/AR6320/hw.3/lib/libroam.a
LOAD protocol/src/pps/.output/AR6320/hw.3/lib/libpps.a
LOAD protocol/src/stats/.output/AR6320/hw.3/lib/libstats.a
LOAD mac_core/src/soc/pcielp/.output/AR6320/hw.3/lib/libpcielp.a
LOAD mac_core/src/pktlog/.output/AR6320/hw.3/lib/libpktlog.a
LOAD protocol/src/tbd/.output/AR6320/hw.3/lib/libtbd.a
LOAD protocol/src/p2p/.output/AR6320/hw.3/lib/libp2p.a
LOAD protocol/src/chatter/.output/AR6320/hw.3/lib/libchatter.a
LOAD mac_core/src/retention/.output/AR6320/hw.3/lib/libretention.a
LOAD mac_core/src/utils/buf_chunk/.output/AR6320/hw.3/lib/libbufchunk.a
LOAD protocol/src/txbf/.output/AR6320/hw.3/lib/libtxbf.a
LOAD protocol/src/tdls/.output/AR6320/hw.3/lib/libtdls.a
LOAD protocol/src/tcpip/.output/AR6320/hw.3/lib/libtcpip.a
LOAD protocol/src/wlan_hb/.output/AR6320/hw.3/lib/libwlanhb.a
LOAD mac_core/src/misc/extend_alloc/.output/AR6320/hw.3/lib/libextendalloc.a
LOAD protocol/src/thermal_mgr/.output/AR6320/hw.3/lib/libthermalmgr.a
LOAD protocol/src/rmc/.output/AR6320/hw.3/lib/librmc.a
LOAD protocol/src/ere/.output/AR6320/hw.3/lib/libere.a
LOAD mac_core/src/wal/AR/init/.output/AR6320/hw.3/lib/ar_wal_init.a
LOAD mac_core/src/wal/whal/init/.output/AR6320/hw.3/lib/libwhal_init.a
LOAD mac_core/src/hostif/wdi_ipa/.output/AR6320/hw.3/lib/libwdi_ipa.a
LOAD mac_core/src/tgt_rx2tx/.output/AR6320/hw.3/lib/libtgtrx2tx.a
LOAD mac_core/src/misc/serport/.output/AR6320/hw.3/lib/libserport.a
LOAD mac_core/src/misc/uartserp/.output/AR6320/hw.3/lib/libuartserp.a
LOAD mac_core/src/hostif/hif/hif_dbguart/.output/AR6320/hw.3/lib/lib_hif_dbguart.a
LOAD protocol/src/lpi/.output/AR6320/hw.3/lib/liblpi.a
LOAD protocol/src/profile/.output/AR6320/hw.3/lib/libwlanprofile.a
LOAD protocol/src/offload/.output/AR6320/hw.3/lib/liboffload.a
LOAD protocol/src/framegen/.output/AR6320/hw.3/lib/libframegen.a
LOAD protocol/src/offload_mgr/stub/.output/AR6320/hw.3/lib/liboffload_mgr_stub.a
LOAD mac_core/src/misc/codeswap/.output/AR6320/hw.3/lib/libcodeswap.a
LOAD protocol/src/scan/stub/.output/AR6320/hw.3/lib/libscan_stub.a
LOAD protocol/src/blockack/.output/AR6320/hw.3/lib/libblockack.a
LOAD protocol/src/init/stub/.output/AR6320/hw.3/lib/libwlaninit_stub.a
LOAD mac_core/src/data_txrx/stub/.output/AR6320/hw.3/lib/libdatatxrx_stub.a
LOAD protocol/src/vdev_mgr/stub/.output/AR6320/hw.3/lib/libvdevmgr_stub.a
LOAD protocol/src/mgmt_txrx/stub/.output/AR6320/hw.3/lib/libmgmttxrx_stub.a
LOAD protocol/src/mgmt/stub/.output/AR6320/hw.3/lib/libmgmt_stub.a
LOAD protocol/src/p2p/stub/.output/AR6320/hw.3/lib/libp2p_stub.a
LOAD mac_core/src/wal/whal/reset/.output/AR6320/hw.3/lib/ar6000_cal.a
LOAD protocol/src/supplicant/.output/AR6320/hw.3/lib/libsuppl.a
LOAD protocol/src/unit_test/.output/AR6320/hw.3/lib/libunittest.a
LOAD protocol/src/frameparse/.output/AR6320/hw.3/lib/libframeparse.a
LOAD mac_core/src/wal/AR/supplicant/.output/AR6320/hw.3/lib/ar_wal_suppl.a
LOAD mac_core/src/wal/AR/ere/.output/AR6320/hw.3/lib/ar_wal_ere.a
LOAD mac_core/src/wal/AR/nan/.output/AR6320/hw.3/lib/ar_wal_nan.a
LOAD protocol/src/nan/.output/AR6320/hw.3/lib/libnanwlan.a
LOAD protocol/src/extscan/.output/AR6320/hw.3/lib/libextscan.a
LOAD mac_core/src/wal/whal/rtt/.output/AR6320/hw.3/lib/whal_rtt.a
LOAD mac_core/src/wal/AR/rtt/.output/AR6320/hw.3/lib/ar_wal_rtt.a
LOAD mac_core/patch/AR6320/v3/.output/AR6320/hw.3/lib/lib_maccore_patches.a
LOAD mac_core/src/misc/minidump/.output/AR6320/hw.3/lib/libminidump.a
LOAD protocol/src/extwow/.output/AR6320/hw.3/lib/libextwow.a
LOAD halphy/patch/AR6320/v3/.output/AR6320/hw.3/lib/lib_halphy_patches.a
LOAD mac_core/patch/AR6320/v3/.output/AR6320/hw.3/obj/app_start.o
END GROUP

.ex_init_text   0x000a0400     0x68fd
                0x000a0400                _ex_init_text_start = ABSOLUTE (.)
 *(.ex_init_text)
 .ex_init_text  0x000a0400      0x26d mac_core/patch/AR6320/v3/.output/AR6320/hw.3/obj/app_start.o
                0x000a0400                app_start
 *fill*         0x000a066d        0x3 00
 .ex_init_text  0x000a0670      0x616 protocol/src/init/.output/AR6320/hw.3/lib/libwlaninit.a(wlan_init.o)
                                0x65a (size before relaxing)
                0x000a0670                _wlan_wmi_setupComplete
                0x000a0690                _wlan_htc_setupComplete
                0x000a06a4                wlan_extra_dram_append_init
                0x000a06d4                wlan_extra_axi_mem_append_init
                0x000a0704                wlan_allocram_init
                0x000a07b0                wlan_main_part1
                0x000a0aa0                wlan_macstfilter_init
                0x000a0ac8                _wlan_main_init
                0x000a0c54                wlan_main
 *fill*         0x000a0c86        0x2 00
 .ex_init_text  0x000a0c88       0x26 protocol/src/init/.output/AR6320/hw.3/lib/libwlaninit.a(wlan_peer.o)
                0x000a0c88                _wlan_peer_register
                0x000a0c9c                wlan_peer_module_install
 *fill*         0x000a0cae        0x2 00
 .ex_init_text  0x000a0cb0      0x1ac protocol/src/init/.output/AR6320/hw.3/lib/libwlaninit.a(umac_init.o)
                                0x1b8 (size before relaxing)
                0x000a0cb0                _umac_install
                0x000a0cb8                _umac_init
 .ex_init_text  0x000a0e5c       0x25 protocol/src/init/.output/AR6320/hw.3/lib/libwlaninit.a(wlan_bss.o)
                0x000a0e5c                _wlan_bss_module_init
 *fill*         0x000a0e81        0x3 00
 .ex_init_text  0x000a0e84      0x4de protocol/src/init/.output/AR6320/hw.3/lib/libwlaninit.a(wlan_buf.o)
                0x000a0e84                _wlan_buf_init
                0x000a0edc                _wlan_buf_init_fw
                0x000a0f94                _wlan_buf_init_bufpool_intf
                0x000a0ff4                _wlan_buf_alloc_buffer
                0x000a1350                wlan_buf_module_install
 *fill*         0x000a1362        0x2 00
 .ex_init_text  0x000a1364      0x4d2 protocol/src/init/.output/AR6320/hw.3/lib/libwlaninit.a(wlan_dev.o)
                0x000a1364                _wlan_dev_init
                0x000a14b4                _wlan_dev_attach
                0x000a1648                _wlandev_ready
                0x000a1810                _wlan_dev_register
                0x000a1824                wlandev_module_install
 *fill*         0x000a1836        0x2 00
 .ex_init_text  0x000a1838       0x13 protocol/src/cfg/.output/AR6320/hw.3/lib/libcfg.a(cfg.o)
                0x000a1838                _cfg_init
 *fill*         0x000a184b        0x1 00
 .ex_init_text  0x000a184c      0x3b3 mac_core/src/wal/AR/coex/.output/AR6320/hw.3/lib/wal_coex.a(wal_coex.o)
                                0x3b7 (size before relaxing)
                0x000a184c                _wal_coex_wb_timer_init
                0x000a1854                _wal_coex_init
                0x000a1b7c                _wal_coex_complete_init
                0x000a1b9c                _wal_coex_interrupt_init
                0x000a1bec                wal_coex_module_install
 *fill*         0x000a1bff        0x1 00
 .ex_init_text  0x000a1c00      0x24e mac_core/src/wal/AR/coex/.output/AR6320/hw.3/lib/wal_coex.a(wal_btcoex.o)
                0x000a1c00                _wal_btcoex_init
                0x000a1df4                wal_btcoex_attach
 *fill*         0x000a1e4e        0x2 00
 .ex_init_text  0x000a1e50      0x1f1 mac_core/src/wal/AR/coex/.output/AR6320/hw.3/lib/wal_coex.a(wal_mwscoex.o)
                0x000a1e50                _wal_mwscoex_init
                0x000a201c                wal_mws_attach
 *fill*         0x000a2041        0x3 00
 .ex_init_text  0x000a2044       0x3f mac_core/src/wal/whal/ini/.output/AR6320/hw.3/lib/libwhalini.a(whalini.o)
                0x000a2044                _whal_ini_init
                0x000a2074                whal_ini_module_install
 *fill*         0x000a2083        0x1 00
 .ex_init_text  0x000a2084       0x19 mac_core/src/data_txrx/.output/AR6320/hw.3/lib/libdatatxrx.a(data_txrx.o)
                0x000a2084                _data_txrx_init
 *fill*         0x000a209d        0x3 00
 .ex_init_text  0x000a20a0       0x17 mac_core/src/data_txrx/.output/AR6320/hw.3/lib/libdatatxrx.a(ieee80211_hdr.o)
                0x000a20a0                ieee80211_hdr_module_install
 *fill*         0x000a20b7        0x1 00
 .ex_init_text  0x000a20b8       0xc5 mac_core/src/data_txrx/.output/AR6320/hw.3/lib/libdatatxrx.a(data_rx.o)
                                 0xc9 (size before relaxing)
                0x000a20b8                _data_rx_module_init
 *fill*         0x000a217d        0x3 00
 .ex_init_text  0x000a2180       0x41 mac_core/src/data_txrx/.output/AR6320/hw.3/lib/libdatatxrx.a(data_rx_peer.o)
                0x000a2180                data_rx_peer_module_init
 *fill*         0x000a21c1        0x3 00
 .ex_init_text  0x000a21c4      0x115 mac_core/src/data_txrx/.output/AR6320/hw.3/lib/libdatatxrx.a(data_rx_reorder.o)
                0x000a21c4                data_rx_reorder_module_init
 *fill*         0x000a22d9        0x3 00
 .ex_init_text  0x000a22dc       0x10 protocol/src/mgmt_txrx/.output/AR6320/hw.3/lib/libmgmttxrx.a(ieee_mgmt_rx.o)
                0x000a22dc                ieee_mgmt_module_install
 .ex_init_text  0x000a22ec       0x12 protocol/src/mgmt_txrx/.output/AR6320/hw.3/lib/libmgmttxrx.a(wlan_mgmt_local_txrx.o)
                0x000a22ec                wlan_mgmt_local_txrx_module_install
 *fill*         0x000a22fe        0x2 00
 .ex_init_text  0x000a2300       0x24 protocol/src/mgmt_txrx/.output/AR6320/hw.3/lib/libmgmttxrx.a(wlan_mgmt_txrx.o)
                0x000a2300                _wlan_mgmt_txrx_register
 .ex_init_text  0x000a2324       0xdf protocol/src/vdev_mgr/.output/AR6320/hw.3/lib/libvdevmgr.a(wlan_vdev.o)
                0x000a2324                _wlan_vdev_module_init
                0x000a23dc                _wlan_vdev_register
                0x000a23f0                wlan_vdev_module_install
 *fill*         0x000a2403        0x1 00
 .ex_init_text  0x000a2404       0x76 mac_core/src/ratectrl/.output/AR6320/hw.3/lib/libratectrl_11ac.a(ratectrl_11ac_if.o)
                0x000a2404                _wlan_ratectrl_register
                0x000a2414                _RATE_Init
 *fill*         0x000a247a        0x2 00
 .ex_init_text  0x000a247c       0x22 mac_core/src/ratectrl/.output/AR6320/hw.3/lib/libratectrl_11ac.a(ratectrl_peer_state.o)
                0x000a247c                rate_ctrl_state_init
 *fill*         0x000a249e        0x2 00
 .ex_init_text  0x000a24a0      0x13b protocol/src/rtt/.output/AR6320/hw.3/lib/librtt.a(wlan_rtt.o)
                0x000a24a0                _wlan_rtt_register
                0x000a24c0                _wlan_rtt_enable
 *fill*         0x000a25db        0x1 00
 .ex_init_text  0x000a25dc       0x1d protocol/src/phyerr/.output/AR6320/hw.3/lib/libphyerr.a(wlan_phyerr.o)
                0x000a25dc                _wlan_phyerr_register
 *fill*         0x000a25f9        0x3 00
 .ex_init_text  0x000a25fc       0x9b protocol/src/rfkill/.output/AR6320/hw.3/lib/librfkill.a(wlan_rfkill.o)
                0x000a25fc                _wlan_rfkill_init
                0x000a266c                wlan_rfkill_module_install
 *fill*         0x000a2697        0x1 00
 .ex_init_text  0x000a2698      0x153 protocol/src/wmi/.output/AR6320/hw.3/lib/libumacwmi.a(wlan_wmi.o)
                0x000a2698                _wmi_intf_htc_init_wlanbuf_fn
                0x000a26b4                _wmi_target_init
                0x000a2770                WLAN_WMI_init
                0x000a27c0                WLAN_WMI_module_install
 *fill*         0x000a27eb        0x1 00
 .ex_init_text  0x000a27ec      0x214 protocol/src/wmi/.output/AR6320/hw.3/lib/libumacwmi.a(wlan_wmi_events.o)
                                0x217 (size before relaxing)
                0x000a29f8                wlan_wmi_events_module_install
 *fill*         0x000a2a00        0x0 00
 .ex_init_text  0x000a2a00       0x20 protocol/src/wmi/.output/AR6320/hw.3/lib/libumacwmi.a(wmi_gpiohook.o)
                0x000a2a00                gpio_WMI_register
 .ex_init_text  0x000a2a20      0x13a protocol/src/wmi/.output/AR6320/hw.3/lib/libumacwmi.a(wmi_tlv_helper.o)
                0x000a2a20                wmi_versions_are_compatible
                0x000a2a50                wmi_versions_can_downgrade
                0x000a2b28                wmi_cmp_and_set_abi_version
 *fill*         0x000a2b5a        0x2 00
 .ex_init_text  0x000a2b5c       0x75 protocol/src/offload_mgr/.output/AR6320/hw.3/lib/liboffload_mgr.a(beacon_filter.o)
                0x000a2b5c                _bcnfilter_init
                0x000a2bb4                _bcnfilter_register
 *fill*         0x000a2bd1        0x3 00
 .ex_init_text  0x000a2bd4       0x66 protocol/src/offload_mgr/.output/AR6320/hw.3/lib/liboffload_mgr.a(csa_offload_main.o)
                0x000a2bd4                _csa_init
                0x000a2c04                wlan_csa_offload_register
                0x000a2c24                wlan_csa_attach
 *fill*         0x000a2c3a        0x2 00
 .ex_init_text  0x000a2c3c       0xe2 protocol/src/offload_mgr/.output/AR6320/hw.3/lib/liboffload_mgr.a(offload_mgr.o)
                0x000a2c3c                _offldmgr_offload_init
                0x000a2c6c                _offldmgr_wlan_init
                0x000a2d0c                offldmgr_module_install
 *fill*         0x000a2d1e        0x2 00
 .ex_init_text  0x000a2d20       0x1d protocol/src/offload_mgr/.output/AR6320/hw.3/lib/liboffload_mgr.a(wlan_d0wow.o)
                0x000a2d20                _d0wow_register
 *fill*         0x000a2d3d        0x3 00
 .ex_init_text  0x000a2d40       0xe1 protocol/src/offload_mgr/.output/AR6320/hw.3/lib/liboffload_mgr.a(wlan_gtk_offload.o)
                0x000a2d40                _gtk_offload_register
                0x000a2d6c                _gtk_offload_init
 *fill*         0x000a2e21        0x3 00
 .ex_init_text  0x000a2e24      0x162 protocol/src/offload_mgr/.output/AR6320/hw.3/lib/liboffload_mgr.a(wlan_wow.o)
                                0x16a (size before relaxing)
                0x000a2e24                _wow_init
                0x000a2f50                _wow_register
                0x000a2f74                wlan_wow_module_install
 *fill*         0x000a2f86        0x2 00
 .ex_init_text  0x000a2f88       0xbb protocol/src/mgmt/.output/AR6320/hw.3/lib/libmgmt.a(wlan_beacon.o)
                0x000a2f88                _wlan_beacon_init
                0x000a301c                _wlan_beacon_early_rx_register
                0x000a3030                wlan_beacon_module_install
 *fill*         0x000a3043        0x1 00
 .ex_init_text  0x000a3044       0xb2 protocol/src/mgmt/.output/AR6320/hw.3/lib/libmgmt.a(wlan_early_rx_sm.o)
                0x000a3044                _wlan_early_rx_module_init
 *fill*         0x000a30f6        0x2 00
 .ex_init_text  0x000a30f8       0x10 protocol/src/mgmt/.output/AR6320/hw.3/lib/libmgmt.a(wlan_ie_utils.o)
                0x000a30f8                wlan_utils_module_install
 .ex_init_text  0x000a3108       0x2f protocol/src/power/.output/AR6320/hw.3/lib/libpower.a(wlan_pm_arbiter.o)
                0x000a3108                wlan_pm_arbiter_init
 *fill*         0x000a3137        0x1 00
 .ex_init_text  0x000a3138       0x86 protocol/src/power/.output/AR6320/hw.3/lib/libpower.a(wlan_powersave.o)
                0x000a3138                wlan_ps_init
 *fill*         0x000a31be        0x2 00
 .ex_init_text  0x000a31c0       0x26 protocol/src/power/.output/AR6320/hw.3/lib/libpower.a(wlan_powersave_ap.o)
                0x000a31c0                wlan_ps_ap_register
 *fill*         0x000a31e6        0x2 00
 .ex_init_text  0x000a31e8       0x41 protocol/src/power/.output/AR6320/hw.3/lib/libpower.a(wlan_powersave_sta.o)
                0x000a31e8                wlan_ps_sta_register
 *fill*         0x000a3229        0x3 00
 .ex_init_text  0x000a322c       0xd1 protocol/src/power/smps/.output/AR6320/hw.3/lib/libsmps.a(wlan_smps.o)
                0x000a322c                wlan_smps_init
                0x000a32e0                wlan_smps_register
 *fill*         0x000a32fd        0x3 00
 .ex_init_text  0x000a3300       0x5c protocol/src/resmgr/.output/AR6320/hw.3/lib/libresmgr.a(channel_mgr.o)
                0x000a3300                _channel_mgr_init
 .ex_init_text  0x000a335c       0x69 protocol/src/resmgr/.output/AR6320/hw.3/lib/libresmgr.a(resmgr.o)
                                 0x71 (size before relaxing)
                0x000a335c                _wlan_resmgr_register
                0x000a337c                _resmgr_init
 *fill*         0x000a33c5        0x3 00
 .ex_init_text  0x000a33c8       0x63 protocol/src/resmgr/.output/AR6320/hw.3/lib/libresmgr.a(resmgr_dyn_sch.o)
                0x000a33c8                resmgr_dyn_sch_init
 *fill*         0x000a342b        0x1 00
 .ex_init_text  0x000a342c      0x128 protocol/src/resmgr/.output/AR6320/hw.3/lib/libresmgr.a(resmgr_ocs.o)
                0x000a342c                resmgr_ocs_init
 .ex_init_text  0x000a3554       0x38 protocol/src/resmgr/.output/AR6320/hw.3/lib/libresmgr.a(virtual_channel.o)
                0x000a3554                wlan_virtual_chan_ctxt_init
 .ex_init_text  0x000a358c      0x1a5 mac_core/src/hostif/htc/.output/AR6320/hw.3/lib/libhtc.a(htc.o)
                0x000a358c                _HTCPipeAllocCtrlBuffers
                0x000a35f4                _HTCPipeInitProper
                0x000a36d4                _HTC_PipeInit
                0x000a36f0                HTC_pipe_module_Install
 *fill*         0x000a3731        0x3 00
 .ex_init_text  0x000a3734      0x2f3 mac_core/src/hostif/htt/.output/AR6320/hw.3/lib/libhtt.a(htt_tgt_hif_svc.o)
                0x000a3734                _htt_tgt_hif_svc_h2t_recv_buf_pool_attach
                0x000a3890                _htt_tgt_hif_svc_init
 *fill*         0x000a3a27        0x1 00
 .ex_init_text  0x000a3a28       0x71 mac_core/src/hostif/htt/.output/AR6320/hw.3/lib/libhtt.a(htt_tgt_rx.o)
                0x000a3a28                _htt_tgt_rx_init
 *fill*         0x000a3a99        0x3 00
 .ex_init_text  0x000a3a9c       0xc0 mac_core/src/hostif/htt/.output/AR6320/hw.3/lib/libhtt.a(htt_tgt_rx_event.o)
                0x000a3a9c                _htt_tgt_rx_event_init
 .ex_init_text  0x000a3b5c       0x1d mac_core/src/hostif/htt/.output/AR6320/hw.3/lib/libhtt.a(htt_tgt_stats.o)
                0x000a3b5c                _htt_tgt_stats_init
 *fill*         0x000a3b79        0x3 00
 .ex_init_text  0x000a3b7c      0x115 mac_core/src/hostif/htt/.output/AR6320/hw.3/lib/libhtt.a(htt_tgt_tx.o)
                0x000a3b7c                _htt_tgt_tx_init
 *fill*         0x000a3c91        0x3 00
 .ex_init_text  0x000a3c94       0x28 mac_core/src/utils/sm/.output/AR6320/hw.3/lib/libsm.a(sm.o)
                0x000a3c94                sm_module_install
 .ex_init_text  0x000a3cbc      0x237 protocol/src/coex/.output/AR6320/hw.3/lib/libcoex.a(coex.o)
                0x000a3cbc                _wlan_coex_register
                0x000a3cdc                _coex_init
 *fill*         0x000a3ef3        0x1 00
 .ex_init_text  0x000a3ef4      0x207 mac_core/src/hostif/wmisvc/.output/AR6320/hw.3/lib/libwmisvc.a(wmi_svc.o)
                0x000a40c4                WMI_service_module_install
 *fill*         0x000a40fb        0x1 00
 .ex_init_text  0x000a40fc       0x5b protocol/src/scan/.output/AR6320/hw.3/lib/libscan.a(wlan_dcs.o)
 *fill*         0x000a4157        0x1 00
 .ex_init_text  0x000a4158       0xf2 protocol/src/scan/.output/AR6320/hw.3/lib/libscan.a(wlan_scan_sch.o)
                0x000a4158                _wlan_scan_sch_register
                0x000a4178                _wlan_scan_sch_init
                0x000a4238                wlan_scan_sch_module_install
 *fill*         0x000a424a        0x2 00
 .ex_init_text  0x000a424c       0x98 protocol/src/scan/.output/AR6320/hw.3/lib/libscan.a(wlan_scan_sm.o)
                0x000a424c                _wlan_scan_sm_init
 .ex_init_text  0x000a42e4       0x8e protocol/src/scan/.output/AR6320/hw.3/lib/libscan.a(wlan_scan.o)
                0x000a42e4                _wlan_scan_init
 *fill*         0x000a4372        0x2 00
 .ex_init_text  0x000a4374       0x6d protocol/src/roam/.output/AR6320/hw.3/lib/libroam.a(wlan_roam.o)
                0x000a4374                _wlan_roam_module_init
 *fill*         0x000a43e1        0x3 00
 .ex_init_text  0x000a43e4       0x1d protocol/src/roam/.output/AR6320/hw.3/lib/libroam.a(wlan_roam_wmi.o)
                0x000a43e4                wlan_roam_offload_register
 *fill*         0x000a4401        0x3 00
 .ex_init_text  0x000a4404       0xcd protocol/src/pps/.output/AR6320/hw.3/lib/libpps.a(wlan_pps.o)
                0x000a4404                _wlan_pps_register
                0x000a4418                _wlan_pps_init
 *fill*         0x000a44d1        0x3 00
 .ex_init_text  0x000a44d4       0x63 protocol/src/stats/.output/AR6320/hw.3/lib/libstats.a(wlan_stats.o)
                0x000a44d4                _wlan_stats_module_init
 *fill*         0x000a4537        0x1 00
 .ex_init_text  0x000a4538       0xf6 mac_core/src/soc/pcielp/.output/AR6320/hw.3/lib/libpcielp.a(pcielp_core.o)
                                 0xfe (size before relaxing)
                0x000a4538                _pcielp_init
 *fill*         0x000a462e        0x2 00
 .ex_init_text  0x000a4630       0x5b mac_core/src/soc/pcielp/.output/AR6320/hw.3/lib/libpcielp.a(pcielp_ltr.o)
                0x000a4630                pcielp_ltr_init
 *fill*         0x000a468b        0x1 00
 .ex_init_text  0x000a468c       0x3e mac_core/src/soc/pcielp/.output/AR6320/hw.3/lib/libpcielp.a(pcielp_dsleep.o)
                0x000a468c                pcielp_dsleep_init
 *fill*         0x000a46ca        0x2 00
 .ex_init_text  0x000a46cc       0x48 mac_core/src/soc/pcielp/.output/AR6320/hw.3/lib/libpcielp.a(pcielp_l1ss.o)
                0x000a46cc                pcielp_l1ss_init
 .ex_init_text  0x000a4714       0x49 mac_core/src/pktlog/.output/AR6320/hw.3/lib/libpktlog.a(pktlog.o)
                0x000a4714                _pktlog_init
 *fill*         0x000a475d        0x3 00
 .ex_init_text  0x000a4760       0x21 protocol/src/tbd/.output/AR6320/hw.3/lib/libtbd.a(tbd.o)
                0x000a4760                _tbd_init
 *fill*         0x000a4781        0x3 00
 .ex_init_text  0x000a4784       0x6a protocol/src/p2p/.output/AR6320/hw.3/lib/libp2p.a(p2p_main.o)
                0x000a4784                _p2p_init
                0x000a47c8                _p2p_wmi_register
                0x000a47dc                p2p_module_install
 *fill*         0x000a47ee        0x2 00
 .ex_init_text  0x000a47f0      0x10c protocol/src/chatter/.output/AR6320/hw.3/lib/libchatter.a(wlan_chatter.o)
                                0x110 (size before relaxing)
                0x000a47f0                wlan_chatter_module_register
                0x000a4810                wlan_chatter_module_init
 .ex_init_text  0x000a48fc       0xf1 protocol/src/chatter/.output/AR6320/hw.3/lib/libchatter.a(wlan_coalescing.o)
                0x000a48fc                wlan_pkt_coalescing_attach
 *fill*         0x000a49ed        0x3 00
 .ex_init_text  0x000a49f0       0x4a mac_core/src/retention/.output/AR6320/hw.3/lib/libretention.a(wlan_retention.o)
                0x000a49f0                wlan_retention_init
 *fill*         0x000a4a3a        0x2 00
 .ex_init_text  0x000a4a3c       0x37 mac_core/src/utils/buf_chunk/.output/AR6320/hw.3/lib/libbufchunk.a(buf_chunk_api.o)
                0x000a4a3c                _buf_chunk_init
 *fill*         0x000a4a73        0x1 00
 .ex_init_text  0x000a4a74       0x56 protocol/src/txbf/.output/AR6320/hw.3/lib/libtxbf.a(wlan_txbf.o)
                0x000a4a74                _wlan_txbf_init
 *fill*         0x000a4aca        0x2 00
 .ex_init_text  0x000a4acc       0xbc protocol/src/tdls/.output/AR6320/hw.3/lib/libtdls.a(wlan_tdls.o)
                0x000a4acc                _wlan_tdls_init
                0x000a4b50                _wlan_tdls_register
 .ex_init_text  0x000a4b88       0xde mac_core/src/misc/extend_alloc/.output/AR6320/hw.3/lib/libextendalloc.a(extend_allocate.o)
                0x000a4b88                _extend_allocram_init
                0x000a4c0c                _extend_allocram_register_handle
 *fill*         0x000a4c66        0x2 00
 .ex_init_text  0x000a4c68       0x48 protocol/src/thermal_mgr/.output/AR6320/hw.3/lib/libthermalmgr.a(wlan_thermal_mgr.o)
                0x000a4c68                wlan_thermal_mgr_init
 .ex_init_text  0x000a4cb0        0xd mac_core/src/hostif/hif/hif_dbguart/.output/AR6320/hw.3/lib/lib_hif_dbguart.a(hif_dbguart_install.o)
                                 0x10 (size before relaxing)
                0x000a4cb0                hif_duart_module_install
 *fill*         0x000a4cbd        0x3 00
 .ex_init_text  0x000a4cc0       0x12 mac_core/src/hostif/hif/hif_dbguart/.output/AR6320/hw.3/lib/lib_hif_dbguart.a(hif_dbguart.o)
                0x000a4cc0                hif_duart_module_install_internal
 *fill*         0x000a4cd2        0x2 00
 .ex_init_text  0x000a4cd4       0xe0 protocol/src/lpi/.output/AR6320/hw.3/lib/liblpi.a(wlan_lpi.o)
                0x000a4d84                _wlan_lpi_register
 .ex_init_text  0x000a4db4       0x25 protocol/src/profile/.output/AR6320/hw.3/lib/libwlanprofile.a(wlan_profile.o)
                0x000a4db4                _wlan_profile_init
 *fill*         0x000a4dd9        0x3 00
 .ex_init_text  0x000a4ddc       0x8f protocol/src/offload/.output/AR6320/hw.3/lib/liboffload.a(wlan_arp_ns_offload.o)
                0x000a4ddc                _arp_ns_offload_init
                0x000a4dfc                _arp_ns_offload_register
                0x000a4e1c                _wlan_proact_arp_resp_keepalive_init
 *fill*         0x000a4e6b        0x1 00
 .ex_init_text  0x000a4e6c       0xa4 protocol/src/offload/.output/AR6320/hw.3/lib/liboffload.a(wlan_beacon_tx_offload.o)
                0x000a4e6c                _wlan_beacon_tx_offload_init
                0x000a4ef0                _wlan_beacon_tx_offload_register
 .ex_init_text  0x000a4f10       0x79 protocol/src/offload/.output/AR6320/hw.3/lib/liboffload.a(wlan_network_list_offload.o)
                0x000a4f10                _wlan_nlo_init
                0x000a4f6c                _wlan_nlo_register
 *fill*         0x000a4f89        0x3 00
 .ex_init_text  0x000a4f8c       0x79 protocol/src/offload/.output/AR6320/hw.3/lib/liboffload.a(wlan_swbmiss_offload.o)
                0x000a4f8c                _wlan_swbmiss_init
                0x000a4ff4                _wlan_bcn_miss_offload_register
 *fill*         0x000a5005        0x3 00
 .ex_init_text  0x000a5008       0x82 protocol/src/blockack/.output/AR6320/hw.3/lib/libblockack.a(wlan_blockack.o)
                0x000a5008                _wlan_ba_register
                0x000a5028                _wlan_ba_init
 *fill*         0x000a508a        0x2 00
 .ex_init_text  0x000a508c      0x18d mac_core/src/wal/whal/reset/.output/AR6320/hw.3/lib/ar6000_cal.a(ar6320_cal.o)
                0x000a508c                ar6000InitCalStruct
 *fill*         0x000a5219        0x3 00
 .ex_init_text  0x000a521c       0x2c protocol/src/unit_test/.output/AR6320/hw.3/lib/libunittest.a(unit_test.o)
                0x000a521c                _unit_test_init
                0x000a5224                _unit_test_wmi_register
 .ex_init_text  0x000a5248       0x59 protocol/src/nan/.output/AR6320/hw.3/lib/libnanwlan.a(wlan_nan.o)
                0x000a5248                _NAN_Init
 *fill*         0x000a52a1        0x3 00
 .ex_init_text  0x000a52a4       0x38 protocol/src/extscan/.output/AR6320/hw.3/lib/libextscan.a(wlan_extscan_main.o)
                0x000a52a4                _wlan_extscan_init
 .ex_init_text  0x000a52dc       0x1d protocol/src/extscan/.output/AR6320/hw.3/lib/libextscan.a(wlan_extscan_wmi.o)
                0x000a52dc                _wlan_extscan_register
 *fill*         0x000a52f9        0x3 00
 .ex_init_text  0x000a52fc       0x5e mac_core/src/wal/AR/rtt/.output/AR6320/hw.3/lib/ar_wal_rtt.a(wal_rtt.o)
                0x000a52fc                _wal_rtt_init
 *fill*         0x000a535a        0x2 00
 .ex_init_text  0x000a535c       0x7a mac_core/patch/AR6320/v3/.output/AR6320/hw.3/lib/lib_maccore_patches.a(install_patches.o)
                                 0x9d (size before relaxing)
                0x000a535c                install_phase0_patches
                0x000a5380                install_patches
 *fill*         0x000a53d6        0x2 00
 .ex_init_text  0x000a53d8       0x56 mac_core/patch/AR6320/v3/.output/AR6320/hw.3/lib/lib_maccore_patches.a(whal_install_patches.o)
                                 0x72 (size before relaxing)
                0x000a53d8                whal_install_patches
                0x000a5424                whal_pre_init_callback
 *fill*         0x000a542e        0x2 00
 .ex_init_text  0x000a5430       0x4d mac_core/patch/AR6320/v3/.output/AR6320/hw.3/lib/lib_maccore_patches.a(wal_install_patches.o)
                                 0x8f (size before relaxing)
                0x000a5430                wal_install_patches
 *fill*         0x000a547d        0x3 00
 .ex_init_text  0x000a5480       0x36 mac_core/patch/AR6320/v3/.output/AR6320/hw.3/lib/lib_maccore_patches.a(ar_wal_connection_pause_patch.o)
                0x000a5480                ar_wal_connection_pause_patch_install
 *fill*         0x000a54b6        0x2 00
 .ex_init_text  0x000a54b8      0x586 mac_core/patch/AR6320/v3/.output/AR6320/hw.3/lib/lib_maccore_patches.a(ar_wal_phy_dev_patch.o)
                0x000a54b8                patch_wal_dev_attach
                0x000a59f4                ar_wal_phy_dev_install_patch
 *fill*         0x000a5a3e        0x2 00
 .ex_init_text  0x000a5a40      0x152 mac_core/patch/AR6320/v3/.output/AR6320/hw.3/lib/lib_maccore_patches.a(cmnos_retention_patch.o)
                0x000a5a40                patch_cmnos_retention_hwinit
                0x000a5b24                patch_cmnos_retention_init
                0x000a5b60                patch_cmnos_retention_module_install
 *fill*         0x000a5b92        0x2 00
 .ex_init_text  0x000a5b94       0x2c mac_core/patch/AR6320/v3/.output/AR6320/hw.3/lib/lib_maccore_patches.a(ar_wal_tx_de_patch.o)
                0x000a5b94                ar_wal_tx_de_patch_install
 .ex_init_text  0x000a5bc0       0x2b mac_core/patch/AR6320/v3/.output/AR6320/hw.3/lib/lib_maccore_patches.a(ar_wal_local_frames_wifi_ip01_patch.o)
                0x000a5bc0                ar_wal_local_frames_wifi_ip01_install_patch
 *fill*         0x000a5beb        0x1 00
 .ex_init_text  0x000a5bec       0xa5 mac_core/patch/AR6320/v3/.output/AR6320/hw.3/lib/lib_maccore_patches.a(ar_wal_rx_patch.o)
                0x000a5bec                ar_wal_rx_patch_install
 *fill*         0x000a5c91        0x3 00
 .ex_init_text  0x000a5c94       0x28 mac_core/patch/AR6320/v3/.output/AR6320/hw.3/lib/lib_maccore_patches.a(ar_wal_rx_offload_patch.o)
                0x000a5c94                ar_wal_rx_offload_patch_install
 .ex_init_text  0x000a5cbc       0x26 mac_core/patch/AR6320/v3/.output/AR6320/hw.3/lib/lib_maccore_patches.a(ar_wal_rx_common_patch.o)
                0x000a5cbc                ar_wal_rx_common_patch_install
 *fill*         0x000a5ce2        0x2 00
 .ex_init_text  0x000a5ce4       0x6d mac_core/patch/AR6320/v3/.output/AR6320/hw.3/lib/lib_maccore_patches.a(ar_wal_vdev_patch.o)
                0x000a5ce4                ar_wal_vdev_install_patch
 *fill*         0x000a5d51        0x3 00
 .ex_init_text  0x000a5d54       0x12 mac_core/patch/AR6320/v3/.output/AR6320/hw.3/lib/lib_maccore_patches.a(ar_tx_q_enque_patch.o)
                0x000a5d54                ar_tx_q_enque_install_patch
 *fill*         0x000a5d66        0x2 00
 .ex_init_text  0x000a5d68       0x54 mac_core/patch/AR6320/v3/.output/AR6320/hw.3/lib/lib_maccore_patches.a(tx_sched_patch.o)
                0x000a5d68                tx_sched_install_patch
 .ex_init_text  0x000a5dbc      0x393 mac_core/patch/AR6320/v3/.output/AR6320/hw.3/lib/lib_maccore_patches.a(ar_wal_tx_send_patch.o)
                0x000a5dbc                init_wal_tx_hwq_ext
                0x000a5de0                patch_tx_send_attach
                0x000a60b0                ar_wal_tx_send_patch_install
 *fill*         0x000a614f        0x1 00
 .ex_init_text  0x000a6150       0x21 mac_core/patch/AR6320/v3/.output/AR6320/hw.3/lib/lib_maccore_patches.a(ar_wal_chain_mgmt_patch.o)
                0x000a6150                patch_wal_chain_mgmt_api_module_install
 *fill*         0x000a6171        0x3 00
 .ex_init_text  0x000a6174       0x8c mac_core/patch/AR6320/v3/.output/AR6320/hw.3/lib/lib_maccore_patches.a(ar_wal_peer_patch.o)
                0x000a6174                patch_wal_peer_api_module_install
 .ex_init_text  0x000a6200       0xce mac_core/patch/AR6320/v3/.output/AR6320/hw.3/lib/lib_maccore_patches.a(ar600P_txbf_patch.o)
                0x000a6200                patch_ar6000TxbfeeInit
                0x000a6270                ar600P_txbf_patch_install
                0x000a62c0                patch_ar6000TxbfAttach
 *fill*         0x000a62ce        0x2 00
 .ex_init_text  0x000a62d0       0x4d mac_core/patch/AR6320/v3/.output/AR6320/hw.3/lib/lib_maccore_patches.a(ar_xmit_wifi_ip01_patch.o)
                0x000a62d0                ar_xmit_wifi_ip01_patch_install
 *fill*         0x000a631d        0x3 00
 .ex_init_text  0x000a6320       0x26 mac_core/patch/AR6320/v3/.output/AR6320/hw.3/lib/lib_maccore_patches.a(ar_wal_channel_change_patch.o)
                0x000a6320                patch_wal_channel_change_api_module_install
 *fill*         0x000a6346        0x2 00
 .ex_init_text  0x000a6348       0x4a mac_core/patch/AR6320/v3/.output/AR6320/hw.3/lib/lib_maccore_patches.a(ar_wal_rc_patch.o)
                0x000a6348                ar_wal_rc_patch_install
 *fill*         0x000a6392        0x2 00
 .ex_init_text  0x000a6394       0x16 mac_core/patch/AR6320/v3/.output/AR6320/hw.3/lib/lib_maccore_patches.a(wal_rtt_patch.o)
                0x000a6394                wal_rtt_patch_install
 *fill*         0x000a63aa        0x2 00
 .ex_init_text  0x000a63ac       0x16 mac_core/patch/AR6320/v3/.output/AR6320/hw.3/lib/lib_maccore_patches.a(whal_rtt_patch.o)
                0x000a63ac                whal_rtt_patch_install
 *fill*         0x000a63c2        0x2 00
 .ex_init_text  0x000a63c4       0x32 mac_core/patch/AR6320/v3/.output/AR6320/hw.3/lib/lib_maccore_patches.a(dbglog_patch.o)
                0x000a63c4                patch_dbglog_module_install
 *fill*         0x000a63f6        0x2 00
 .ex_init_text  0x000a63f8       0x1a mac_core/patch/AR6320/v3/.output/AR6320/hw.3/lib/lib_maccore_patches.a(ar600p_beacon_patch.o)
                0x000a63f8                ar600P_beacon_patch_install
 *fill*         0x000a6412        0x2 00
 .ex_init_text  0x000a6414       0x62 mac_core/patch/AR6320/v3/.output/AR6320/hw.3/lib/lib_maccore_patches.a(ar6000_power_patch.o)
                0x000a6414                ar6000_power_patch_install
 *fill*         0x000a6476        0x2 00
 .ex_init_text  0x000a6478       0x51 mac_core/patch/AR6320/v3/.output/AR6320/hw.3/lib/lib_maccore_patches.a(cmnos_intrinf_patch.o)
                0x000a6478                cmnos_intrinf_install_patch
 *fill*         0x000a64c9        0x3 00
 .ex_init_text  0x000a64cc       0x1c mac_core/patch/AR6320/v3/.output/AR6320/hw.3/lib/lib_maccore_patches.a(wal_beacon_patch.o)
                0x000a64cc                wal_beacon_patch_install
 .ex_init_text  0x000a64e8        0xd mac_core/patch/AR6320/v3/.output/AR6320/hw.3/lib/lib_maccore_patches.a(wal_swba_patch.o)
                0x000a64e8                wal_swba_install_patch
 *fill*         0x000a64f5        0x3 00
 .ex_init_text  0x000a64f8       0x6e mac_core/patch/AR6320/v3/.output/AR6320/hw.3/lib/lib_maccore_patches.a(ar600P_retention_patch.o)
                0x000a64f8                ar600P_retention_patch_install
 *fill*         0x000a6566        0x2 00
 .ex_init_text  0x000a6568      0x135 mac_core/patch/AR6320/v3/.output/AR6320/hw.3/lib/lib_maccore_patches.a(ar_wal_tx_dm_patch.o)
                0x000a6568                patch_tx_dm_init
                0x000a6684                ar_wal_tx_dm_patch_install
 *fill*         0x000a669d        0x3 00
 .ex_init_text  0x000a66a0       0x68 mac_core/patch/AR6320/v3/.output/AR6320/hw.3/lib/lib_maccore_patches.a(patch_copy_engine.o)
                0x000a66a0                patch_copy_engine
 .ex_init_text  0x000a6708       0x1e mac_core/patch/AR6320/v3/.output/AR6320/hw.3/lib/lib_maccore_patches.a(wal_concurrency_patch.o)
                0x000a6708                wal_concurrency_install_patch
 *fill*         0x000a6726        0x2 00
 .ex_init_text  0x000a6728       0x2a mac_core/patch/AR6320/v3/.output/AR6320/hw.3/lib/lib_maccore_patches.a(ar_wal_tdls_patch.o)
                0x000a6728                ar_wal_tdls_patch_install
 *fill*         0x000a6752        0x2 00
 .ex_init_text  0x000a6754        0xe mac_core/patch/AR6320/v3/.output/AR6320/hw.3/lib/lib_maccore_patches.a(cmnos_timer_patch.o)
                0x000a6754                patch_cmnos_timer_module_install
 *fill*         0x000a6762        0x2 00
 .ex_init_text  0x000a6764       0x2a mac_core/patch/AR6320/v3/.output/AR6320/hw.3/lib/lib_maccore_patches.a(ar_wal_tx_hcm_patch.o)
                0x000a6764                patch_tx_hcm_attach
                0x000a677c                ar_wal_tx_hcm_patch_install
 *fill*         0x000a678e        0x2 00
 .ex_init_text  0x000a6790       0x31 mac_core/patch/AR6320/v3/.output/AR6320/hw.3/lib/lib_maccore_patches.a(ar_wal_tdls_conn_table_patch.o)
                0x000a6790                ar_wal_tdls_conn_table_patch_install
 *fill*         0x000a67c1        0x3 00
 .ex_init_text  0x000a67c4       0x35 mac_core/patch/AR6320/v3/.output/AR6320/hw.3/lib/lib_maccore_patches.a(ar600P_recv_patch.o)
                0x000a67c4                ar600P_recv_patch_install
                0x000a67ec                ar6320_recv_size_patch_install
 *fill*         0x000a67f9        0x3 00
 .ex_init_text  0x000a67fc       0x53 mac_core/patch/AR6320/v3/.output/AR6320/hw.3/lib/lib_maccore_patches.a(os_install_wlan_extra_memory_patches.o)
                0x000a67fc                patch_CE_fini
                0x000a681c                os_install_wlan_extra_memory_patches
 *fill*         0x000a684f        0x1 00
 .ex_init_text  0x000a6850       0x12 mac_core/patch/AR6320/v3/.output/AR6320/hw.3/lib/lib_maccore_patches.a(sha1_patch.o)
                0x000a6850                sha1_install_patch
 *fill*         0x000a6862        0x2 00
 .ex_init_text  0x000a6864       0x65 mac_core/patch/AR6320/v3/.output/AR6320/hw.3/lib/lib_maccore_patches.a(ar_wal_txbf_patch.o)
                0x000a6864                patch_wal_txbfee_init
                0x000a68bc                ar_wal_txbf_patch_install
 *fill*         0x000a68c9        0x3 00
 .ex_init_text  0x000a68cc       0x17 mac_core/patch/AR6320/v3/.output/AR6320/hw.3/lib/lib_maccore_patches.a(cmnos_allocram_patch.o)
                0x000a68cc                patch_cmnos_allocram_module_install
 *fill*         0x000a68e3        0x1 00
 .ex_init_text  0x000a68e4       0x21 protocol/src/extwow/.output/AR6320/hw.3/lib/libextwow.a(wlan_extwow.o)
                0x000a68e4                _wlan_extwow_init
 *fill*         0x000a6905        0x3 00
 .ex_init_text  0x000a6908       0x32 halphy/patch/AR6320/v3/.output/AR6320/hw.3/lib/lib_halphy_patches.a(halphy_install_patches.o)
                                 0x46 (size before relaxing)
                0x000a6908                halphy_install_patches
 *fill*         0x000a693a        0x2 00
 .ex_init_text  0x000a693c       0x2c halphy/patch/AR6320/v3/.output/AR6320/hw.3/lib/lib_halphy_patches.a(ar6000_ani_patch.o)
                0x000a693c                ar6000_ani_patch_install
 .ex_init_text  0x000a6968       0x9f halphy/patch/AR6320/v3/.output/AR6320/hw.3/lib/lib_halphy_patches.a(ar6320_ini_patch.o)
                0x000a6968                ar6320_ini_patch_install
 *fill*         0x000a6a07        0x1 00
 .ex_init_text  0x000a6a08       0x42 halphy/patch/AR6320/v3/.output/AR6320/hw.3/lib/lib_halphy_patches.a(ar6320_tpc_config_patch.o)
                0x000a6a08                ar6320_tpc_config_patch_install
 *fill*         0x000a6a4a        0x2 00
 .ex_init_text  0x000a6a4c       0x8a halphy/patch/AR6320/v3/.output/AR6320/hw.3/lib/lib_halphy_patches.a(ar6320_eeprom_patch.o)
                0x000a6a4c                ar6000_eeprom_patch_install
 *fill*         0x000a6ad6        0x2 00
 .ex_init_text  0x000a6ad8       0xb0 halphy/patch/AR6320/v3/.output/AR6320/hw.3/lib/lib_halphy_patches.a(ar600P_reset_patch.o)
                0x000a6ad8                hal_ar600P_reset_patch_install
 .ex_init_text  0x000a6b88      0x11f halphy/patch/AR6320/v3/.output/AR6320/hw.3/lib/lib_halphy_patches.a(ar6000_paprd_patch.o)
                0x000a6b88                ar6000_paprd_patch_install
 *fill*         0x000a6ca7        0x1 00
 .ex_init_text  0x000a6ca8       0x16 halphy/patch/AR6320/v3/.output/AR6320/hw.3/lib/lib_halphy_patches.a(ar6000_phy_patch.o)
                0x000a6ca8                ar6000_phy_patch_install
 *fill*         0x000a6cbe        0x2 00
 .ex_init_text  0x000a6cc0       0x2f mac_core/src/wal/whal/rtt/.output/AR6320/hw.3/lib/whal_rtt.a(whal_rtt.o)
                0x000a6cc0                rtt_init
                0x000a6cd8                whal_rtt_attach
 *fill*         0x000a6cef        0x0 00
 *fill*         0x000a6cef        0x0 00
 *fill*         0x000a6cef        0x0 00
 *fill*         0x000a6cef        0x0 00
 *fill*         0x000a6cef        0x0 00
 *fill*         0x000a6cef        0x0 00
 *fill*         0x000a6cef        0x0 00
 *fill*         0x000a6cef        0x0 00
 *fill*         0x000a6cef        0x0 00
 *fill*         0x000a6cef        0x0 00
 *fill*         0x000a6cef        0x0 00
 *fill*         0x000a6cef        0x0 00
 *fill*         0x000a6cef        0x0 00
 *fill*         0x000a6cef        0x0 00
 *fill*         0x000a6cef        0x0 00
 *fill*         0x000a6cef        0x0 00
 *fill*         0x000a6cef        0x0 00
 *fill*         0x000a6cef        0x0 00
 *fill*         0x000a6cef        0x0 00
 *fill*         0x000a6cef        0x0 00
 *fill*         0x000a6cef        0x0 00
 *fill*         0x000a6cef        0x0 00
 *fill*         0x000a6cef        0x1 00
 .ex_init_text  0x000a6cf0        0x5 protocol/src/wmi/.output/AR6320/hw.3/lib/libumacwmi.a(umac_wmi_events.o)
                0x000a6cf0                umac_wmi_events_module_install
 *fill*         0x000a6cf5        0x0 00
 *fill*         0x000a6cf5        0x0 00
 *fill*         0x000a6cf5        0x0 00
 *fill*         0x000a6cf5        0x0 00
 *fill*         0x000a6cf5        0x0 00
 *fill*         0x000a6cf5        0x0 00
 *fill*         0x000a6cf5        0x0 00
 *fill*         0x000a6cf5        0x0 00
 *fill*         0x000a6cf5        0x0 00
 *fill*         0x000a6cf5        0x0 00
 *fill*         0x000a6cf5        0x0 00
 *fill*         0x000a6cf5        0x0 00
 *fill*         0x000a6cf5        0x0 00
 *fill*         0x000a6cf5        0x0 00
 *fill*         0x000a6cf5        0x0 00
 *fill*         0x000a6cf5        0x0 00
 *fill*         0x000a6cf5        0x0 00
 *fill*         0x000a6cf5        0x0 00
 *fill*         0x000a6cf5        0x0 00
 *fill*         0x000a6cf5        0x0 00
 *fill*         0x000a6cf5        0x0 00
 *fill*         0x000a6cf5        0x0 00
 *fill*         0x000a6cf5        0x0 00
 *fill*         0x000a6cf5        0x0 00
 *fill*         0x000a6cf5        0x0 00
 *fill*         0x000a6cf5        0x0 00
 *fill*         0x000a6cf5        0x0 00
 *fill*         0x000a6cf5        0x0 00
 *fill*         0x000a6cf5        0x0 00
 *fill*         0x000a6cf5        0x0 00
 *fill*         0x000a6cf5        0x0 00
 *fill*         0x000a6cf5        0x0 00
 *fill*         0x000a6cf5        0x0 00
 *fill*         0x000a6cf5        0x0 00
 *fill*         0x000a6cf5        0x0 00
 *fill*         0x000a6cf5        0x0 00
 *fill*         0x000a6cf5        0x0 00
 *fill*         0x000a6cf5        0x0 00
 *fill*         0x000a6cf5        0x0 00
 *fill*         0x000a6cf5        0x0 00
 *fill*         0x000a6cf5        0x0 00
 *fill*         0x000a6cf5        0x0 00
 *fill*         0x000a6cf5        0x0 00
 *fill*         0x000a6cf5        0x0 00
 *fill*         0x000a6cf5        0x0 00
 *fill*         0x000a6cf5        0x0 00
 *fill*         0x000a6cf5        0x0 00
 *fill*         0x000a6cf5        0x0 00
 *fill*         0x000a6cf5        0x0 00
 *fill*         0x000a6cf5        0x0 00
 *fill*         0x000a6cf5        0x0 00
 *fill*         0x000a6cf5        0x0 00
 *fill*         0x000a6cf5        0x0 00
 *fill*         0x000a6cf5        0x0 00
 *fill*         0x000a6cf5        0x0 00
 *fill*         0x000a6cf5        0x0 00
 *fill*         0x000a6cf5        0x0 00
 *fill*         0x000a6cf5        0x0 00
 *fill*         0x000a6cf5        0x0 00
 *fill*         0x000a6cf5        0x0 00
 *fill*         0x000a6cf5        0x0 00
 *fill*         0x000a6cf5        0x0 00
 *fill*         0x000a6cf5        0x0 00
 *fill*         0x000a6cf5        0x0 00
 *fill*         0x000a6cf5        0x0 00
 *fill*         0x000a6cf5        0x0 00
 *fill*         0x000a6cf5        0x0 00
 *fill*         0x000a6cf5        0x0 00
 *fill*         0x000a6cf5        0x0 00
 *fill*         0x000a6cf5        0x0 00
 *fill*         0x000a6cf5        0x0 00
 *fill*         0x000a6cf5        0x0 00
 *fill*         0x000a6cf5        0x0 00
 *fill*         0x000a6cf5        0x0 00
 *fill*         0x000a6cf5        0x0 00
 *fill*         0x000a6cf5        0x0 00
 *fill*         0x000a6cf5        0x0 00
 *fill*         0x000a6cf5        0x0 00
 *fill*         0x000a6cf5        0x3 00
 .ex_init_text  0x000a6cf8        0x5 mac_core/patch/AR6320/v3/.output/AR6320/hw.3/lib/lib_maccore_patches.a(ar_wal_rmc_patch.o)
                0x000a6cf8                ar_wal_rmc_patch_install
 *fill*         0x000a6cfd        0x0 00
 *fill*         0x000a6cfd        0x0 00
 *fill*         0x000a6cfd        0x0 00
 *fill*         0x000a6cfd        0x0 00
 *fill*         0x000a6cfd        0x0 00
 *fill*         0x000a6cfd        0x0 00
 *fill*         0x000a6cfd        0x0 00
 *fill*         0x000a6cfd        0x0 00
 *fill*         0x000a6cfd        0x0 00
 *fill*         0x000a6cfd        0x0 00
 *fill*         0x000a6cfd        0x0 00
 *fill*         0x000a6cfd        0x0 00
 *fill*         0x000a6cfd        0x0 00
 *fill*         0x000a6cfd        0x0 00
 *fill*         0x000a6cfd        0x0 00
 *fill*         0x000a6cfd        0x0 00
 *fill*         0x000a6cfd        0x0 00
 *fill*         0x000a6cfd        0x0 00
 *fill*         0x000a6cfd        0x0 00
                0x000a6cfd                _ex_init_text_end = ABSOLUTE (.)

.evictable_text
                0x0a000000        0x7
                0x0a000000                . = ALIGN (0x4)
                0x0a000000                _evict_text_start = ABSOLUTE (.)
 *(.evictable_text)
 .evictable_text
                0x0a000000        0x7 mac_core/src/misc/codeswap/.output/AR6320/hw.3/lib/libcodeswap.a(codeswap.o)
                0x0a000000                __CODESWAP_EVICTED__codeswap_nonres_fn
                0x0a000007                _evict_text_end = ABSOLUTE (.)

.alt_text       0x000a6f00     0xf115
                0x000a6f00                _s_alt_text = .
                0x000a6f00                _alt_text_start = ABSOLUTE (.)
 mac_core/src/wal/whal/rtt/.output/AR6320/hw.3/lib/whal_rtt.a(.text)
 .text          0x000a6f00      0xcfb mac_core/src/wal/whal/rtt/.output/AR6320/hw.3/lib/whal_rtt.a(whal_rtt.o)
                0x000a6f00                get_mac_clock_freq
                0x000a6f24                rtt_send_sta_get_rxbw
                0x000a6f34                rtt_send_sta_get_txbw
                0x000a6f7c                _rtt_get_rx_frame_len
                0x000a6f8c                rtt_recv_sta_get_rxbw
                0x000a6fec                rtt_get_rx_chain_mask
                0x000a7050                rtt_read_channel_dump
                0x000a71ac                _rtt_reg_setting
                0x000a720c                rtt_frame_prepare
                0x000a7414                rtt_frame_recover
                0x000a74d0                _rtt_rx_frame_time
                0x000a7630                _rtt_ack_rx_time
                0x000a76c8                _rtt_get_txrx_delay
                0x000a77b4                rtt_get_toda
                0x000a7994                rtt_send_sta_get_rssi
                0x000a7a30                rtt_recv_sta_get_rssi
                0x000a7acc                rtt_recv_sta_get_CFR_sta
                0x000a7af8                rtt_recv_sta_do_CFR_capture
                0x000a7b5c                _rtt_get_hw_corr_value
                0x000a7bcc                rtt_fac_handler
 mac_core/src/misc/profile/.output/AR6320/hw.3/lib/libprofile.a(.text)
 protocol/src/rtt/.output/AR6320/hw.3/lib/librtt.a(.text)
 *fill*         0x000a7bfb        0x1 00
 .text          0x000a7bfc     0x2bbf protocol/src/rtt/.output/AR6320/hw.3/lib/librtt.a(wlan_rtt.o)
                0x000a7bfc                wlan_rtt_schedule
                0x000a7cc8                wlan_rtt_sche_req
                0x000a7d78                wlan_rtt_sche_delete
                0x000a7df4                wlan_rtt_sche_release
                0x000a8354                wlan_rtt_exit_clean
                0x000a83d8                wlan_rtt_resp_exit_clean
                0x000a8814                wlan_set_rtt_rate_info
                0x000a8b3c                wlan_rtt_resp_init
                0x000a90d4                wlan_rtt_set_report_header
                0x000a9204                wmi_send_rtt_error_report_event
                0x000a92b8                wmi_rtt_report_complete
                0x000a9440                wlan_rtt_chan_switch_hdl
                0x000a9540                wlan_rtt_duration_estimate
                0x000a95ac                wlan_rtt_do_chnl_switch
                0x000a96a8                wlan_rtt_local_send
                0x000aa664                wlan_rtt_new_ftm_session
                0x000aa6e4                wlan_rtt_abort_chnl_switch
                0x000aa734                wlan_rtt_abort_curr_ftm_session
 *fill*         0x000aa7bb        0x0 00
 protocol/src/framegen/.output/AR6320/hw.3/lib/libframegen.a(.text)
 *fill*         0x000aa7bb        0x1 00
 .text          0x000aa7bc     0x19e9 protocol/src/framegen/.output/AR6320/hw.3/lib/libframegen.a(wlan_framegen.o)
                0x000aa808                _wlan_frmgen_get_pspoll
                0x000aa898                _wlan_frmgen_get_nullfunc
                0x000aaaa0                _wlan_frmgen_get_cts2self
                0x000aab20                _wlan_frmgen_get_action_ba
                0x000aaee4                _wlan_frmgen_get_bar
                0x000aaf94                wlan_add_rates
                0x000aafbc                wlan_add_ssid
                0x000aafe0                _wlan_frmgen_get_probe_req
                0x000ab1e0                _wlan_frmgen_get_action_tmr
                0x000ab2f8                _wlan_frmgen_get_action_tm
                0x000ab44c                _wlan_frmgen_get_cfend
                0x000ab4d8                _wlan_frmgen_get_probe_resp
                0x000ab674                _wlan_frmgen_get_action_smps
                0x000ab7a0                _wlan_frmgen_get_iapp
                0x000ab810                _wlan_frmgen_get_action_rmc_ldr_inform
                0x000ab818                _wlan_frmgen_get_deauth_disassoc
                0x000ab90c                _wlan_frmgen_get_noa_action
                0x000ab9dc                _wlan_frmgen_get_mgmt_atim
                0x000abacc                _wlan_frmgen_get_tdls_action_pti
                0x000abd00                _wlan_frmgen_get_tdls_action_channel_switch_req
                0x000abf64                _wlan_frmgen_get_tdls_action_channel_switch_resp
 *fill*         0x000ac1a5        0x0 00
 protocol/src/offload/.output/AR6320/hw.3/lib/liboffload.a(.text)
 *fill*         0x000ac1a5        0x3 00
 .text          0x000ac1a8      0xf0d protocol/src/offload/.output/AR6320/hw.3/lib/liboffload.a(wlan_arp_ns_offload.o)
                0x000ac208                _arp_validate
                0x000ac344                _arp_construct_reply
                0x000ac3f0                _arp_ns_offload_get_stats
                0x000ac408                _arp_ns_offload_clear_stats
                0x000ac420                _arp_ns_offload_process_local_arpreq
                0x000ac53c                _ns_validate
                0x000ac688                _ns_construct_reply
                0x000ac788                _arp_ns_offload_get_payload
                0x000ac7f8                _arp_ns_offload_proc_frame
                0x000acc68                dispatch_arp_ns_offload_cmds
                0x000acdf4                send_proct_arprs_keep_alive
                0x000ace64                keep_alive_function_handler
                0x000ace9c                wlan_keep_alive_notif_handler
                0x000acf14                _wmi_del_proc_arp_rsp_keepalive
                0x000acf8c                _wmi_set_proc_arp_rsp_keepalive
                0x000ad034                _arp_ns_offload_set_mode
                0x000ad064                _arp_ns_offload_vdev_init
                0x000ad094                _arp_ns_offload_vdev_deinit
 *fill*         0x000ad0b5        0x3 00
 .text          0x000ad0b8      0xcbc protocol/src/offload/.output/AR6320/hw.3/lib/liboffload.a(wlan_beacon_tx_offload.o)
                0x000ad0b8                beacon_tx_offload_ctxt_init
                0x000ad100                beacon_tx_offload_alloc_bcn_buf
                0x000ad164                beacon_tx_offload_alloc_prob_resp_buf
                0x000ad1a8                update_prb_rsp_templ_by_bcn
                0x000ad208                _wmi_beacon_tx_offload_hdlr
                0x000ad3c8                wlan_beacon_tx_done_to_host
                0x000ad424                _wlan_beacon_tx_offload_beacon_done
                0x000ad4c8                _wlan_beacon_tx_offload_handle_beacon
                0x000ad538                _wlan_beacon_tx_module_vdev_deinit
                0x000ad5cc                wlan_tx_beacon_offload_scan_evt_handler
                0x000ad610                _wlan_beacon_tx_offload_enable
                0x000ad618                wlan_append_timie
                0x000ad63c                _wlan_beacon_tx_offload_form_beacon
                0x000ad7a0                _wlan_beacon_tx_offload_get_DTIMCnt
                0x000ad7b8                _wlan_beacon_tx_offload_update_DTIMCnt
                0x000ad7d8                wlan_prb_rsp_tx_done_to_host
                0x000ad834                _wlan_probrsp_tx_offload_done
                0x000ad878                _wlan_beacon_tx_offload_vdev_enable
                0x000ad888                wlan_vdev_generate_probe_rsp
                0x000ada7c                ssid_contains_p2p_wild
                0x000adaa4                ssid_is_wild
                0x000adab4                ssid_is_same
                0x000adad8                _wlan_probe_req_handler
                0x000adccc                _wlan_probe_response_tx_offload_enabled
                0x000adcd4                wlan_beacon_tx_offload_find_txdone_hanlder
                0x000adcf4                _wlan_beacon_tx_offload_unregister_txdone_notification
                0x000add48                _wlan_beacon_tx_offload_register_txdone_notification
 .text          0x000add74      0xc63 protocol/src/offload/.output/AR6320/hw.3/lib/liboffload.a(wlan_network_list_offload.o)
                0x000add74                nlo_send_wmi_event
                0x000addb4                _wlan_nlo_scan
                0x000ade78                nlo_ssid_match
                0x000adea0                nlo_auth_match
                0x000adecc                nlo_enc_match
                0x000adefc                nlo_get_wpa_info
                0x000ae03c                nlo_get_rsn_info
                0x000ae16c                nlo_find_sec_enable
                0x000ae174                nlo_get_noisefloor
                0x000ae17c                _nlo_probe_rsp_beacon_handler
                0x000ae3dc                _wlan_nlo_scan_evt_handler
                0x000ae5d4                _wlan_nlo_scan_cycle_start
                0x000ae654                _wlan_nlo_scan_cycle_stop
                0x000ae9b4                _wlan_nlo_in_progress
 *fill*         0x000ae9d7        0x1 00
 .text          0x000ae9d8      0x881 protocol/src/offload/.output/AR6320/hw.3/lib/liboffload.a(wlan_swbmiss_offload.o)
                0x000ae9d8                get_current_listen_period
                0x000aea20                _wlan_swbmiss_vdev_init
                0x000aeac0                _wlan_swbmiss_vdev_free
                0x000aeb24                _wlan_swbmiss_enable
                0x000aebcc                _wlan_swbmiss_disable
                0x000aec4c                _wlan_swbmiss_timer_restart
                0x000aecac                _wlan_swbmiss_timer_set
                0x000aed10                _wlan_swbmiss_bcn_evt_register
                0x000aed54                _wlan_swbmiss_bcn_evt_unregister
                0x000aeda8                _wlan_swbmiss_bcn_evt_update_evt_filt
                0x000aedc8                _wlan_swbmiss_param_set
                0x000aee90                _wlan_swbmiss_param_get
                0x000aeea8                _wlan_swbmiss_bcn_rssi_avg
                0x000aeec8                _wlan_swbmiss_calc_rssi_avg
                0x000aeeec                _wlan_swbmiss_update_rssi
                0x000aef48                _wlan_swbmiss_bmiss_tmr_fn
                0x000af088                _wlan_swbmiss_post_bmiss
                0x000af0b8                _wlan_swbmiss_deliver_evt
                0x000af0d8                _wlan_swbmiss_vdev_evt_handler
                0x000af150                _wlan_swbmiss_offload_handler
 *fill*         0x000af259        0x0 00
 *fill*         0x000af259        0x0 00
 *fill*         0x000af259        0x0 00
 protocol/src/offload_mgr/.output/AR6320/hw.3/lib/liboffload_mgr.a(.text)
 *fill*         0x000af259        0x3 00
 .text          0x000af25c      0x3fa protocol/src/offload_mgr/.output/AR6320/hw.3/lib/liboffload_mgr.a(beacon_filter.o)
                0x000af25c                _bcnfilter_can_deliver_beacon_tohost
                0x000af2e0                _bcnfilter_get_cksum
                0x000af360                _bcnfilter_filter_own_bcn
                0x000af424                _bcnfilter_vdev_evt_handler
                0x000af44c                _bcnfilter_add_bcn_filter
                0x000af4e4                _bcnfilter_rmv_bcn_filter
                0x000af558                _bcnfilter_get_stats
                0x000af5dc                reflect
                0x000af610                crc32
 *fill*         0x000af656        0x2 00
 .text          0x000af658      0x7fb protocol/src/offload_mgr/.output/AR6320/hw.3/lib/liboffload_mgr.a(csa_offload_main.o)
                0x000af658                _csa_channel_change_recv
                0x000af714                _csa_timer_handler
                0x000afbb0                _csa_handler
                0x000afc6c                _csa_vdev_notif_handler
                0x000afd24                _csa_dev_init
                0x000afda4                _csa_dev_cleanup
                0x000afe00                _wlan_csa_offload_enable
                0x000afe14                _wmi_csa_offload_cmd_hdlr
 *fill*         0x000afe53        0x1 00
 .text          0x000afe54      0x84f protocol/src/offload_mgr/.output/AR6320/hw.3/lib/liboffload_mgr.a(offload_mgr.o)
                0x000afe54                _offldmgr_register_offload
                0x000afebc                _offldmgr_deregister_offload
                0x000b0128                _offldmgr_non_data_handler
                0x000b0304                _offldmgr_can_deliver_event_to_host
                0x000b0344                _offldmgr_data_store
                0x000b03e8                _offldmgr_data_flush
                0x000b0428                _offldmgr_offload_enter
                0x000b0468                _offldmgr_offload_exit
                0x000b0504                _offldmgr_store_mgmt
                0x000b0560                _offldmgr_flush_mgmt
                0x000b05d4                _offldmgr_send_htt_event_to_host
                0x000b060c                _offldmgr_htt_evt_store
                0x000b0654                _offldmgr_htt_evt_flush
 *fill*         0x000b06a3        0x1 00
 .text          0x000b06a4      0x199 protocol/src/offload_mgr/.output/AR6320/hw.3/lib/liboffload_mgr.a(wlan_d0wow.o)
                0x000b06a4                _d0wow_send_wmi_event_to_host
                0x000b070c                _d0wow_can_deliver_mgmt_tohost
                0x000b0714                _d0wow_wmi_cmd_handler
 *fill*         0x000b083d        0x3 00
 .text          0x000b0840      0xd9e protocol/src/offload_mgr/.output/AR6320/hw.3/lib/liboffload_mgr.a(wlan_gtk_offload.o)
                0x000b0840                _gtk_offload_tx_completion_callback
                0x000b0848                _gtk_offload_deferred_m2_callback
                0x000b0908                _gtk_offload_compute_mic
                0x000b09bc                _gtk_offload_build_m2_frame
                0x000b0b4c                _gtk_offload_verify_mic
                0x000b0bcc                _gtk_offload_decrypt_key
                0x000b0ddc                _gtk_offload_build_key_cmd
                0x000b0edc                _gtk_offload_process_rekey
                0x000b102c                _gtk_offload_check_rekey
                0x000b1178                _gtk_offload_send_rekey_failure_event
                0x000b11b4                _gtk_offload_can_deliver_rxdata_tohost
                0x000b12a4                _gtk_offload_fill_satus_event
                0x000b130c                _gtk_offload_send_status
                0x000b134c                _gtk_offload_get_ctx_by_dev_id
                0x000b13b8                _gtk_offload_dispatch_wmi_cmd
 *fill*         0x000b15de        0x2 00
 .text          0x000b15e0     0x13eb protocol/src/offload_mgr/.output/AR6320/hw.3/lib/liboffload_mgr.a(wlan_wow.o)
                0x000b15e0                _wlan_wow_timestamp_update
                0x000b1660                _wow_send_htt_evt_to_host
                0x000b16b4                _wow_send_wmi_event_to_host
                0x000b17c0                _wow_can_deliver_mgmt_tohost
                0x000b18ec                _wow_can_deliver_rxdata_tohost
                0x000b1ad4                _wow_wakeup_host
                0x000b1b6c                _wow_check_duplicate_bitmap_filter_entry
                0x000b1be0                _wow_add_bitmap_pattern
                0x000b1c70                _wow_del_bitmap_pattern
                0x000b1cd4                _wow_does_packet_match_bitmap_pattern
                0x000b1d2c                _wow_check_eapol4way
                0x000b1d7c                _wow_check_eapol
                0x000b1e64                _wow_does_magic_pattern_match
                0x000b1f34                _wow_update_ra_cache
                0x000b20ac                _wow_does_ipv6_ra_match
                0x000b2148                _wow_event_vdev_notif_handler
                0x000b21a8                _wow_host_wake_timer
                0x000b21d0                _wow_setup_wakeup_event
                0x000b2388                wow_vdev_allow
                0x000b2458                wow_allowed
                0x000b2490                ani_allowed
                0x000b24c4                wow_setup_loglvl_for_suspend
                0x000b24e8                wow_restore_loglvl_from_suspend
                0x000b2504                _wow_wmi_cmd_handler
                0x000b2864                _wow_get_payload
                0x000b2900                wow_wmi_register_dispatchtbl
                0x000b2914                _wow_set_mgt
                0x000b2928                _wow_clear_mgt
                0x000b293c                _wow_hold_mgt
                0x000b2954                _wow_get_state
                0x000b2964                _wow_is_evt_enabled
                0x000b2984                _wow_set_block_mode
                0x000b299c                _wow_create_vdev_instance
                0x000b29b4                _wow_delete_vdev_instance
 *fill*         0x000b29cb        0x0 00
 *fill*         0x000b29cb        0x0 00
 *fill*         0x000b29cb        0x0 00
 *fill*         0x000b29cb        0x0 00
 *fill*         0x000b29cb        0x0 00
 *fill*         0x000b29cb        0x0 00
 protocol/src/chatter/.output/AR6320/hw.3/lib/libchatter.a(.text)
 *fill*         0x000b29cb        0x1 00
 .text          0x000b29cc      0x61f protocol/src/chatter/.output/AR6320/hw.3/lib/libchatter.a(wlan_chatter.o)
                                0x623 (size before relaxing)
                0x000b2b70                wlan_chatter_set_mode
                0x000b2f0c                wlan_chatter_wmi_dispatch_cmds
                0x000b2f68                wlan_chatter_create_vdev_instance
                0x000b2f80                wlan_chatter_delete_vdev_instance
                0x000b2f98                wlan_chatter_set_blocked_mode
 *fill*         0x000b2feb        0x1 00
 .text          0x000b2fec      0x709 protocol/src/chatter/.output/AR6320/hw.3/lib/libchatter.a(wlan_coalescing.o)
                0x000b3410                wlan_pkt_coalescing_filter_cnt
                0x000b3418                wlan_pkt_coalescing_flush_done
                0x000b3450                wlan_pkt_coalescing_apply_rules
                0x000b3548                wlan_pkt_coalescing_del_filter
                0x000b356c                wlan_pkt_coalescing_query_resp
                0x000b3598                wlan_pkt_coalescing_add_filter
 *fill*         0x000b36f5        0x0 00
 *fill*         0x000b36f5        0x0 00
 protocol/src/phyerr/.output/AR6320/hw.3/lib/libphyerr.a(.text)
 *fill*         0x000b36f5        0x3 00
 .text          0x000b36f8      0x4fb protocol/src/phyerr/.output/AR6320/hw.3/lib/libphyerr.a(wlan_dfs_phyerr_filter.o)
                0x000b3b28                _wlan_dfs_ap_update_radar_phyerr_status
                0x000b3b78                _wlan_dfs_check_radar_phyerr_status
                0x000b3bb4                _wlan_dfs_validate_and_send_radar_event
 *fill*         0x000b3bf3        0x1 00
 .text          0x000b3bf4      0x506 protocol/src/phyerr/.output/AR6320/hw.3/lib/libphyerr.a(wlan_phyerr.o)
                0x000b3bf4                _wlan_set_phyerr_state
                0x000b3cb0                _wlan_send_phyerr_to_host
                0x000b3e40                _wmi_send_phyerr_rx_event
 *fill*         0x000b40fa        0x0 00
 *fill*         0x000b40fa        0x0 00
 protocol/src/power/smps/.output/AR6320/hw.3/lib/libsmps.a(.text)
 *fill*         0x000b40fa        0x2 00
 .text          0x000b40fc      0xcfb protocol/src/power/smps/.output/AR6320/hw.3/lib/libsmps.a(wlan_smps.o)
                0x000b4118                wlan_smps_virtual_chan_is_smps_supported
                0x000b4134                wlan_smps_virtual_chan_set_host_forced_mode
                0x000b417c                wlan_smps_virtual_chan_set_fw_forced_mode
                0x000b41c8                wlan_smps_virtual_chan_start
                0x000b4230                wlan_smps_virtual_chan_stop
                0x000b4260                wlan_smps_chainmask_timeout
                0x000b4284                wlan_smps_virtual_chan_rssi_sampling_timeout
                0x000b431c                wlan_smps_sta_is_rssi_above_thresh
                0x000b4330                wlan_smps_sta_update_rssi_values
                0x000b4380                wlan_smps_sta_send_cts2self_frame
                0x000b4404                wlan_smps_virtual_chan_send_cts2self_frame
                0x000b4454                wlan_smps_sta_wal_peer_rx_event
                0x000b4480                wlan_smps_virtual_chan_action_frame_tx_completion
                0x000b458c                wlan_smps_sta_send_action_frame
                0x000b45cc                wlan_smps_virtual_chan_enable_stats
                0x000b4608                wlan_smps_sta_get_dtim_rx_chainmask
                0x000b4618                wlan_smps_sta_set_dtim_rx_chainmask
                0x000b4634                wlan_smps_virtual_chan_set_arb_dtim_chainmask
                0x000b46d0                wlan_smps_wal_vdev_event_handler
                0x000b4718                wlan_smps_virtual_chan_update_dtim_chmask
                0x000b4770                wlan_smps_offload_handler
                0x000b4838                wlan_smps_virtual_chan_register_beacon_rx
                0x000b4864                wlan_smps_resume
                0x000b4980                wlan_smps_pdev_update_dtim_chmask_on_sleep
                0x000b49f4                wlan_smps_pdev_update_dtim_chmask_on_awake
                0x000b4a58                wlan_smps_set_param
                0x000b4ab8                wlan_smps_sta_create_instance
                0x000b4b34                wlan_smps_sta_attach_virtual_chan_ctxt
                0x000b4b48                wlan_smps_sta_delete_instance
                0x000b4b8c                wlan_smps_virtual_chan_create_instance
                0x000b4c50                wlan_smps_virtual_chan_delete_instance
                0x000b4c9c                wlan_smps_wmi_sta_smps_force_mode_cmd
                0x000b4cc0                wlan_smps_wmi_sta_smps_param_cmd
                0x000b4cfc                wlan_smps_vdev_set_fw_forced_mode
                0x000b4d10                wlan_smps_chan_change_setup_smps_attributes
                0x000b4dc4                wlan_smps_disable_smps
                0x000b4dd4                wlan_smps_set_reduced_dtim_rx_chainmask
 *fill*         0x000b4df7        0x1 00
 .text          0x000b4df8      0x43b protocol/src/power/smps/.output/AR6320/hw.3/lib/libsmps.a(wlan_smps_sm.o)
                0x000b4e14                wlan_smps_rssi_threshold_update
                0x000b4e4c                wlan_smps_state_inactive_entry
                0x000b4e5c                wlan_smps_state_inactive_exit
                0x000b4e64                wlan_smps_state_inactive_event
                0x000b4ee0                wlan_smps_state_static_entry
                0x000b4ef0                wlan_smps_state_static_exit
                0x000b4ef8                wlan_smps_state_static_event
                0x000b4f50                wlan_smps_state_dynamic_entry
                0x000b4f70                wlan_smps_state_dynamic_exit
                0x000b4f88                wlan_smps_state_dynamic_event
                0x000b4ff0                wlan_smps_state_stalled_entry
                0x000b5000                wlan_smps_state_stalled_exit
                0x000b5008                wlan_smps_state_stalled_event
                0x000b5074                wlan_smps_state_inactive_wait_entry
                0x000b5084                wlan_smps_state_inactive_wait_exit
                0x000b508c                wlan_smps_state_inactive_wait_event
                0x000b50e4                wlan_smps_state_static_wait_entry
                0x000b50f4                wlan_smps_state_static_wait_exit
                0x000b50fc                wlan_smps_state_static_wait_event
                0x000b515c                wlan_smps_state_dynamic_wait_entry
                0x000b516c                wlan_smps_state_dynamic_wait_exit
                0x000b5174                wlan_smps_state_dynamic_wait_event
                0x000b51d4                wlan_smps_sm_init
                0x000b51e8                wlan_smps_sm_debug_print
                0x000b51f0                wlan_smps_sm_get_dbglog_data
                0x000b5208                wlan_smps_sm_shared_create
 *fill*         0x000b5233        0x0 00
 *fill*         0x000b5233        0x0 00
 mac_core/src/wal/whal/ini/.output/AR6320/hw.3/lib/libwhalini.a(.text)
 *fill*         0x000b5233        0x1 00
 .text          0x000b5234       0xc3 mac_core/src/wal/whal/ini/.output/AR6320/hw.3/lib/libwhalini.a(whalini.o)
                0x000b5234                whal_ini_setup_id
                0x000b5270                _whal_ini_fetch_data
 *fill*         0x000b52f7        0x0 00
 protocol/src/profile/.output/AR6320/hw.3/lib/libwlanprofile.a(.text)
 *fill*         0x000b52f7        0x1 00
 .text          0x000b52f8      0x249 protocol/src/profile/.output/AR6320/hw.3/lib/libwlanprofile.a(wlan_profile.o)
                0x000b52f8                _wlan_profile_report_event
                0x000b53fc                _wlan_profile_start_cmd
                0x000b545c                _wlan_profile_stop_cmd
                0x000b54bc                _wlan_profile_enable_profile_cmd
                0x000b54d0                _wlan_profile_set_profile_histogram_intvl_cmd
                0x000b54e4                wlan_profile_wmi_unified_disptach_cmds
 *fill*         0x000b5541        0x0 00
 protocol/src/key_mgmt/.output/AR6320/hw.3/lib/libkeymgmt.a(.text)
 *fill*         0x000b5541        0x3 00
 .text          0x000b5544      0x22f protocol/src/key_mgmt/.output/AR6320/hw.3/lib/libkeymgmt.a(wlan_key_mgmt.o)
                0x000b5544                _keymgmt_add_peer_entry
 *fill*         0x000b5773        0x0 00
 protocol/src/cfg/.output/AR6320/hw.3/lib/libcfg.a(.text)
 *fill*         0x000b5773        0x1 00
 .text          0x000b5774       0x13 protocol/src/cfg/.output/AR6320/hw.3/lib/libcfg.a(cfg.o)
                0x000b5774                _cfg_vdev_init
 *fill*         0x000b5787        0x0 00
 mac_core/src/hostif/wmisvc/.output/AR6320/hw.3/lib/libwmisvc.a(.text)
 *fill*         0x000b5787        0x1 00
 .text          0x000b5788      0x88d mac_core/src/hostif/wmisvc/.output/AR6320/hw.3/lib/libwmisvc.a(wmi_svc.o)
 *fill*         0x000b6015        0x0 00
 *(.ext_iram)
                0x000b6015                _alt_text_end = ABSOLUTE (.)
                0x000b6015                _e_alt_text = .

.lit4           0x0097b000     0x5000
                0x0097b000                _lit4_start = ABSOLUTE (.)
                0x0097b000                _lit4_end = ABSOLUTE (.)
                0x0097b000                _rom_literal_start = ABSOLUTE (.)
                0x00980000                . = (. + 0x5000)
 *fill*         0x0097b000     0x5000 00
                0x00980000                _rom_literal_end = ABSOLUTE (.)

.dport0.literal
                0x00980000        0x0
                0x00980000                _dport0_literal_start = ABSOLUTE (.)
 *(.dport0.literal)
 *(.dport.literal)
                0x00980000                _dport0_literal_end = ABSOLUTE (.)

.literals       0x00980000     0x4234
                0x00980000                _literals_start = ABSOLUTE (.)
 *(*.lit4)
 .ex_init_text.lit4
                0x00980000       0x9c mac_core/patch/AR6320/v3/.output/AR6320/hw.3/obj/app_start.o
                                 0xd8 (size before relaxing)
 .lit4          0x0098009c       0x10 protocol/src/init/.output/AR6320/hw.3/lib/libwlaninit.a(wlan_init.o)
                                 0x24 (size before relaxing)
 .ex_init_text.lit4
                0x009800ac      0x134 protocol/src/init/.output/AR6320/hw.3/lib/libwlaninit.a(wlan_init.o)
                                0x22c (size before relaxing)
 .lit4          0x009801e0       0xb4 protocol/src/init/.output/AR6320/hw.3/lib/libwlaninit.a(wlan_peer.o)
                                0x184 (size before relaxing)
 .ex_init_text.lit4
                0x00980294        0x8 protocol/src/init/.output/AR6320/hw.3/lib/libwlaninit.a(wlan_peer.o)
                                 0x10 (size before relaxing)
 .ex_init_text.lit4
                0x0098029c       0x14 protocol/src/init/.output/AR6320/hw.3/lib/libwlaninit.a(umac_init.o)
                                 0x70 (size before relaxing)
 .ex_init_text.lit4
                0x009802b0        0x8 protocol/src/init/.output/AR6320/hw.3/lib/libwlaninit.a(wlan_bss.o)
                                  0xc (size before relaxing)
 .lit4          0x009802b8        0x4 protocol/src/init/.output/AR6320/hw.3/lib/libwlaninit.a(wlan_bss.o)
                                  0x8 (size before relaxing)
 .ex_init_text.lit4
                0x009802bc       0x50 protocol/src/init/.output/AR6320/hw.3/lib/libwlaninit.a(wlan_buf.o)
                                 0xd0 (size before relaxing)
 .lit4          0x0098030c        0xc protocol/src/init/.output/AR6320/hw.3/lib/libwlaninit.a(wlan_buf.o)
                                 0x88 (size before relaxing)
 .ex_init_text.lit4
                0x00980318       0x5c protocol/src/init/.output/AR6320/hw.3/lib/libwlaninit.a(wlan_dev.o)
                                 0xc0 (size before relaxing)
 .lit4          0x00980374       0xb0 protocol/src/init/.output/AR6320/hw.3/lib/libwlaninit.a(wlan_dev.o)
                                0x19c (size before relaxing)
 .lit4          0x00980424       0xac mac_core/src/mac_core_init/.output/AR6320/hw.3/lib/libmaccoreinit.a(mac_core_init.o)
                                 0xf8 (size before relaxing)
 .ex_init_text.lit4
                0x009804d0        0x0 protocol/src/cfg/.output/AR6320/hw.3/lib/libcfg.a(cfg.o)
                                  0x4 (size before relaxing)
 .lit4          0x009804d0        0x0 protocol/src/cfg/.output/AR6320/hw.3/lib/libcfg.a(cfg.o)
                                  0x4 (size before relaxing)
 .lit4          0x009804d0      0x164 mac_core/src/wal/AR/coex/.output/AR6320/hw.3/lib/wal_coex.a(wal_coex.o)
                                0xb6c (size before relaxing)
 .ex_init_text.lit4
                0x00980634       0x50 mac_core/src/wal/AR/coex/.output/AR6320/hw.3/lib/wal_coex.a(wal_coex.o)
                                 0xc0 (size before relaxing)
 .lit4          0x00980684       0x7c mac_core/src/wal/AR/coex/.output/AR6320/hw.3/lib/wal_coex.a(wal_btcoex.o)
                                0x408 (size before relaxing)
 .ex_init_text.lit4
                0x00980700       0x2c mac_core/src/wal/AR/coex/.output/AR6320/hw.3/lib/wal_coex.a(wal_btcoex.o)
                                 0x60 (size before relaxing)
 .lit4          0x0098072c       0xb0 mac_core/src/wal/AR/coex/.output/AR6320/hw.3/lib/wal_coex.a(wal_mwscoex.o)
                                0x334 (size before relaxing)
 .ex_init_text.lit4
                0x009807dc       0x1c mac_core/src/wal/AR/coex/.output/AR6320/hw.3/lib/wal_coex.a(wal_mwscoex.o)
                                 0x58 (size before relaxing)
 .lit4          0x009807f8       0x10 mac_core/src/wal/AR/coex/.output/AR6320/hw.3/lib/wal_coex.a(wal_mwscoex_crc.o)
                                 0x38 (size before relaxing)
 .lit4          0x00980808       0x14 mac_core/src/wal/AR/coex/.output/AR6320/hw.3/lib/wal_coex.a(qmi_idl_lib.o)
                                 0x5c (size before relaxing)
 .lit4          0x0098081c        0x0 mac_core/src/wal/AR/coex/.output/AR6320/hw.3/lib/wal_coex.a(qmi_idl_accessor.o)
                                  0x4 (size before relaxing)
 .lit4          0x0098081c        0x4 mac_core/src/wal/AR/coex/.output/AR6320/hw.3/lib/wal_coex.a(coexistence_service_v02.o)
 .lit4          0x00980820        0xc mac_core/src/wal/whal/ini/.output/AR6320/hw.3/lib/libwhalini.a(whalini.o)
                                 0x20 (size before relaxing)
 .ex_init_text.lit4
                0x0098082c        0xc mac_core/src/wal/whal/ini/.output/AR6320/hw.3/lib/libwhalini.a(whalini.o)
                                 0x18 (size before relaxing)
 .ex_init_text.lit4
                0x00980838        0x0 mac_core/src/data_txrx/.output/AR6320/hw.3/lib/libdatatxrx.a(data_txrx.o)
                                  0x8 (size before relaxing)
 .lit4          0x00980838       0x24 mac_core/src/data_txrx/.output/AR6320/hw.3/lib/libdatatxrx.a(data_txrx.o)
                                 0xac (size before relaxing)
 .lit4          0x0098085c        0x8 mac_core/src/data_txrx/.output/AR6320/hw.3/lib/libdatatxrx.a(ieee80211_hdr.o)
                                  0xc (size before relaxing)
 .ex_init_text.lit4
                0x00980864        0xc mac_core/src/data_txrx/.output/AR6320/hw.3/lib/libdatatxrx.a(ieee80211_hdr.o)
                                 0x10 (size before relaxing)
 .lit4          0x00980870       0x78 mac_core/src/data_txrx/.output/AR6320/hw.3/lib/libdatatxrx.a(data_rx.o)
                                0x278 (size before relaxing)
 .ex_init_text.lit4
                0x009808e8       0x18 mac_core/src/data_txrx/.output/AR6320/hw.3/lib/libdatatxrx.a(data_rx.o)
                                 0x48 (size before relaxing)
 .lit4          0x00980900       0x54 mac_core/src/data_txrx/.output/AR6320/hw.3/lib/libdatatxrx.a(data_rx_peer.o)
                                 0xc8 (size before relaxing)
 .ex_init_text.lit4
                0x00980954       0x10 mac_core/src/data_txrx/.output/AR6320/hw.3/lib/libdatatxrx.a(data_rx_peer.o)
                                 0x1c (size before relaxing)
 .lit4          0x00980964       0x14 mac_core/src/data_txrx/.output/AR6320/hw.3/lib/libdatatxrx.a(data_rx_pn.o)
                                 0x28 (size before relaxing)
 .lit4          0x00980978       0x2c mac_core/src/data_txrx/.output/AR6320/hw.3/lib/libdatatxrx.a(data_rx_reorder.o)
                                0x1c0 (size before relaxing)
 .ex_init_text.lit4
                0x009809a4       0x28 mac_core/src/data_txrx/.output/AR6320/hw.3/lib/libdatatxrx.a(data_rx_reorder.o)
                                 0x4c (size before relaxing)
 .lit4          0x009809cc       0x10 protocol/src/mgmt_txrx/.output/AR6320/hw.3/lib/libmgmttxrx.a(ieee_mgmt_rx.o)
                                 0x38 (size before relaxing)
 .ex_init_text.lit4
                0x009809dc        0x4 protocol/src/mgmt_txrx/.output/AR6320/hw.3/lib/libmgmttxrx.a(ieee_mgmt_rx.o)
 .lit4          0x009809e0       0x24 protocol/src/mgmt_txrx/.output/AR6320/hw.3/lib/libmgmttxrx.a(wlan_mgmt_local_txrx.o)
                                 0xd8 (size before relaxing)
 .ex_init_text.lit4
                0x00980a04        0x4 protocol/src/mgmt_txrx/.output/AR6320/hw.3/lib/libmgmttxrx.a(wlan_mgmt_local_txrx.o)
                                  0x8 (size before relaxing)
 .lit4          0x00980a08       0x20 protocol/src/mgmt_txrx/.output/AR6320/hw.3/lib/libmgmttxrx.a(wlan_mgmt_txrx.o)
                                0x104 (size before relaxing)
 .ex_init_text.lit4
                0x00980a28        0x4 protocol/src/mgmt_txrx/.output/AR6320/hw.3/lib/libmgmttxrx.a(wlan_mgmt_txrx.o)
                                  0xc (size before relaxing)
 .ex_init_text.lit4
                0x00980a2c       0x24 protocol/src/vdev_mgr/.output/AR6320/hw.3/lib/libvdevmgr.a(wlan_vdev.o)
                                 0x48 (size before relaxing)
 .lit4          0x00980a50       0xfc protocol/src/vdev_mgr/.output/AR6320/hw.3/lib/libvdevmgr.a(wlan_vdev.o)
                                0x5b0 (size before relaxing)
 .lit4          0x00980b4c        0x8 protocol/src/vdev_mgr/.output/AR6320/hw.3/lib/libvdevmgr.a(wlan_vdev_keepalive.o)
                                0x104 (size before relaxing)
 .lit4          0x00980b54       0x28 protocol/src/vdev_mgr/.output/AR6320/hw.3/lib/libvdevmgr.a(wlan_vdev_misc.o)
                                0x160 (size before relaxing)
 .lit4          0x00980b7c       0x14 protocol/src/vdev_mgr/.output/AR6320/hw.3/lib/libvdevmgr.a(wlan_vdev_pause.o)
                                0x178 (size before relaxing)
 .lit4          0x00980b90       0x4c protocol/src/vdev_mgr/.output/AR6320/hw.3/lib/libvdevmgr.a(wlan_vdev_schedule.o)
                                0x27c (size before relaxing)
 .lit4          0x00980bdc        0x4 protocol/src/key_mgmt/.output/AR6320/hw.3/lib/libkeymgmt.a(wlan_key_mgmt.o)
                                 0x18 (size before relaxing)
 .lit4          0x00980be0       0x4c mac_core/src/ratectrl/.output/AR6320/hw.3/lib/libratectrl_11ac.a(ratectrl_11ac.o)
                                0x2c0 (size before relaxing)
 .lit4          0x00980c2c       0x18 mac_core/src/ratectrl/.output/AR6320/hw.3/lib/libratectrl_11ac.a(ratectrl_11ac_if.o)
                                 0xd0 (size before relaxing)
 .ex_init_text.lit4
                0x00980c44       0x10 mac_core/src/ratectrl/.output/AR6320/hw.3/lib/libratectrl_11ac.a(ratectrl_11ac_if.o)
                                 0x28 (size before relaxing)
 .ex_init_text.lit4
                0x00980c54        0x4 mac_core/src/ratectrl/.output/AR6320/hw.3/lib/libratectrl_11ac.a(ratectrl_peer_state.o)
                                  0x8 (size before relaxing)
 .lit4          0x00980c58        0x0 mac_core/src/ratectrl/.output/AR6320/hw.3/lib/libratectrl_11ac.a(ratectrl_peer_state.o)
                                  0x8 (size before relaxing)
 .lit4          0x00980c58       0xf4 protocol/src/rtt/.output/AR6320/hw.3/lib/librtt.a(wlan_rtt.o)
                                0x488 (size before relaxing)
 .ex_init_text.lit4
                0x00980d4c       0x30 protocol/src/rtt/.output/AR6320/hw.3/lib/librtt.a(wlan_rtt.o)
                                 0x58 (size before relaxing)
 .lit4          0x00980d7c       0x1c protocol/src/phyerr/.output/AR6320/hw.3/lib/libphyerr.a(wlan_dfs_phyerr_filter.o)
                                 0x78 (size before relaxing)
 .lit4          0x00980d98       0x28 protocol/src/phyerr/.output/AR6320/hw.3/lib/libphyerr.a(wlan_phyerr.o)
                                 0xa0 (size before relaxing)
 .ex_init_text.lit4
                0x00980dc0        0x4 protocol/src/phyerr/.output/AR6320/hw.3/lib/libphyerr.a(wlan_phyerr.o)
                                  0xc (size before relaxing)
 .lit4          0x00980dc4       0x20 protocol/src/rfkill/.output/AR6320/hw.3/lib/librfkill.a(wlan_rfkill.o)
                                 0x60 (size before relaxing)
 .ex_init_text.lit4
                0x00980de4       0x1c protocol/src/rfkill/.output/AR6320/hw.3/lib/librfkill.a(wlan_rfkill.o)
                                 0x28 (size before relaxing)
 .lit4          0x00980e00       0x34 protocol/src/wmi/.output/AR6320/hw.3/lib/libumacwmi.a(umac_wmi_events.o)
                                 0xbc (size before relaxing)
 .ex_init_text.lit4
                0x00980e34       0x2c protocol/src/wmi/.output/AR6320/hw.3/lib/libumacwmi.a(wlan_wmi.o)
                                 0x64 (size before relaxing)
 .lit4          0x00980e60       0x14 protocol/src/wmi/.output/AR6320/hw.3/lib/libumacwmi.a(wlan_wmi.o)
                                 0x7c (size before relaxing)
 .ex_init_text.lit4
                0x00980e74       0x24 protocol/src/wmi/.output/AR6320/hw.3/lib/libumacwmi.a(wlan_wmi_events.o)
                                 0x68 (size before relaxing)
 .lit4          0x00980e98       0x24 protocol/src/wmi/.output/AR6320/hw.3/lib/libumacwmi.a(wlan_wmi_events.o)
                                 0x7c (size before relaxing)
 .lit4          0x00980ebc       0x1c protocol/src/wmi/.output/AR6320/hw.3/lib/libumacwmi.a(wmi_gpiohook.o)
                                 0x2c (size before relaxing)
 .ex_init_text.lit4
                0x00980ed8        0x4 protocol/src/wmi/.output/AR6320/hw.3/lib/libumacwmi.a(wmi_gpiohook.o)
                                 0x10 (size before relaxing)
 .lit4          0x00980edc        0xc protocol/src/wmi/.output/AR6320/hw.3/lib/libumacwmi.a(wmi_tlv_helper.o)
                                 0x44 (size before relaxing)
 .ex_init_text.lit4
                0x00980ee8        0x0 protocol/src/wmi/.output/AR6320/hw.3/lib/libumacwmi.a(wmi_tlv_helper.o)
                                 0x14 (size before relaxing)
 .lit4          0x00980ee8        0x8 protocol/src/wmi/.output/AR6320/hw.3/lib/libumacwmi.a(umac_wmi.o)
                                 0x14 (size before relaxing)
 .lit4          0x00980ef0       0x34 protocol/src/offload_mgr/.output/AR6320/hw.3/lib/liboffload_mgr.a(beacon_filter.o)
                                 0x78 (size before relaxing)
 .ex_init_text.lit4
                0x00980f24        0xc protocol/src/offload_mgr/.output/AR6320/hw.3/lib/liboffload_mgr.a(beacon_filter.o)
                                 0x20 (size before relaxing)
 .lit4          0x00980f30       0x24 protocol/src/offload_mgr/.output/AR6320/hw.3/lib/liboffload_mgr.a(csa_offload_main.o)
                                 0xdc (size before relaxing)
 .ex_init_text.lit4
                0x00980f54        0xc protocol/src/offload_mgr/.output/AR6320/hw.3/lib/liboffload_mgr.a(csa_offload_main.o)
                                 0x28 (size before relaxing)
 .ex_init_text.lit4
                0x00980f60       0x20 protocol/src/offload_mgr/.output/AR6320/hw.3/lib/liboffload_mgr.a(offload_mgr.o)
                                 0x38 (size before relaxing)
 .lit4          0x00980f80       0x30 protocol/src/offload_mgr/.output/AR6320/hw.3/lib/liboffload_mgr.a(offload_mgr.o)
                                0x11c (size before relaxing)
 .lit4          0x00980fb0       0x18 protocol/src/offload_mgr/.output/AR6320/hw.3/lib/liboffload_mgr.a(wlan_d0wow.o)
                                 0x4c (size before relaxing)
 .ex_init_text.lit4
                0x00980fc8        0x4 protocol/src/offload_mgr/.output/AR6320/hw.3/lib/liboffload_mgr.a(wlan_d0wow.o)
                                  0xc (size before relaxing)
 .lit4          0x00980fcc       0x60 protocol/src/offload_mgr/.output/AR6320/hw.3/lib/liboffload_mgr.a(wlan_gtk_offload.o)
                                0x160 (size before relaxing)
 .ex_init_text.lit4
                0x0098102c        0x4 protocol/src/offload_mgr/.output/AR6320/hw.3/lib/liboffload_mgr.a(wlan_gtk_offload.o)
                                 0x2c (size before relaxing)
 .lit4          0x00981030       0xb4 protocol/src/offload_mgr/.output/AR6320/hw.3/lib/liboffload_mgr.a(wlan_wow.o)
                                0x2c4 (size before relaxing)
 .ex_init_text.lit4
                0x009810e4        0xc protocol/src/offload_mgr/.output/AR6320/hw.3/lib/liboffload_mgr.a(wlan_wow.o)
                                 0x44 (size before relaxing)
 .lit4          0x009810f0       0x30 protocol/src/mgmt/.output/AR6320/hw.3/lib/libmgmt.a(wlan_beacon.o)
                                0x20c (size before relaxing)
 .ex_init_text.lit4
                0x00981120       0x14 protocol/src/mgmt/.output/AR6320/hw.3/lib/libmgmt.a(wlan_beacon.o)
                                 0x38 (size before relaxing)
 .lit4          0x00981134       0x14 protocol/src/mgmt/.output/AR6320/hw.3/lib/libmgmt.a(wlan_early_rx_sm.o)
                                0x140 (size before relaxing)
 .ex_init_text.lit4
                0x00981148       0x14 protocol/src/mgmt/.output/AR6320/hw.3/lib/libmgmt.a(wlan_early_rx_sm.o)
                                 0x34 (size before relaxing)
 .ex_init_text.lit4
                0x0098115c        0x4 protocol/src/mgmt/.output/AR6320/hw.3/lib/libmgmt.a(wlan_ie_utils.o)
 .lit4          0x00981160        0x8 protocol/src/mgmt/.output/AR6320/hw.3/lib/libmgmt.a(wlan_wnm.o)
                                 0x1c (size before relaxing)
 .ex_init_text.lit4
                0x00981168        0x8 protocol/src/power/.output/AR6320/hw.3/lib/libpower.a(wlan_pm_arbiter.o)
                                 0x10 (size before relaxing)
 .lit4          0x00981170        0x4 protocol/src/power/.output/AR6320/hw.3/lib/libpower.a(wlan_pm_arbiter.o)
                                 0x1c (size before relaxing)
 .ex_init_text.lit4
                0x00981174       0x20 protocol/src/power/.output/AR6320/hw.3/lib/libpower.a(wlan_powersave.o)
                                 0x30 (size before relaxing)
 .lit4          0x00981194        0x0 protocol/src/power/.output/AR6320/hw.3/lib/libpower.a(wlan_powersave.o)
                                 0x14 (size before relaxing)
 .lit4          0x00981194       0x60 protocol/src/power/.output/AR6320/hw.3/lib/libpower.a(wlan_powersave_ap.o)
                                0x298 (size before relaxing)
 .ex_init_text.lit4
                0x009811f4        0x4 protocol/src/power/.output/AR6320/hw.3/lib/libpower.a(wlan_powersave_ap.o)
                                  0xc (size before relaxing)
 .lit4          0x009811f8       0x50 protocol/src/power/.output/AR6320/hw.3/lib/libpower.a(wlan_powersave_ibss.o)
                                0x204 (size before relaxing)
 .lit4          0x00981248       0x28 protocol/src/power/.output/AR6320/hw.3/lib/libpower.a(wlan_powersave_ibss_nw_sm.o)
                                0x1bc (size before relaxing)
 .lit4          0x00981270        0x8 protocol/src/power/.output/AR6320/hw.3/lib/libpower.a(wlan_powersave_ibss_peer_ps_sm.o)
                                 0x64 (size before relaxing)
 .lit4          0x00981278        0xc protocol/src/power/.output/AR6320/hw.3/lib/libpower.a(wlan_powersave_ibss_self_ps_sm.o)
                                0x100 (size before relaxing)
 .lit4          0x00981284       0x50 protocol/src/power/.output/AR6320/hw.3/lib/libpower.a(wlan_powersave_sta.o)
                                0x1d4 (size before relaxing)
 .ex_init_text.lit4
                0x009812d4        0x4 protocol/src/power/.output/AR6320/hw.3/lib/libpower.a(wlan_powersave_sta.o)
                                  0xc (size before relaxing)
 .lit4          0x009812d8       0x4c protocol/src/power/.output/AR6320/hw.3/lib/libpower.a(wlan_powersave_sta_sm.o)
                                0x284 (size before relaxing)
 .lit4          0x00981324        0x8 protocol/src/power/.output/AR6320/hw.3/lib/libpower.a(wlan_powersave_tdls.o)
                                 0x68 (size before relaxing)
 .lit4          0x0098132c        0x4 protocol/src/power/.output/AR6320/hw.3/lib/libpower.a(wlan_qpower.o)
                                 0x10 (size before relaxing)
 .lit4          0x00981330       0x44 protocol/src/power/smps/.output/AR6320/hw.3/lib/libsmps.a(wlan_smps.o)
                                0x184 (size before relaxing)
 .ex_init_text.lit4
                0x00981374       0x1c protocol/src/power/smps/.output/AR6320/hw.3/lib/libsmps.a(wlan_smps.o)
                                 0x40 (size before relaxing)
 .lit4          0x00981390       0x10 protocol/src/power/smps/.output/AR6320/hw.3/lib/libsmps.a(wlan_smps_sm.o)
                                 0x60 (size before relaxing)
 .ex_init_text.lit4
                0x009813a0        0x4 protocol/src/resmgr/.output/AR6320/hw.3/lib/libresmgr.a(channel_mgr.o)
                                 0x14 (size before relaxing)
 .lit4          0x009813a4        0x8 protocol/src/resmgr/.output/AR6320/hw.3/lib/libresmgr.a(channel_mgr.o)
                                 0xac (size before relaxing)
 .lit4          0x009813ac       0x14 protocol/src/resmgr/.output/AR6320/hw.3/lib/libresmgr.a(resmgr.o)
                                 0xd8 (size before relaxing)
 .ex_init_text.lit4
                0x009813c0        0xc protocol/src/resmgr/.output/AR6320/hw.3/lib/libresmgr.a(resmgr.o)
                                 0x28 (size before relaxing)
 .lit4          0x009813cc        0xc protocol/src/resmgr/.output/AR6320/hw.3/lib/libresmgr.a(resmgr_dyn_sch.o)
                                 0xc0 (size before relaxing)
 .ex_init_text.lit4
                0x009813d8        0x8 protocol/src/resmgr/.output/AR6320/hw.3/lib/libresmgr.a(resmgr_dyn_sch.o)
                                 0x18 (size before relaxing)
 .lit4          0x009813e0       0x44 protocol/src/resmgr/.output/AR6320/hw.3/lib/libresmgr.a(resmgr_ocs.o)
                                0x2a8 (size before relaxing)
 .ex_init_text.lit4
                0x00981424       0x1c protocol/src/resmgr/.output/AR6320/hw.3/lib/libresmgr.a(resmgr_ocs.o)
                                 0x48 (size before relaxing)
 .lit4          0x00981440       0x40 protocol/src/resmgr/.output/AR6320/hw.3/lib/libresmgr.a(virtual_channel.o)
                                0x12c (size before relaxing)
 .ex_init_text.lit4
                0x00981480        0x8 protocol/src/resmgr/.output/AR6320/hw.3/lib/libresmgr.a(virtual_channel.o)
                                 0x10 (size before relaxing)
 .lit4          0x00981488        0x8 protocol/src/resmgr/.output/AR6320/hw.3/lib/libresmgr.a(virtual_channel_arbiter.o)
                                 0x60 (size before relaxing)
 .ex_init_text.lit4
                0x00981490       0x44 mac_core/src/hostif/htc/.output/AR6320/hw.3/lib/libhtc.a(htc.o)
                                 0x74 (size before relaxing)
 .lit4          0x009814d4       0x2c mac_core/src/hostif/htc/.output/AR6320/hw.3/lib/libhtc.a(htc.o)
                                0x214 (size before relaxing)
 .lit4          0x00981500       0x30 mac_core/src/hostif/htt/.output/AR6320/hw.3/lib/libhtt.a(htt_tgt_hif_svc.o)
                                0x208 (size before relaxing)
 .ex_init_text.lit4
                0x00981530       0x34 mac_core/src/hostif/htt/.output/AR6320/hw.3/lib/libhtt.a(htt_tgt_hif_svc.o)
                                 0x90 (size before relaxing)
 .lit4          0x00981564       0x30 mac_core/src/hostif/htt/.output/AR6320/hw.3/lib/libhtt.a(htt_tgt_rx.o)
                                0x16c (size before relaxing)
 .ex_init_text.lit4
                0x00981594        0x4 mac_core/src/hostif/htt/.output/AR6320/hw.3/lib/libhtt.a(htt_tgt_rx.o)
                                 0x24 (size before relaxing)
 .lit4          0x00981598       0x1c mac_core/src/hostif/htt/.output/AR6320/hw.3/lib/libhtt.a(htt_tgt_rx_event.o)
                                0x1b4 (size before relaxing)
 .ex_init_text.lit4
                0x009815b4       0x10 mac_core/src/hostif/htt/.output/AR6320/hw.3/lib/libhtt.a(htt_tgt_rx_event.o)
                                 0x28 (size before relaxing)
 .lit4          0x009815c4       0x1c mac_core/src/hostif/htt/.output/AR6320/hw.3/lib/libhtt.a(htt_tgt_stats.o)
                                 0x94 (size before relaxing)
 .ex_init_text.lit4
                0x009815e0        0x0 mac_core/src/hostif/htt/.output/AR6320/hw.3/lib/libhtt.a(htt_tgt_stats.o)
                                  0x8 (size before relaxing)
 .lit4          0x009815e0       0x48 mac_core/src/hostif/htt/.output/AR6320/hw.3/lib/libhtt.a(htt_tgt_tx.o)
                                0x13c (size before relaxing)
 .ex_init_text.lit4
                0x00981628       0x1c mac_core/src/hostif/htt/.output/AR6320/hw.3/lib/libhtt.a(htt_tgt_tx.o)
                                 0x44 (size before relaxing)
 .lit4          0x00981644        0xc mac_core/src/utils/sm/.output/AR6320/hw.3/lib/libsm.a(sm.o)
                                 0x6c (size before relaxing)
 .ex_init_text.lit4
                0x00981650       0x1c mac_core/src/utils/sm/.output/AR6320/hw.3/lib/libsm.a(sm.o)
 .lit4          0x0098166c       0x6c protocol/src/coex/.output/AR6320/hw.3/lib/libcoex.a(coex.o)
                                0x560 (size before relaxing)
 .ex_init_text.lit4
                0x009816d8       0x2c protocol/src/coex/.output/AR6320/hw.3/lib/libcoex.a(coex.o)
                                 0x6c (size before relaxing)
 .lit4          0x00981704       0x20 mac_core/src/hostif/wmisvc/.output/AR6320/hw.3/lib/libwmisvc.a(wmi_svc.o)
                                0x124 (size before relaxing)
 .ex_init_text.lit4
                0x00981724       0x48 mac_core/src/hostif/wmisvc/.output/AR6320/hw.3/lib/libwmisvc.a(wmi_svc.o)
                                 0x80 (size before relaxing)
 .lit4          0x0098176c        0x8 protocol/src/scan/.output/AR6320/hw.3/lib/libscan.a(wlan_dcs.o)
                                 0x34 (size before relaxing)
 .ex_init_text.lit4
                0x00981774        0x8 protocol/src/scan/.output/AR6320/hw.3/lib/libscan.a(wlan_dcs.o)
                                 0x10 (size before relaxing)
 .lit4          0x0098177c       0x28 protocol/src/scan/.output/AR6320/hw.3/lib/libscan.a(wlan_scan_sch.o)
                                0x144 (size before relaxing)
 .ex_init_text.lit4
                0x009817a4       0x1c protocol/src/scan/.output/AR6320/hw.3/lib/libscan.a(wlan_scan_sch.o)
                                 0x40 (size before relaxing)
 .lit4          0x009817c0       0x2c protocol/src/scan/.output/AR6320/hw.3/lib/libscan.a(wlan_scan_sm.o)
                                0x218 (size before relaxing)
 .ex_init_text.lit4
                0x009817ec       0x20 protocol/src/scan/.output/AR6320/hw.3/lib/libscan.a(wlan_scan_sm.o)
                                 0x2c (size before relaxing)
 .lit4          0x0098180c       0x1c protocol/src/scan/.output/AR6320/hw.3/lib/libscan.a(wlan_scan.o)
                                 0xb4 (size before relaxing)
 .ex_init_text.lit4
                0x00981828       0x14 protocol/src/scan/.output/AR6320/hw.3/lib/libscan.a(wlan_scan.o)
                                 0x20 (size before relaxing)
 .ex_init_text.lit4
                0x0098183c       0x10 protocol/src/roam/.output/AR6320/hw.3/lib/libroam.a(wlan_roam.o)
                                 0x20 (size before relaxing)
 .lit4          0x0098184c        0x8 protocol/src/roam/.output/AR6320/hw.3/lib/libroam.a(wlan_roam.o)
                                 0x50 (size before relaxing)
 .lit4          0x00981854       0x5c protocol/src/roam/.output/AR6320/hw.3/lib/libroam.a(wlan_roam_internal.o)
                                0x214 (size before relaxing)
 .lit4          0x009818b0       0x1c protocol/src/roam/.output/AR6320/hw.3/lib/libroam.a(wlan_roam_wmi.o)
                                 0x2c (size before relaxing)
 .ex_init_text.lit4
                0x009818cc        0x4 protocol/src/roam/.output/AR6320/hw.3/lib/libroam.a(wlan_roam_wmi.o)
                                  0xc (size before relaxing)
 .lit4          0x009818d0       0x18 protocol/src/pps/.output/AR6320/hw.3/lib/libpps.a(wlan_pps.o)
                                 0xac (size before relaxing)
 .ex_init_text.lit4
                0x009818e8        0x8 protocol/src/pps/.output/AR6320/hw.3/lib/libpps.a(wlan_pps.o)
                                 0x2c (size before relaxing)
 .lit4          0x009818f0       0x9c protocol/src/stats/.output/AR6320/hw.3/lib/libstats.a(wlan_stats.o)
                                0x29c (size before relaxing)
 .ex_init_text.lit4
                0x0098198c       0x10 protocol/src/stats/.output/AR6320/hw.3/lib/libstats.a(wlan_stats.o)
                                 0x24 (size before relaxing)
 .lit4          0x0098199c       0x18 protocol/src/stats/.output/AR6320/hw.3/lib/libstats.a(wlan_estimate_linkspeed.o)
                                 0x98 (size before relaxing)
 .lit4          0x009819b4       0x20 mac_core/src/soc/pcielp/.output/AR6320/hw.3/lib/libpcielp.a(pcielp_core.o)
                                 0xa0 (size before relaxing)
 .ex_init_text.lit4
                0x009819d4       0x4c mac_core/src/soc/pcielp/.output/AR6320/hw.3/lib/libpcielp.a(pcielp_core.o)
                                 0x74 (size before relaxing)
 .lit4          0x00981a20       0x14 mac_core/src/soc/pcielp/.output/AR6320/hw.3/lib/libpcielp.a(pcielp_ltr.o)
                                 0x4c (size before relaxing)
 .ex_init_text.lit4
                0x00981a34       0x18 mac_core/src/soc/pcielp/.output/AR6320/hw.3/lib/libpcielp.a(pcielp_ltr.o)
                                 0x34 (size before relaxing)
 .lit4          0x00981a4c        0x8 mac_core/src/soc/pcielp/.output/AR6320/hw.3/lib/libpcielp.a(pcielp_dsleep.o)
                                 0x18 (size before relaxing)
 .ex_init_text.lit4
                0x00981a54       0x14 mac_core/src/soc/pcielp/.output/AR6320/hw.3/lib/libpcielp.a(pcielp_dsleep.o)
                                 0x1c (size before relaxing)
 .lit4          0x00981a68        0xc mac_core/src/soc/pcielp/.output/AR6320/hw.3/lib/libpcielp.a(pcielp_l1ss.o)
                                 0x3c (size before relaxing)
 .ex_init_text.lit4
                0x00981a74       0x14 mac_core/src/soc/pcielp/.output/AR6320/hw.3/lib/libpcielp.a(pcielp_l1ss.o)
                                 0x1c (size before relaxing)
 .ex_init_text.lit4
                0x00981a88        0x8 mac_core/src/pktlog/.output/AR6320/hw.3/lib/libpktlog.a(pktlog.o)
                                 0x1c (size before relaxing)
 .lit4          0x00981a90        0xc mac_core/src/pktlog/.output/AR6320/hw.3/lib/libpktlog.a(pktlog.o)
                                 0x3c (size before relaxing)
 .lit4          0x00981a9c        0x4 protocol/src/tbd/.output/AR6320/hw.3/lib/libtbd.a(tbd.o)
                                 0x18 (size before relaxing)
 .ex_init_text.lit4
                0x00981aa0        0x8 protocol/src/tbd/.output/AR6320/hw.3/lib/libtbd.a(tbd.o)
                                 0x10 (size before relaxing)
 .ex_init_text.lit4
                0x00981aa8       0x18 protocol/src/p2p/.output/AR6320/hw.3/lib/libp2p.a(p2p_main.o)
                                 0x28 (size before relaxing)
 .lit4          0x00981ac0       0x20 protocol/src/p2p/.output/AR6320/hw.3/lib/libp2p.a(p2p_main.o)
                                0x18c (size before relaxing)
 .lit4          0x00981ae0        0x4 protocol/src/p2p/.output/AR6320/hw.3/lib/libp2p.a(p2p_parse.o)
                                 0x14 (size before relaxing)
 .lit4          0x00981ae4        0x4 protocol/src/p2p/.output/AR6320/hw.3/lib/libp2p.a(p2p_schedules.o)
                                0x184 (size before relaxing)
 .lit4          0x00981ae8       0x18 protocol/src/p2p/.output/AR6320/hw.3/lib/libp2p.a(p2p_go_ps.o)
                                0x1c0 (size before relaxing)
 .lit4          0x00981b00       0x24 protocol/src/chatter/.output/AR6320/hw.3/lib/libchatter.a(wlan_chatter.o)
                                 0xb4 (size before relaxing)
 .ex_init_text.lit4
                0x00981b24       0x20 protocol/src/chatter/.output/AR6320/hw.3/lib/libchatter.a(wlan_chatter.o)
                                 0x48 (size before relaxing)
 .lit4          0x00981b44        0x8 protocol/src/chatter/.output/AR6320/hw.3/lib/libchatter.a(wlan_coalescing.o)
                                 0x70 (size before relaxing)
 .ex_init_text.lit4
                0x00981b4c        0xc protocol/src/chatter/.output/AR6320/hw.3/lib/libchatter.a(wlan_coalescing.o)
                                 0x28 (size before relaxing)
 .ex_init_text.lit4
                0x00981b58        0xc mac_core/src/retention/.output/AR6320/hw.3/lib/libretention.a(wlan_retention.o)
                                 0x10 (size before relaxing)
 .ex_init_text.lit4
                0x00981b64        0x8 mac_core/src/utils/buf_chunk/.output/AR6320/hw.3/lib/libbufchunk.a(buf_chunk_api.o)
                                 0x10 (size before relaxing)
 .lit4          0x00981b6c        0x0 mac_core/src/utils/buf_chunk/.output/AR6320/hw.3/lib/libbufchunk.a(buf_chunk_api.o)
                                 0x24 (size before relaxing)
 .lit4          0x00981b6c       0x4c protocol/src/txbf/.output/AR6320/hw.3/lib/libtxbf.a(wlan_txbf.o)
                                0x158 (size before relaxing)
 .ex_init_text.lit4
                0x00981bb8        0xc protocol/src/txbf/.output/AR6320/hw.3/lib/libtxbf.a(wlan_txbf.o)
                                 0x24 (size before relaxing)
 .ex_init_text.lit4
                0x00981bc4       0x14 protocol/src/tdls/.output/AR6320/hw.3/lib/libtdls.a(wlan_tdls.o)
                                 0x2c (size before relaxing)
 .lit4          0x00981bd8       0x4c protocol/src/tdls/.output/AR6320/hw.3/lib/libtdls.a(wlan_tdls.o)
                                0x1b0 (size before relaxing)
 .lit4          0x00981c24      0x230 protocol/src/tdls/.output/AR6320/hw.3/lib/libtdls.a(wlan_tdls_peer.o)
                                0x688 (size before relaxing)
 .lit4          0x00981e54       0x24 protocol/src/tdls/.output/AR6320/hw.3/lib/libtdls.a(wlan_tdls_uapsd.o)
                                 0xd4 (size before relaxing)
 .lit4          0x00981e78       0x1c protocol/src/tcpip/.output/AR6320/hw.3/lib/libtcpip.a(wlan_ipv6.o)
                                 0x28 (size before relaxing)
 .ex_init_text.lit4
                0x00981e94        0xc mac_core/src/misc/extend_alloc/.output/AR6320/hw.3/lib/libextendalloc.a(extend_allocate.o)
                                 0x28 (size before relaxing)
 .lit4          0x00981ea0       0x10 mac_core/src/misc/extend_alloc/.output/AR6320/hw.3/lib/libextendalloc.a(extend_allocate.o)
                                 0x3c (size before relaxing)
 .ex_init_text.lit4
                0x00981eb0       0x10 protocol/src/thermal_mgr/.output/AR6320/hw.3/lib/libthermalmgr.a(wlan_thermal_mgr.o)
                                 0x1c (size before relaxing)
 .lit4          0x00981ec0        0xc protocol/src/thermal_mgr/.output/AR6320/hw.3/lib/libthermalmgr.a(wlan_thermal_mgr.o)
                                 0x24 (size before relaxing)
 .lit4          0x00981ecc        0x0 mac_core/src/wal/AR/init/.output/AR6320/hw.3/lib/ar_wal_init.a(ar_wal_init.o)
                                  0x4 (size before relaxing)
 .lit4          0x00981ecc       0x18 mac_core/src/wal/whal/init/.output/AR6320/hw.3/lib/libwhal_init.a(whal_init.o)
 .lit4          0x00981ee4        0xc mac_core/src/hostif/wdi_ipa/.output/AR6320/hw.3/lib/libwdi_ipa.a(wdi_ipa.o)
                                 0x4c (size before relaxing)
 .lit4          0x00981ef0       0x14 mac_core/src/hostif/wdi_ipa/.output/AR6320/hw.3/lib/libwdi_ipa.a(wdi_ipa_rx.o)
                                0x120 (size before relaxing)
 .lit4          0x00981f04       0x18 mac_core/src/hostif/wdi_ipa/.output/AR6320/hw.3/lib/libwdi_ipa.a(wdi_ipa_tx.o)
                                0x11c (size before relaxing)
 .ex_init_text.lit4
                0x00981f1c        0x0 mac_core/src/hostif/hif/hif_dbguart/.output/AR6320/hw.3/lib/lib_hif_dbguart.a(hif_dbguart_install.o)
                                  0x8 (size before relaxing)
 .lit4          0x00981f1c       0x54 mac_core/src/hostif/hif/hif_dbguart/.output/AR6320/hw.3/lib/lib_hif_dbguart.a(hif_dbguart.o)
                                0x154 (size before relaxing)
 .ex_init_text.lit4
                0x00981f70        0x4 mac_core/src/hostif/hif/hif_dbguart/.output/AR6320/hw.3/lib/lib_hif_dbguart.a(hif_dbguart.o)
                                  0x8 (size before relaxing)
 .lit4          0x00981f74       0x3c protocol/src/lpi/.output/AR6320/hw.3/lib/liblpi.a(wlan_lpi.o)
                                0x1e8 (size before relaxing)
 .ex_init_text.lit4
                0x00981fb0       0x18 protocol/src/lpi/.output/AR6320/hw.3/lib/liblpi.a(wlan_lpi.o)
                                 0x3c (size before relaxing)
 .lit4          0x00981fc8       0x28 protocol/src/profile/.output/AR6320/hw.3/lib/libwlanprofile.a(wlan_profile.o)
                                 0x68 (size before relaxing)
 .ex_init_text.lit4
                0x00981ff0        0x4 protocol/src/profile/.output/AR6320/hw.3/lib/libwlanprofile.a(wlan_profile.o)
                                  0xc (size before relaxing)
 .lit4          0x00981ff4       0x54 protocol/src/offload/.output/AR6320/hw.3/lib/liboffload.a(wlan_arp_ns_offload.o)
                                0x164 (size before relaxing)
 .ex_init_text.lit4
                0x00982048        0xc protocol/src/offload/.output/AR6320/hw.3/lib/liboffload.a(wlan_arp_ns_offload.o)
                                 0x24 (size before relaxing)
 .lit4          0x00982054       0x3c protocol/src/offload/.output/AR6320/hw.3/lib/liboffload.a(wlan_beacon_tx_offload.o)
                                0x178 (size before relaxing)
 .ex_init_text.lit4
                0x00982090       0x1c protocol/src/offload/.output/AR6320/hw.3/lib/liboffload.a(wlan_beacon_tx_offload.o)
                                 0x40 (size before relaxing)
 .lit4          0x009820ac       0x8c protocol/src/offload/.output/AR6320/hw.3/lib/liboffload.a(wlan_network_list_offload.o)
                                0x198 (size before relaxing)
 .ex_init_text.lit4
                0x00982138        0xc protocol/src/offload/.output/AR6320/hw.3/lib/liboffload.a(wlan_network_list_offload.o)
                                 0x30 (size before relaxing)
 .lit4          0x00982144       0x20 protocol/src/offload/.output/AR6320/hw.3/lib/liboffload.a(wlan_swbmiss_offload.o)
                                 0xe8 (size before relaxing)
 .ex_init_text.lit4
                0x00982164        0xc protocol/src/offload/.output/AR6320/hw.3/lib/liboffload.a(wlan_swbmiss_offload.o)
                                 0x24 (size before relaxing)
 .lit4          0x00982170       0x20 protocol/src/framegen/.output/AR6320/hw.3/lib/libframegen.a(wlan_framegen.o)
                                0x218 (size before relaxing)
 .lit4          0x00982190       0x18 mac_core/src/misc/codeswap/.output/AR6320/hw.3/lib/libcodeswap.a(codeswap.o)
                                 0x74 (size before relaxing)
 .lit4          0x009821a8        0x4 mac_core/src/misc/codeswap/.output/AR6320/hw.3/lib/libcodeswap.a(codeswap_dmamgr.o)
                                 0x24 (size before relaxing)
 .lit4          0x009821ac       0x30 protocol/src/blockack/.output/AR6320/hw.3/lib/libblockack.a(wlan_blockack.o)
                                0x224 (size before relaxing)
 .ex_init_text.lit4
                0x009821dc       0x10 protocol/src/blockack/.output/AR6320/hw.3/lib/libblockack.a(wlan_blockack.o)
                                 0x28 (size before relaxing)
 .lit4          0x009821ec       0xd0 mac_core/src/wal/whal/reset/.output/AR6320/hw.3/lib/ar6000_cal.a(ar6320_cal.o)
                                0x8b0 (size before relaxing)
 .ex_init_text.lit4
                0x009822bc       0x30 mac_core/src/wal/whal/reset/.output/AR6320/hw.3/lib/ar6000_cal.a(ar6320_cal.o)
                                 0x54 (size before relaxing)
 .lit4          0x009822ec      0x32c mac_core/src/wal/whal/reset/.output/AR6320/hw.3/lib/ar6000_cal.a(ar6320_rxdc_cal.o)
                                0xb44 (size before relaxing)
 .lit4          0x00982618      0x1e4 mac_core/src/wal/whal/reset/.output/AR6320/hw.3/lib/ar6000_cal.a(ar6320_iq_cal.o)
                               0x1100 (size before relaxing)
 .lit4          0x009827fc       0xc0 mac_core/src/wal/whal/reset/.output/AR6320/hw.3/lib/ar6000_cal.a(ar6320_pef_cal.o)
                                0x30c (size before relaxing)
 .lit4          0x009828bc        0x8 protocol/src/unit_test/.output/AR6320/hw.3/lib/libunittest.a(unit_test.o)
                                  0xc (size before relaxing)
 .ex_init_text.lit4
                0x009828c4        0x8 protocol/src/unit_test/.output/AR6320/hw.3/lib/libunittest.a(unit_test.o)
                                  0xc (size before relaxing)
 .lit4          0x009828cc        0x4 protocol/src/frameparse/.output/AR6320/hw.3/lib/libframeparse.a(wlan_frameparse.o)
                                 0x28 (size before relaxing)
 .lit4          0x009828d0       0x1c protocol/src/nan/.output/AR6320/hw.3/lib/libnanwlan.a(wlan_nan.o)
                                 0xc0 (size before relaxing)
 .ex_init_text.lit4
                0x009828ec        0x8 protocol/src/nan/.output/AR6320/hw.3/lib/libnanwlan.a(wlan_nan.o)
                                 0x20 (size before relaxing)
 .lit4          0x009828f4       0x28 protocol/src/nan/.output/AR6320/hw.3/lib/libnanwlan.a(wlan_nan_sync.o)
                                0x1e0 (size before relaxing)
 .lit4          0x0098291c       0x64 protocol/src/nan/.output/AR6320/hw.3/lib/libnanwlan.a(wlan_nan_mac.o)
                                0x41c (size before relaxing)
 .lit4          0x00982980       0x24 protocol/src/nan/.output/AR6320/hw.3/lib/libnanwlan.a(wlan_nan_publish.o)
                                0x1ac (size before relaxing)
 .lit4          0x009829a4       0x14 protocol/src/nan/.output/AR6320/hw.3/lib/libnanwlan.a(wlan_nan_subscribe.o)
                                0x1dc (size before relaxing)
 .lit4          0x009829b8       0x80 protocol/src/nan/.output/AR6320/hw.3/lib/libnanwlan.a(wlan_nan_ctrl.o)
                                0x368 (size before relaxing)
 .lit4          0x00982a38       0x54 protocol/src/nan/.output/AR6320/hw.3/lib/libnanwlan.a(wlan_nan_de_if.o)
                                0x1ac (size before relaxing)
 .lit4          0x00982a8c       0x14 protocol/src/nan/.output/AR6320/hw.3/lib/libnanwlan.a(wlan_nan_rx.o)
                                 0x70 (size before relaxing)
 .lit4          0x00982aa0       0x2c protocol/src/nan/.output/AR6320/hw.3/lib/libnanwlan.a(wlan_nan_match.o)
                                0x15c (size before relaxing)
 .lit4          0x00982acc        0x0 protocol/src/nan/.output/AR6320/hw.3/lib/libnanwlan.a(wconn_util_list.o)
                                  0x8 (size before relaxing)
 .lit4          0x00982acc       0x30 protocol/src/nan/.output/AR6320/hw.3/lib/libnanwlan.a(wlan_nan_attr.o)
                                0x228 (size before relaxing)
 .lit4          0x00982afc       0x24 protocol/src/nan/.output/AR6320/hw.3/lib/libnanwlan.a(wlan_nan_bloom_filter.o)
                                 0x84 (size before relaxing)
 .lit4          0x00982b20        0x4 protocol/src/nan/.output/AR6320/hw.3/lib/libnanwlan.a(wlan_nan_crc.o)
 .lit4          0x00982b24        0x8 protocol/src/nan/.output/AR6320/hw.3/lib/libnanwlan.a(wlan_nan_log.o)
                                 0x28 (size before relaxing)
 .lit4          0x00982b2c        0x0 protocol/src/nan/.output/AR6320/hw.3/lib/libnanwlan.a(wlan_nan_time.o)
                                  0x4 (size before relaxing)
 .lit4          0x00982b2c        0x0 protocol/src/nan/.output/AR6320/hw.3/lib/libnanwlan.a(wlan_nan_tlv.o)
                                  0x8 (size before relaxing)
 .lit4          0x00982b2c        0x0 protocol/src/nan/.output/AR6320/hw.3/lib/libnanwlan.a(wlan_nan_util.o)
                                  0x4 (size before relaxing)
 .lit4          0x00982b2c        0x0 protocol/src/nan/.output/AR6320/hw.3/lib/libnanwlan.a(wlan_nan_beacon_ie.o)
                                 0x24 (size before relaxing)
 .lit4          0x00982b2c       0x20 protocol/src/nan/.output/AR6320/hw.3/lib/libnanwlan.a(wlan_nan_beacon_rx.o)
                                 0xc0 (size before relaxing)
 .lit4          0x00982b4c        0x0 protocol/src/nan/.output/AR6320/hw.3/lib/libnanwlan.a(wlan_nan_beacon_tx.o)
                                 0x3c (size before relaxing)
 .lit4          0x00982b4c       0x14 protocol/src/nan/.output/AR6320/hw.3/lib/libnanwlan.a(wlan_nan_cluster_sm.o)
                                 0xcc (size before relaxing)
 .lit4          0x00982b60       0x10 protocol/src/nan/.output/AR6320/hw.3/lib/libnanwlan.a(wlan_nan_scan.o)
                                 0x84 (size before relaxing)
 .lit4          0x00982b70       0x58 protocol/src/nan/.output/AR6320/hw.3/lib/libnanwlan.a(wlan_nan_sched.o)
                                0x310 (size before relaxing)
 .lit4          0x00982bc8       0x10 protocol/src/nan/.output/AR6320/hw.3/lib/libnanwlan.a(sha2.o)
                                 0x34 (size before relaxing)
 .lit4          0x00982bd8       0x20 protocol/src/extscan/.output/AR6320/hw.3/lib/libextscan.a(wlan_extscan_main.o)
                                 0xa4 (size before relaxing)
 .ex_init_text.lit4
                0x00982bf8       0x14 protocol/src/extscan/.output/AR6320/hw.3/lib/libextscan.a(wlan_extscan_main.o)
                                 0x18 (size before relaxing)
 .lit4          0x00982c0c       0x6c protocol/src/extscan/.output/AR6320/hw.3/lib/libextscan.a(wlan_extscan_wlan_change.o)
                                0x12c (size before relaxing)
 .lit4          0x00982c78        0x8 protocol/src/extscan/.output/AR6320/hw.3/lib/libextscan.a(wlan_extscan_wmi.o)
                                 0x64 (size before relaxing)
 .ex_init_text.lit4
                0x00982c80        0x4 protocol/src/extscan/.output/AR6320/hw.3/lib/libextscan.a(wlan_extscan_wmi.o)
                                  0xc (size before relaxing)
 .lit4          0x00982c84       0x68 protocol/src/extscan/.output/AR6320/hw.3/lib/libextscan.a(wlan_extscan_bssid.o)
                                0x1a4 (size before relaxing)
 .lit4          0x00982cec       0x5c protocol/src/extscan/.output/AR6320/hw.3/lib/libextscan.a(wlan_extscan_bucket.o)
                                0x130 (size before relaxing)
 .lit4          0x00982d48       0x28 protocol/src/extscan/.output/AR6320/hw.3/lib/libextscan.a(wlan_extscan_hotlist.o)
                                 0xa4 (size before relaxing)
 .ex_init_text.lit4
                0x00982d70        0x4 mac_core/src/wal/AR/rtt/.output/AR6320/hw.3/lib/ar_wal_rtt.a(wal_rtt.o)
                                 0x18 (size before relaxing)
 .lit4          0x00982d74       0x1c mac_core/src/wal/AR/rtt/.output/AR6320/hw.3/lib/ar_wal_rtt.a(wal_rtt.o)
                                0x16c (size before relaxing)
 .ex_init_text.lit4
                0x00982d90       0x34 mac_core/patch/AR6320/v3/.output/AR6320/hw.3/lib/lib_maccore_patches.a(install_patches.o)
                                 0x64 (size before relaxing)
 .ex_init_text.lit4
                0x00982dc4        0xc mac_core/patch/AR6320/v3/.output/AR6320/hw.3/lib/lib_maccore_patches.a(whal_install_patches.o)
                                 0x38 (size before relaxing)
 .ex_init_text.lit4
                0x00982dd0        0x4 mac_core/patch/AR6320/v3/.output/AR6320/hw.3/lib/lib_maccore_patches.a(wal_install_patches.o)
                                 0x5c (size before relaxing)
 .lit4          0x00982dd4       0x1c mac_core/patch/AR6320/v3/.output/AR6320/hw.3/lib/lib_maccore_patches.a(ar_wal_connection_pause_patch.o)
                                 0x78 (size before relaxing)
 .ex_init_text.lit4
                0x00982df0       0x18 mac_core/patch/AR6320/v3/.output/AR6320/hw.3/lib/lib_maccore_patches.a(ar_wal_connection_pause_patch.o)
                                 0x20 (size before relaxing)
 .lit4          0x00982e08       0x50 mac_core/patch/AR6320/v3/.output/AR6320/hw.3/lib/lib_maccore_patches.a(ar_wal_phy_dev_patch.o)
                                0x154 (size before relaxing)
 .ex_init_text.lit4
                0x00982e58       0x78 mac_core/patch/AR6320/v3/.output/AR6320/hw.3/lib/lib_maccore_patches.a(ar_wal_phy_dev_patch.o)
                                0x170 (size before relaxing)
 .lit4          0x00982ed0       0x74 mac_core/patch/AR6320/v3/.output/AR6320/hw.3/lib/lib_maccore_patches.a(cmnos_retention_patch.o)
                                0x1b4 (size before relaxing)
 .ex_init_text.lit4
                0x00982f44       0x34 mac_core/patch/AR6320/v3/.output/AR6320/hw.3/lib/lib_maccore_patches.a(cmnos_retention_patch.o)
                                 0x94 (size before relaxing)
 .lit4          0x00982f78       0x50 mac_core/patch/AR6320/v3/.output/AR6320/hw.3/lib/lib_maccore_patches.a(ar_wal_tx_de_patch.o)
                                0x190 (size before relaxing)
 .ex_init_text.lit4
                0x00982fc8       0x10 mac_core/patch/AR6320/v3/.output/AR6320/hw.3/lib/lib_maccore_patches.a(ar_wal_tx_de_patch.o)
                                 0x1c (size before relaxing)
 .lit4          0x00982fd8       0x10 mac_core/patch/AR6320/v3/.output/AR6320/hw.3/lib/lib_maccore_patches.a(ar_wal_local_frames_wifi_ip01_patch.o)
                                 0xc4 (size before relaxing)
 .ex_init_text.lit4
                0x00982fe8       0x14 mac_core/patch/AR6320/v3/.output/AR6320/hw.3/lib/lib_maccore_patches.a(ar_wal_local_frames_wifi_ip01_patch.o)
                                 0x20 (size before relaxing)
 .lit4          0x00982ffc       0x3c mac_core/patch/AR6320/v3/.output/AR6320/hw.3/lib/lib_maccore_patches.a(pool_mgr_patch.o)
                                 0x88 (size before relaxing)
 .lit4          0x00983038       0xf4 mac_core/patch/AR6320/v3/.output/AR6320/hw.3/lib/lib_maccore_patches.a(ar_wal_rx_patch.o)
                                0x6fc (size before relaxing)
 .ex_init_text.lit4
                0x0098312c       0x74 mac_core/patch/AR6320/v3/.output/AR6320/hw.3/lib/lib_maccore_patches.a(ar_wal_rx_patch.o)
                                 0x80 (size before relaxing)
 .lit4          0x009831a0       0x28 mac_core/patch/AR6320/v3/.output/AR6320/hw.3/lib/lib_maccore_patches.a(ar_wal_rx_offload_patch.o)
                                0x154 (size before relaxing)
 .ex_init_text.lit4
                0x009831c8       0x14 mac_core/patch/AR6320/v3/.output/AR6320/hw.3/lib/lib_maccore_patches.a(ar_wal_rx_offload_patch.o)
                                 0x1c (size before relaxing)
 .lit4          0x009831dc        0x0 mac_core/patch/AR6320/v3/.output/AR6320/hw.3/lib/lib_maccore_patches.a(ar_wal_rx_common_patch.o)
                                  0x4 (size before relaxing)
 .ex_init_text.lit4
                0x009831dc       0x18 mac_core/patch/AR6320/v3/.output/AR6320/hw.3/lib/lib_maccore_patches.a(ar_wal_rx_common_patch.o)
                                 0x1c (size before relaxing)
 .lit4          0x009831f4       0x30 mac_core/patch/AR6320/v3/.output/AR6320/hw.3/lib/lib_maccore_patches.a(ar_wal_vdev_patch.o)
                                0x168 (size before relaxing)
 .ex_init_text.lit4
                0x00983224       0x30 mac_core/patch/AR6320/v3/.output/AR6320/hw.3/lib/lib_maccore_patches.a(ar_wal_vdev_patch.o)
                                 0x40 (size before relaxing)
 .lit4          0x00983254       0x1c mac_core/patch/AR6320/v3/.output/AR6320/hw.3/lib/lib_maccore_patches.a(ar_tx_q_enque_patch.o)
                                 0xdc (size before relaxing)
 .ex_init_text.lit4
                0x00983270        0x8 mac_core/patch/AR6320/v3/.output/AR6320/hw.3/lib/lib_maccore_patches.a(ar_tx_q_enque_patch.o)
                                  0xc (size before relaxing)
 .lit4          0x00983278       0x2c mac_core/patch/AR6320/v3/.output/AR6320/hw.3/lib/lib_maccore_patches.a(tx_sched_patch.o)
                                0x124 (size before relaxing)
 .ex_init_text.lit4
                0x009832a4       0x3c mac_core/patch/AR6320/v3/.output/AR6320/hw.3/lib/lib_maccore_patches.a(tx_sched_patch.o)
                                 0x44 (size before relaxing)
 .lit4          0x009832e0       0x94 mac_core/patch/AR6320/v3/.output/AR6320/hw.3/lib/lib_maccore_patches.a(ar_wal_tx_send_patch.o)
                                0x74c (size before relaxing)
 .ex_init_text.lit4
                0x00983374       0x7c mac_core/patch/AR6320/v3/.output/AR6320/hw.3/lib/lib_maccore_patches.a(ar_wal_tx_send_patch.o)
                                 0xdc (size before relaxing)
 .lit4          0x009833f0        0x0 mac_core/patch/AR6320/v3/.output/AR6320/hw.3/lib/lib_maccore_patches.a(ar_wal_chain_mgmt_patch.o)
                                 0x74 (size before relaxing)
 .ex_init_text.lit4
                0x009833f0       0x14 mac_core/patch/AR6320/v3/.output/AR6320/hw.3/lib/lib_maccore_patches.a(ar_wal_chain_mgmt_patch.o)
                                 0x18 (size before relaxing)
 .lit4          0x00983404       0x5c mac_core/patch/AR6320/v3/.output/AR6320/hw.3/lib/lib_maccore_patches.a(ar_wal_peer_patch.o)
                                0x340 (size before relaxing)
 .ex_init_text.lit4
                0x00983460       0x44 mac_core/patch/AR6320/v3/.output/AR6320/hw.3/lib/lib_maccore_patches.a(ar_wal_peer_patch.o)
                                 0x58 (size before relaxing)
 .lit4          0x009834a4       0x70 mac_core/patch/AR6320/v3/.output/AR6320/hw.3/lib/lib_maccore_patches.a(ar600P_txbf_patch.o)
                                0x274 (size before relaxing)
 .ex_init_text.lit4
                0x00983514       0x2c mac_core/patch/AR6320/v3/.output/AR6320/hw.3/lib/lib_maccore_patches.a(ar600P_txbf_patch.o)
                                 0x34 (size before relaxing)
 .lit4          0x00983540       0x10 mac_core/patch/AR6320/v3/.output/AR6320/hw.3/lib/lib_maccore_patches.a(wal_pps_patch.o)
                                 0x34 (size before relaxing)
 .lit4          0x00983550       0xb8 mac_core/patch/AR6320/v3/.output/AR6320/hw.3/lib/lib_maccore_patches.a(ar_xmit_wifi_ip01_patch.o)
                                0x314 (size before relaxing)
 .ex_init_text.lit4
                0x00983608       0x24 mac_core/patch/AR6320/v3/.output/AR6320/hw.3/lib/lib_maccore_patches.a(ar_xmit_wifi_ip01_patch.o)
                                 0x30 (size before relaxing)
 .lit4          0x0098362c       0x18 mac_core/patch/AR6320/v3/.output/AR6320/hw.3/lib/lib_maccore_patches.a(ar_wal_channel_change_patch.o)
                                 0xfc (size before relaxing)
 .ex_init_text.lit4
                0x00983644       0x18 mac_core/patch/AR6320/v3/.output/AR6320/hw.3/lib/lib_maccore_patches.a(ar_wal_channel_change_patch.o)
                                 0x1c (size before relaxing)
 .lit4          0x0098365c       0x24 mac_core/patch/AR6320/v3/.output/AR6320/hw.3/lib/lib_maccore_patches.a(ar_wal_rc_patch.o)
                                 0xa8 (size before relaxing)
 .ex_init_text.lit4
                0x00983680       0x28 mac_core/patch/AR6320/v3/.output/AR6320/hw.3/lib/lib_maccore_patches.a(ar_wal_rc_patch.o)
                                 0x2c (size before relaxing)
 .ex_init_text.lit4
                0x009836a8        0x4 mac_core/patch/AR6320/v3/.output/AR6320/hw.3/lib/lib_maccore_patches.a(wal_rtt_patch.o)
                                  0xc (size before relaxing)
 .ex_init_text.lit4
                0x009836ac        0x8 mac_core/patch/AR6320/v3/.output/AR6320/hw.3/lib/lib_maccore_patches.a(whal_rtt_patch.o)
                                  0xc (size before relaxing)
 .lit4          0x009836b4       0x34 mac_core/patch/AR6320/v3/.output/AR6320/hw.3/lib/lib_maccore_patches.a(dbglog_patch.o)
                                0x160 (size before relaxing)
 .ex_init_text.lit4
                0x009836e8       0x18 mac_core/patch/AR6320/v3/.output/AR6320/hw.3/lib/lib_maccore_patches.a(dbglog_patch.o)
                                 0x1c (size before relaxing)
 .lit4          0x00983700       0x18 mac_core/patch/AR6320/v3/.output/AR6320/hw.3/lib/lib_maccore_patches.a(ar600p_beacon_patch.o)
                                 0x2c (size before relaxing)
 .ex_init_text.lit4
                0x00983718        0x4 mac_core/patch/AR6320/v3/.output/AR6320/hw.3/lib/lib_maccore_patches.a(ar600p_beacon_patch.o)
                                  0xc (size before relaxing)
 .lit4          0x0098371c       0x14 mac_core/patch/AR6320/v3/.output/AR6320/hw.3/lib/lib_maccore_patches.a(ar6000_power_patch.o)
                                 0xc0 (size before relaxing)
 .ex_init_text.lit4
                0x00983730       0x28 mac_core/patch/AR6320/v3/.output/AR6320/hw.3/lib/lib_maccore_patches.a(ar6000_power_patch.o)
                                 0x40 (size before relaxing)
 .lit4          0x00983758       0x2c mac_core/patch/AR6320/v3/.output/AR6320/hw.3/lib/lib_maccore_patches.a(ar6000_interrupt_patch.o)
                                 0x8c (size before relaxing)
 .lit4          0x00983784       0x50 mac_core/patch/AR6320/v3/.output/AR6320/hw.3/lib/lib_maccore_patches.a(cmnos_intrinf_patch.o)
                                0x12c (size before relaxing)
 .ex_init_text.lit4
                0x009837d4       0x10 mac_core/patch/AR6320/v3/.output/AR6320/hw.3/lib/lib_maccore_patches.a(cmnos_intrinf_patch.o)
                                 0x24 (size before relaxing)
 .lit4          0x009837e4       0x8c mac_core/patch/AR6320/v3/.output/AR6320/hw.3/lib/lib_maccore_patches.a(patch_pcie.o)
                                0x170 (size before relaxing)
 .lit4          0x00983870       0x94 mac_core/patch/AR6320/v3/.output/AR6320/hw.3/lib/lib_maccore_patches.a(patch_usb.o)
                                0x17c (size before relaxing)
 .lit4          0x00983904        0x4 mac_core/patch/AR6320/v3/.output/AR6320/hw.3/lib/lib_maccore_patches.a(wal_beacon_patch.o)
                                  0xc (size before relaxing)
 .ex_init_text.lit4
                0x00983908        0xc mac_core/patch/AR6320/v3/.output/AR6320/hw.3/lib/lib_maccore_patches.a(wal_beacon_patch.o)
                                 0x14 (size before relaxing)
 .lit4          0x00983914        0x4 mac_core/patch/AR6320/v3/.output/AR6320/hw.3/lib/lib_maccore_patches.a(wal_swba_patch.o)
                                 0x34 (size before relaxing)
 .ex_init_text.lit4
                0x00983918        0x4 mac_core/patch/AR6320/v3/.output/AR6320/hw.3/lib/lib_maccore_patches.a(wal_swba_patch.o)
                                  0x8 (size before relaxing)
 .lit4          0x0098391c       0x2c mac_core/patch/AR6320/v3/.output/AR6320/hw.3/lib/lib_maccore_patches.a(ar600P_retention_patch.o)
                                 0xd0 (size before relaxing)
 .ex_init_text.lit4
                0x00983948       0x28 mac_core/patch/AR6320/v3/.output/AR6320/hw.3/lib/lib_maccore_patches.a(ar600P_retention_patch.o)
                                 0x34 (size before relaxing)
 .lit4          0x00983970       0x14 mac_core/patch/AR6320/v3/.output/AR6320/hw.3/lib/lib_maccore_patches.a(patch_hif_ce.o)
                                 0x54 (size before relaxing)
 .lit4          0x00983984       0x38 mac_core/patch/AR6320/v3/.output/AR6320/hw.3/lib/lib_maccore_patches.a(patch_whal_coex.o)
                                 0xd0 (size before relaxing)
 .lit4          0x009839bc       0x1c mac_core/patch/AR6320/v3/.output/AR6320/hw.3/lib/lib_maccore_patches.a(patch_whal_mws.o)
                                 0x5c (size before relaxing)
 .lit4          0x009839d8       0x30 mac_core/patch/AR6320/v3/.output/AR6320/hw.3/lib/lib_maccore_patches.a(patch_whal_mci.o)
                                 0x84 (size before relaxing)
 .ex_init_text.lit4
                0x00983a08       0x10 mac_core/patch/AR6320/v3/.output/AR6320/hw.3/lib/lib_maccore_patches.a(ar_wal_tx_dm_patch.o)
                                 0x1c (size before relaxing)
 .lit4          0x00983a18        0x0 mac_core/patch/AR6320/v3/.output/AR6320/hw.3/lib/lib_maccore_patches.a(ar_wal_tx_dm_patch.o)
                                 0x24 (size before relaxing)
 .lit4          0x00983a18       0x28 mac_core/patch/AR6320/v3/.output/AR6320/hw.3/lib/lib_maccore_patches.a(patch_copy_engine.o)
                                 0xd0 (size before relaxing)
 .ex_init_text.lit4
                0x00983a40       0x24 mac_core/patch/AR6320/v3/.output/AR6320/hw.3/lib/lib_maccore_patches.a(patch_copy_engine.o)
                                 0x38 (size before relaxing)
 .lit4          0x00983a64        0x4 mac_core/patch/AR6320/v3/.output/AR6320/hw.3/lib/lib_maccore_patches.a(wal_concurrency_patch.o)
                                 0x1c (size before relaxing)
 .ex_init_text.lit4
                0x00983a68        0xc mac_core/patch/AR6320/v3/.output/AR6320/hw.3/lib/lib_maccore_patches.a(wal_concurrency_patch.o)
                                 0x14 (size before relaxing)
 .lit4          0x00983a74       0x1c mac_core/patch/AR6320/v3/.output/AR6320/hw.3/lib/lib_maccore_patches.a(ar_wal_tdls_patch.o)
                                 0x98 (size before relaxing)
 .ex_init_text.lit4
                0x00983a90       0x10 mac_core/patch/AR6320/v3/.output/AR6320/hw.3/lib/lib_maccore_patches.a(ar_wal_tdls_patch.o)
                                 0x1c (size before relaxing)
 .lit4          0x00983aa0       0x1c mac_core/patch/AR6320/v3/.output/AR6320/hw.3/lib/lib_maccore_patches.a(cmnos_timer_patch.o)
                                 0x30 (size before relaxing)
 .ex_init_text.lit4
                0x00983abc        0x4 mac_core/patch/AR6320/v3/.output/AR6320/hw.3/lib/lib_maccore_patches.a(cmnos_timer_patch.o)
                                  0x8 (size before relaxing)
 .ex_init_text.lit4
                0x00983ac0        0xc mac_core/patch/AR6320/v3/.output/AR6320/hw.3/lib/lib_maccore_patches.a(ar_wal_tx_hcm_patch.o)
                                 0x10 (size before relaxing)
 .lit4          0x00983acc        0x4 mac_core/patch/AR6320/v3/.output/AR6320/hw.3/lib/lib_maccore_patches.a(ar_wal_tx_hcm_patch.o)
 .lit4          0x00983ad0        0x8 mac_core/patch/AR6320/v3/.output/AR6320/hw.3/lib/lib_maccore_patches.a(ar_wal_tdls_conn_table_patch.o)
                                 0x88 (size before relaxing)
 .ex_init_text.lit4
                0x00983ad8       0x20 mac_core/patch/AR6320/v3/.output/AR6320/hw.3/lib/lib_maccore_patches.a(ar_wal_tdls_conn_table_patch.o)
                                 0x24 (size before relaxing)
 .lit4          0x00983af8        0xc mac_core/patch/AR6320/v3/.output/AR6320/hw.3/lib/lib_maccore_patches.a(ar600P_recv_patch.o)
                                 0x54 (size before relaxing)
 .ex_init_text.lit4
                0x00983b04        0x8 mac_core/patch/AR6320/v3/.output/AR6320/hw.3/lib/lib_maccore_patches.a(ar600P_recv_patch.o)
                                 0x14 (size before relaxing)
 .lit4          0x00983b0c        0x4 mac_core/patch/AR6320/v3/.output/AR6320/hw.3/lib/lib_maccore_patches.a(patch_gpio.o)
                                 0x10 (size before relaxing)
 .ex_init_text.lit4
                0x00983b10        0x8 mac_core/patch/AR6320/v3/.output/AR6320/hw.3/lib/lib_maccore_patches.a(os_install_wlan_extra_memory_patches.o)
                                 0x1c (size before relaxing)
 .lit4          0x00983b18       0x14 mac_core/patch/AR6320/v3/.output/AR6320/hw.3/lib/lib_maccore_patches.a(patch_athos_main.o)
                                 0x58 (size before relaxing)
 .lit4          0x00983b2c       0x1c mac_core/patch/AR6320/v3/.output/AR6320/hw.3/lib/lib_maccore_patches.a(cmnos_misc_patch.o)
                                 0x64 (size before relaxing)
 .lit4          0x00983b48       0x18 mac_core/patch/AR6320/v3/.output/AR6320/hw.3/lib/lib_maccore_patches.a(sha1_patch.o)
                                 0x24 (size before relaxing)
 .ex_init_text.lit4
                0x00983b60        0x8 mac_core/patch/AR6320/v3/.output/AR6320/hw.3/lib/lib_maccore_patches.a(sha1_patch.o)
                                  0xc (size before relaxing)
 .lit4          0x00983b68        0x8 mac_core/patch/AR6320/v3/.output/AR6320/hw.3/lib/lib_maccore_patches.a(patch_hif_sdio.o)
                                 0x14 (size before relaxing)
 .lit4          0x00983b70        0x8 mac_core/patch/AR6320/v3/.output/AR6320/hw.3/lib/lib_maccore_patches.a(ar_wal_txbf_patch.o)
                                 0x2c (size before relaxing)
 .ex_init_text.lit4
                0x00983b78        0xc mac_core/patch/AR6320/v3/.output/AR6320/hw.3/lib/lib_maccore_patches.a(ar_wal_txbf_patch.o)
                                 0x2c (size before relaxing)
 .lit4          0x00983b84        0xc mac_core/patch/AR6320/v3/.output/AR6320/hw.3/lib/lib_maccore_patches.a(wmi_dbgloghook_patch.o)
                                 0x20 (size before relaxing)
 .lit4          0x00983b90       0x28 mac_core/patch/AR6320/v3/.output/AR6320/hw.3/lib/lib_maccore_patches.a(cmnos_allocram_patch.o)
                                 0x4c (size before relaxing)
 .ex_init_text.lit4
                0x00983bb8        0xc mac_core/patch/AR6320/v3/.output/AR6320/hw.3/lib/lib_maccore_patches.a(cmnos_allocram_patch.o)
                                 0x10 (size before relaxing)
 .lit4          0x00983bc4       0x3c protocol/src/extwow/.output/AR6320/hw.3/lib/libextwow.a(wlan_extwow.o)
                                0x238 (size before relaxing)
 .ex_init_text.lit4
                0x00983c00        0x4 protocol/src/extwow/.output/AR6320/hw.3/lib/libextwow.a(wlan_extwow.o)
                                  0xc (size before relaxing)
 .ex_init_text.lit4
                0x00983c04        0x8 halphy/patch/AR6320/v3/.output/AR6320/hw.3/lib/lib_halphy_patches.a(halphy_install_patches.o)
                                 0x24 (size before relaxing)
 .lit4          0x00983c0c       0x44 halphy/patch/AR6320/v3/.output/AR6320/hw.3/lib/lib_halphy_patches.a(ar6000_nf_cal_patch.o)
                                0x180 (size before relaxing)
 .lit4          0x00983c50       0x54 halphy/patch/AR6320/v3/.output/AR6320/hw.3/lib/lib_halphy_patches.a(ar6000_ani_patch.o)
                                0x140 (size before relaxing)
 .ex_init_text.lit4
                0x00983ca4       0x10 halphy/patch/AR6320/v3/.output/AR6320/hw.3/lib/lib_halphy_patches.a(ar6000_ani_patch.o)
                                 0x1c (size before relaxing)
 .lit4          0x00983cb4       0x98 halphy/patch/AR6320/v3/.output/AR6320/hw.3/lib/lib_halphy_patches.a(ar6320_ini_patch.o)
                                0x178 (size before relaxing)
 .ex_init_text.lit4
                0x00983d4c       0x18 halphy/patch/AR6320/v3/.output/AR6320/hw.3/lib/lib_halphy_patches.a(ar6320_ini_patch.o)
                                 0x24 (size before relaxing)
 .lit4          0x00983d64       0x88 halphy/patch/AR6320/v3/.output/AR6320/hw.3/lib/lib_halphy_patches.a(ar6320_tpc_config_patch.o)
                                0x370 (size before relaxing)
 .ex_init_text.lit4
                0x00983dec       0x20 halphy/patch/AR6320/v3/.output/AR6320/hw.3/lib/lib_halphy_patches.a(ar6320_tpc_config_patch.o)
                                 0x28 (size before relaxing)
 .lit4          0x00983e0c       0xc4 halphy/patch/AR6320/v3/.output/AR6320/hw.3/lib/lib_halphy_patches.a(ar6320_eeprom_patch.o)
                                0x388 (size before relaxing)
 .ex_init_text.lit4
                0x00983ed0       0x50 halphy/patch/AR6320/v3/.output/AR6320/hw.3/lib/lib_halphy_patches.a(ar6320_eeprom_patch.o)
                                 0x5c (size before relaxing)
 .lit4          0x00983f20       0x40 halphy/patch/AR6320/v3/.output/AR6320/hw.3/lib/lib_halphy_patches.a(ar600P_reset_patch.o)
                                0x254 (size before relaxing)
 .ex_init_text.lit4
                0x00983f60       0x2c halphy/patch/AR6320/v3/.output/AR6320/hw.3/lib/lib_halphy_patches.a(ar600P_reset_patch.o)
                                 0x40 (size before relaxing)
 .lit4          0x00983f8c       0xf4 halphy/patch/AR6320/v3/.output/AR6320/hw.3/lib/lib_halphy_patches.a(ar6000_paprd_patch.o)
                                0x538 (size before relaxing)
 .ex_init_text.lit4
                0x00984080       0x78 halphy/patch/AR6320/v3/.output/AR6320/hw.3/lib/lib_halphy_patches.a(ar6000_paprd_patch.o)
                                 0x94 (size before relaxing)
 .lit4          0x009840f8        0x4 halphy/patch/AR6320/v3/.output/AR6320/hw.3/lib/lib_halphy_patches.a(ar6000_phy_patch.o)
                                 0x1c (size before relaxing)
 .ex_init_text.lit4
                0x009840fc        0x4 halphy/patch/AR6320/v3/.output/AR6320/hw.3/lib/lib_halphy_patches.a(ar6000_phy_patch.o)
                                  0xc (size before relaxing)
 .lit4          0x00984100        0x0 /cad/tensilica/chips/peregrine/RE-2013.3-linux/peregrine/xtensa-elf/lib/xcc//libgcc.a(_muldf3.o)
                                 0x10 (size before relaxing)
 .lit4          0x00984100        0x0 /cad/tensilica/chips/peregrine/RE-2013.3-linux/peregrine/xtensa-elf/lib/xcc//libgcc.a(_fixunsdfsi.o)
                                  0x4 (size before relaxing)
 .lit4          0x00984100        0x0 /cad/tensilica/chips/peregrine/RE-2013.3-linux/peregrine/xtensa-elf/lib/xcc//libgcc.a(_udivdi3.o)
                                 0x44 (size before relaxing)
 .lit4          0x00984100        0x0 /cad/tensilica/chips/peregrine/RE-2013.3-linux/peregrine/xtensa-elf/lib/xcc//libgcc.a(_umoddi3.o)
                                 0x44 (size before relaxing)
 .lit4          0x00984100        0x0 protocol/src/tcpip/.output/AR6320/hw.3/lib/libtcpip.a(wlan_pb.o)
                                 0x10 (size before relaxing)
 .lit4          0x00984100        0x0 protocol/src/tcpip/.output/AR6320/hw.3/lib/libtcpip.a(wlan_tcpip.o)
                                 0x2c (size before relaxing)
 .lit4          0x00984100       0x24 mac_core/src/misc/serport/.output/AR6320/hw.3/lib/libserport.a(serial_if.o)
                                 0x84 (size before relaxing)
 .lit4          0x00984124       0x24 mac_core/src/misc/serport/.output/AR6320/hw.3/lib/libserport.a(serial_port.o)
                                 0x60 (size before relaxing)
 .lit4          0x00984148       0x4c mac_core/src/misc/uartserp/.output/AR6320/hw.3/lib/libuartserp.a(uartserp.o)
                                0x16c (size before relaxing)
 .lit4          0x00984194       0x28 mac_core/src/wal/AR/nan/.output/AR6320/hw.3/lib/ar_wal_nan.a(wal_nan_mac.o)
                                 0xec (size before relaxing)
 .lit4          0x009841bc       0x74 mac_core/src/wal/whal/rtt/.output/AR6320/hw.3/lib/whal_rtt.a(whal_rtt.o)
                                0x2dc (size before relaxing)
 .ex_init_text.lit4
                0x00984230        0x4 mac_core/src/wal/whal/rtt/.output/AR6320/hw.3/lib/whal_rtt.a(whal_rtt.o)
                                 0x10 (size before relaxing)
 *(.gnu.linkonce.lit4.*)
                0x00984234                _literals_end = ABSOLUTE (.)

.dram0.literal  0x00984234        0x0
                0x00984234                _dram0_literal_start = ABSOLUTE (.)
 *(.dram0.literal)
 *(.dram.literal)
                0x00984234                _dram0_literal_end = ABSOLUTE (.)

.dport0.rodata  0x004144d0        0x0
                0x004144d0                _dport0_rodata_start = ABSOLUTE (.)
 *(.dport0.rodata)
 *(.dport.rodata)
                0x004144d0                _dport0_rodata_end = ABSOLUTE (.)

.dram0.rodata   0x004144d0        0x0
                0x004144d0                _dram0_rodata_start = ABSOLUTE (.)
 *(.dram0.rodata)
 *(.dram.rodata)
                0x004144d0                _dram0_rodata_end = ABSOLUTE (.)

.rodata         0x004144d0     0x30e4
                0x004144d0                _rodata_start = ABSOLUTE (.)
 *(.rodata)
 .rodata        0x004144d0        0xc protocol/src/init/.output/AR6320/hw.3/lib/libwlaninit.a(wlan_init.o)
                0x004144d0                up_to_ac
                0x004144d8                ac_to_up
 *fill*         0x004144dc        0x4 00
 .rodata        0x004144e0        0x6 protocol/src/init/.output/AR6320/hw.3/lib/libwlaninit.a(wlan_peer.o)
 *fill*         0x004144e6        0xa 00
 .rodata        0x004144f0       0x36 protocol/src/init/.output/AR6320/hw.3/lib/libwlaninit.a(wlan_dev.o)
 *fill*         0x00414526        0x2 00
 .rodata        0x00414528        0x2 mac_core/src/wal/AR/coex/.output/AR6320/hw.3/lib/wal_coex.a(wal_coex.o)
 *fill*         0x0041452a        0x6 00
 .rodata        0x00414530       0xdc mac_core/src/wal/AR/coex/.output/AR6320/hw.3/lib/wal_coex.a(wal_mwscoex.o)
 *fill*         0x0041460c        0x4 00
 .rodata        0x00414610      0x400 mac_core/src/wal/AR/coex/.output/AR6320/hw.3/lib/wal_coex.a(wal_mwscoex_crc.o)
                0x00414610                crc16_table
                0x00414810                crc_16_l_table
 .rodata        0x00414a10      0x37e mac_core/src/wal/AR/coex/.output/AR6320/hw.3/lib/wal_coex.a(coexistence_service_v02.o)
 *fill*         0x00414d8e        0x2 00
 .rodata        0x00414d90        0x6 mac_core/src/data_txrx/.output/AR6320/hw.3/lib/libdatatxrx.a(data_txrx.o)
 *fill*         0x00414d96        0xa 00
 .rodata        0x00414da0       0x55 mac_core/src/data_txrx/.output/AR6320/hw.3/lib/libdatatxrx.a(data_rx.o)
 *fill*         0x00414df5        0xb 00
 .rodata        0x00414e00       0xd9 mac_core/src/data_txrx/.output/AR6320/hw.3/lib/libdatatxrx.a(data_rx_peer.o)
 *fill*         0x00414ed9        0x7 00
 .rodata        0x00414ee0       0x20 mac_core/src/data_txrx/.output/AR6320/hw.3/lib/libdatatxrx.a(data_rx_pn.o)
 .rodata        0x00414f00       0x1c mac_core/src/data_txrx/.output/AR6320/hw.3/lib/libdatatxrx.a(data_rx_reorder.o)
 .rodata        0x00414f1c       0x30 protocol/src/vdev_mgr/.output/AR6320/hw.3/lib/libvdevmgr.a(wlan_vdev.o)
                0x00414f1c                defaultBuildRules
 *fill*         0x00414f4c        0x4 00
 .rodata        0x00414f50        0xe protocol/src/vdev_mgr/.output/AR6320/hw.3/lib/libvdevmgr.a(wlan_vdev_misc.o)
 *fill*         0x00414f5e        0x2 00
 .rodata        0x00414f60       0x20 protocol/src/vdev_mgr/.output/AR6320/hw.3/lib/libvdevmgr.a(wlan_vdev_schedule.o)
 .rodata        0x00414f80       0x70 mac_core/src/ratectrl/.output/AR6320/hw.3/lib/libratectrl_11ac.a(ratectrl_11ac.o)
                0x00414f80                default_ht_rt_masks_2d
                0x00414f90                default_vht_rt_masks_2d
 .rodata        0x00414ff0       0x34 protocol/src/rtt/.output/AR6320/hw.3/lib/librtt.a(wlan_rtt.o)
 *fill*         0x00415024        0xc 00
 .rodata        0x00415030       0x21 protocol/src/phyerr/.output/AR6320/hw.3/lib/libphyerr.a(wlan_dfs_phyerr_filter.o)
 *fill*         0x00415051        0xf 00
 .rodata        0x00415060        0xc protocol/src/wmi/.output/AR6320/hw.3/lib/libumacwmi.a(wlan_wmi.o)
 *fill*         0x0041506c        0x4 00
 .rodata        0x00415070       0x4c protocol/src/wmi/.output/AR6320/hw.3/lib/libumacwmi.a(wmi_gpiohook.o)
                0x00415070                gpio_dispatch_entries
 *fill*         0x004150bc        0x4 00
 .rodata        0x004150c0       0x45 protocol/src/offload_mgr/.output/AR6320/hw.3/lib/liboffload_mgr.a(beacon_filter.o)
 *fill*         0x00415105        0xb 00
 .rodata        0x00415110       0x34 protocol/src/offload_mgr/.output/AR6320/hw.3/lib/liboffload_mgr.a(wlan_gtk_offload.o)
 *fill*         0x00415144        0x4 00
 .rodata        0x00415148       0x16 protocol/src/offload_mgr/.output/AR6320/hw.3/lib/liboffload_mgr.a(wlan_wow.o)
 *fill*         0x0041515e        0x2 00
 .rodata        0x00415160       0x58 protocol/src/mgmt/.output/AR6320/hw.3/lib/libmgmt.a(wlan_early_rx_sm.o)
                0x00415160                wlan_early_rx_sm_info
 *fill*         0x004151b8        0x8 00
 .rodata        0x004151c0       0x1a protocol/src/power/.output/AR6320/hw.3/lib/libpower.a(wlan_powersave_ap.o)
 *fill*         0x004151da        0x6 00
 .rodata        0x004151e0       0x68 protocol/src/power/.output/AR6320/hw.3/lib/libpower.a(wlan_powersave_ibss.o)
 *fill*         0x00415248        0x8 00
 .rodata        0x00415250       0xa8 protocol/src/power/.output/AR6320/hw.3/lib/libpower.a(wlan_powersave_ibss_nw_sm.o)
                0x00415250                wlan_ps_ibss_nw_sm_info
 *fill*         0x004152f8        0x8 00
 .rodata        0x00415300       0x48 protocol/src/power/.output/AR6320/hw.3/lib/libpower.a(wlan_powersave_ibss_peer_ps_sm.o)
                0x00415300                wlan_ps_ibss_peer_ps_sm_info
 *fill*         0x00415348        0x8 00
 .rodata        0x00415350       0x88 protocol/src/power/.output/AR6320/hw.3/lib/libpower.a(wlan_powersave_ibss_self_ps_sm.o)
                0x00415350                wlan_ps_ibss_ps_sm_info
 *fill*         0x004153d8        0x8 00
 .rodata        0x004153e0       0x98 protocol/src/power/.output/AR6320/hw.3/lib/libpower.a(wlan_powersave_sta.o)
 *fill*         0x00415478        0x8 00
 .rodata        0x00415480       0xd8 protocol/src/power/.output/AR6320/hw.3/lib/libpower.a(wlan_powersave_sta_sm.o)
                0x00415480                wlan_ps_sta_sm_info
 *fill*         0x00415558        0x8 00
 .rodata        0x00415560       0x20 protocol/src/power/.output/AR6320/hw.3/lib/libpower.a(wlan_qpower.o)
                0x00415560                chan_timeout_tbl
 .rodata        0x00415580       0x38 protocol/src/power/smps/.output/AR6320/hw.3/lib/libsmps.a(wlan_smps.o)
 *fill*         0x004155b8        0x8 00
 .rodata        0x004155c0       0x78 protocol/src/power/smps/.output/AR6320/hw.3/lib/libsmps.a(wlan_smps_sm.o)
                0x004155c0                wlan_smps_sm_info
 .rodata        0x00415638        0x8 protocol/src/resmgr/.output/AR6320/hw.3/lib/libresmgr.a(channel_mgr.o)
 .rodata        0x00415640        0x4 protocol/src/resmgr/.output/AR6320/hw.3/lib/libresmgr.a(resmgr.o)
 .rodata        0x00415644        0x4 protocol/src/resmgr/.output/AR6320/hw.3/lib/libresmgr.a(resmgr_dyn_sch.o)
 .rodata        0x00415648        0xc protocol/src/resmgr/.output/AR6320/hw.3/lib/libresmgr.a(resmgr_ocs.o)
 *fill*         0x00415654        0xc 00
 .rodata        0x00415660       0x80 mac_core/src/hostif/htt/.output/AR6320/hw.3/lib/libhtt.a(htt_tgt_rx.o)
 .rodata        0x004156e0      0x100 mac_core/src/hostif/htt/.output/AR6320/hw.3/lib/libhtt.a(htt_tgt_stats.o)
 .rodata        0x004157e0       0x48 mac_core/src/hostif/htt/.output/AR6320/hw.3/lib/libhtt.a(htt_tgt_tx.o)
 .rodata        0x00415828       0x18 mac_core/src/utils/sm/.output/AR6320/hw.3/lib/libsm.a(sm.o)
 .rodata        0x00415840       0x2c protocol/src/coex/.output/AR6320/hw.3/lib/libcoex.a(coex.o)
 .rodata        0x0041586c       0x58 protocol/src/scan/.output/AR6320/hw.3/lib/libscan.a(wlan_scan_sch.o)
 *fill*         0x004158c4        0xc 00
 .rodata        0x004158d0       0x90 protocol/src/scan/.output/AR6320/hw.3/lib/libscan.a(wlan_scan_sm.o)
                0x004158d0                wlan_scan_sm_info
 .rodata        0x00415960        0x6 protocol/src/scan/.output/AR6320/hw.3/lib/libscan.a(wlan_scan.o)
 *fill*         0x00415966        0xa 00
 .rodata        0x00415970       0x58 mac_core/src/soc/pcielp/.output/AR6320/hw.3/lib/libpcielp.a(pcielp_core.o)
                0x00415970                pcielp_sm_info
 *fill*         0x004159c8        0x8 00
 .rodata        0x004159d0       0x81 mac_core/src/pktlog/.output/AR6320/hw.3/lib/libpktlog.a(pktlog.o)
 *fill*         0x00415a51        0x3 00
 .rodata        0x00415a54       0x4c protocol/src/p2p/.output/AR6320/hw.3/lib/libp2p.a(p2p_main.o)
 .rodata        0x00415aa0       0x58 protocol/src/p2p/.output/AR6320/hw.3/lib/libp2p.a(p2p_go_ps.o)
                0x00415aa0                p2p_ps_sm_info
 *fill*         0x00415af8        0x8 00
 .rodata        0x00415b00       0x57 protocol/src/txbf/.output/AR6320/hw.3/lib/libtxbf.a(wlan_txbf.o)
 *fill*         0x00415b57        0x9 00
 .rodata        0x00415b60       0x14 protocol/src/tdls/.output/AR6320/hw.3/lib/libtdls.a(wlan_tdls_peer.o)
 *fill*         0x00415b74        0x4 00
 .rodata        0x00415b78       0x22 protocol/src/offload/.output/AR6320/hw.3/lib/liboffload.a(wlan_arp_ns_offload.o)
 *fill*         0x00415b9a        0x6 00
 .rodata        0x00415ba0        0x7 protocol/src/offload/.output/AR6320/hw.3/lib/liboffload.a(wlan_beacon_tx_offload.o)
 *fill*         0x00415ba7        0x1 00
 .rodata        0x00415ba8       0x16 protocol/src/offload/.output/AR6320/hw.3/lib/liboffload.a(wlan_network_list_offload.o)
 *fill*         0x00415bbe        0x2 00
 .rodata        0x00415bc0       0x3e protocol/src/framegen/.output/AR6320/hw.3/lib/libframegen.a(wlan_framegen.o)
                0x00415bc0                llc_snap_hdr_tdls
                0x00415bc8                bcast_mac
 *fill*         0x00415bfe        0x2 00
 .rodata        0x00415c00       0x16 protocol/src/blockack/.output/AR6320/hw.3/lib/libblockack.a(wlan_blockack.o)
 *fill*         0x00415c16        0xa 00
 .rodata        0x00415c20      0x400 mac_core/src/wal/whal/reset/.output/AR6320/hw.3/lib/ar6000_cal.a(ar6320_rxdc_cal.o)
 .rodata        0x00416020      0x248 mac_core/src/wal/whal/reset/.output/AR6320/hw.3/lib/ar6000_cal.a(ar6320_iq_cal.o)
 *fill*         0x00416268        0x8 00
 .rodata        0x00416270      0x372 mac_core/src/wal/whal/reset/.output/AR6320/hw.3/lib/ar6000_cal.a(ar6320_pef_cal.o)
                0x00416370                pefIQref
 *fill*         0x004165e2        0xe 00
 .rodata        0x004165f0       0xbe protocol/src/nan/.output/AR6320/hw.3/lib/libnanwlan.a(wlan_nan_mac.o)
 *fill*         0x004166ae        0x2 00
 .rodata        0x004166b0       0xa8 protocol/src/nan/.output/AR6320/hw.3/lib/libnanwlan.a(wlan_nan_ctrl.o)
 .rodata        0x00416758       0x2c protocol/src/nan/.output/AR6320/hw.3/lib/libnanwlan.a(wlan_nan_de_if.o)
 .rodata        0x00416784       0x40 protocol/src/nan/.output/AR6320/hw.3/lib/libnanwlan.a(wlan_nan_rx.o)
 *fill*         0x004167c4        0xc 00
 .rodata        0x004167d0       0x31 protocol/src/nan/.output/AR6320/hw.3/lib/libnanwlan.a(wlan_nan_match.o)
 *fill*         0x00416801        0x7 00
 .rodata        0x00416808       0x1e protocol/src/nan/.output/AR6320/hw.3/lib/libnanwlan.a(wlan_nan_attr.o)
 *fill*         0x00416826        0xa 00
 .rodata        0x00416830      0x120 protocol/src/nan/.output/AR6320/hw.3/lib/libnanwlan.a(wlan_nan_bloom_filter.o)
 .rodata        0x00416950      0x400 protocol/src/nan/.output/AR6320/hw.3/lib/libnanwlan.a(wlan_nan_crc.o)
 .rodata        0x00416d50       0x34 protocol/src/nan/.output/AR6320/hw.3/lib/libnanwlan.a(wlan_nan_log.o)
 *fill*         0x00416d84        0xc 00
 .rodata        0x00416d90       0x68 protocol/src/nan/.output/AR6320/hw.3/lib/libnanwlan.a(wlan_nan_cluster_sm.o)
                0x00416d90                WLANNAN_ClusterSM_Info
 .rodata        0x00416df8        0x6 protocol/src/nan/.output/AR6320/hw.3/lib/libnanwlan.a(wlan_nan_scan.o)
 *fill*         0x00416dfe        0x2 00
 .rodata        0x00416e00        0x8 protocol/src/nan/.output/AR6320/hw.3/lib/libnanwlan.a(wlan_nan_sched.o)
 *fill*         0x00416e08        0x8 00
 .rodata        0x00416e10       0x20 protocol/src/nan/.output/AR6320/hw.3/lib/libnanwlan.a(sha2.o)
 .rodata        0x00416e30       0x40 mac_core/patch/AR6320/v3/.output/AR6320/hw.3/lib/lib_maccore_patches.a(ar_wal_connection_pause_patch.o)
 .rodata        0x00416e70       0xb5 mac_core/patch/AR6320/v3/.output/AR6320/hw.3/lib/lib_maccore_patches.a(ar_wal_phy_dev_patch.o)
                0x00416e70                dump_reg_addr
 *fill*         0x00416f25        0x3 00
 .rodata        0x00416f28       0x24 mac_core/patch/AR6320/v3/.output/AR6320/hw.3/lib/lib_maccore_patches.a(ar_wal_tx_de_patch.o)
 *fill*         0x00416f4c        0x4 00
 .rodata        0x00416f50       0x40 mac_core/patch/AR6320/v3/.output/AR6320/hw.3/lib/lib_maccore_patches.a(ar_wal_rx_patch.o)
 .rodata        0x00416f90        0xc mac_core/patch/AR6320/v3/.output/AR6320/hw.3/lib/lib_maccore_patches.a(ar_wal_rx_offload_patch.o)
 *fill*         0x00416f9c        0x4 00
 .rodata        0x00416fa0        0x6 mac_core/patch/AR6320/v3/.output/AR6320/hw.3/lib/lib_maccore_patches.a(ar_wal_vdev_patch.o)
 *fill*         0x00416fa6        0x2 00
 .rodata        0x00416fa8       0x10 mac_core/patch/AR6320/v3/.output/AR6320/hw.3/lib/lib_maccore_patches.a(tx_sched_patch.o)
 *fill*         0x00416fb8        0x8 00
 .rodata        0x00416fc0       0xb8 mac_core/patch/AR6320/v3/.output/AR6320/hw.3/lib/lib_maccore_patches.a(ar_wal_tx_send_patch.o)
 *fill*         0x00417078        0x8 00
 .rodata        0x00417080       0x20 mac_core/patch/AR6320/v3/.output/AR6320/hw.3/lib/lib_maccore_patches.a(ar_wal_peer_patch.o)
 .rodata        0x004170a0       0x1e mac_core/patch/AR6320/v3/.output/AR6320/hw.3/lib/lib_maccore_patches.a(wal_pps_patch.o)
 *fill*         0x004170be        0x2 00
 .rodata        0x004170c0       0x1a mac_core/patch/AR6320/v3/.output/AR6320/hw.3/lib/lib_maccore_patches.a(ar_xmit_wifi_ip01_patch.o)
 *fill*         0x004170da        0x6 00
 .rodata        0x004170e0       0x16 mac_core/patch/AR6320/v3/.output/AR6320/hw.3/lib/lib_maccore_patches.a(patch_pcie.o)
 *fill*         0x004170f6        0xa 00
 .rodata        0x00417100       0x10 mac_core/patch/AR6320/v3/.output/AR6320/hw.3/lib/lib_maccore_patches.a(patch_whal_mci.o)
 .rodata        0x00417110        0xe mac_core/patch/AR6320/v3/.output/AR6320/hw.3/lib/lib_maccore_patches.a(patch_copy_engine.o)
 *fill*         0x0041711e        0x2 00
 .rodata        0x00417120        0xc mac_core/patch/AR6320/v3/.output/AR6320/hw.3/lib/lib_maccore_patches.a(ar_wal_tdls_conn_table_patch.o)
 *fill*         0x0041712c        0x4 00
 .rodata        0x00417130       0x28 mac_core/patch/AR6320/v3/.output/AR6320/hw.3/lib/lib_maccore_patches.a(wmi_dbgloghook_patch.o)
                0x00417130                dbglog_dispatch_entries
 *fill*         0x00417158        0x8 00
 .rodata        0x00417160       0x58 protocol/src/extwow/.output/AR6320/hw.3/lib/libextwow.a(wlan_extwow.o)
                0x00417160                wlan_extwow_sm_info
 *fill*         0x004171b8        0x8 00
 .rodata        0x004171c0       0x50 halphy/patch/AR6320/v3/.output/AR6320/hw.3/lib/lib_halphy_patches.a(ar6000_nf_cal_patch.o)
 .rodata        0x00417210       0x10 halphy/patch/AR6320/v3/.output/AR6320/hw.3/lib/lib_halphy_patches.a(ar6320_ini_patch.o)
 .rodata        0x00417220       0x40 halphy/patch/AR6320/v3/.output/AR6320/hw.3/lib/lib_halphy_patches.a(ar6320_tpc_config_patch.o)
 .rodata        0x00417260       0x9d halphy/patch/AR6320/v3/.output/AR6320/hw.3/lib/lib_halphy_patches.a(ar6320_eeprom_patch.o)
 *fill*         0x004172fd        0x3 00
 .rodata        0x00417300      0x101 halphy/patch/AR6320/v3/.output/AR6320/hw.3/lib/lib_halphy_patches.a(ar6000_paprd_patch.o)
 *fill*         0x00417401        0x3 00
 .rodata        0x00417404       0x3b /cad/tensilica/chips/peregrine/RE-2013.3-linux/peregrine/xtensa-elf/lib/xcc//libgcc.a(lib2funcs.o)
                0x00417404                __xtensa_trampoline_template
 *fill*         0x0041743f        0x1 00
 .rodata        0x00417440       0x70 mac_core/src/wal/whal/rtt/.output/AR6320/hw.3/lib/whal_rtt.a(whal_rtt.o)
                0x00417440                whal_rtt_api_fn_tbl
                0x00417478                map_bw_to_num_tones
                0x00417480                map_bw_to_fft_size
 *(.rodata.*)
 .rodata.str1.4
                0x004174b0       0x15 protocol/src/init/.output/AR6320/hw.3/lib/libwlaninit.a(wlan_init.o)
 *fill*         0x004174c5        0x3 00
 .rodata.str1.4
                0x004174c8        0x6 mac_core/src/hostif/hif/hif_dbguart/.output/AR6320/hw.3/lib/lib_hif_dbguart.a(hif_dbguart.o)
 *fill*         0x004174ce        0x2 00
 .rodata.str1.4
                0x004174d0        0x8 protocol/src/lpi/.output/AR6320/hw.3/lib/liblpi.a(wlan_lpi.o)
 .rodata.str1.4
                0x004174d8       0x18 protocol/src/nan/.output/AR6320/hw.3/lib/libnanwlan.a(wlan_nan_mac.o)
 .rodata.str1.4
                0x004174f0       0xa0 protocol/src/nan/.output/AR6320/hw.3/lib/libnanwlan.a(wlan_nan_cluster_sm.o)
 .rodata.str1.4
                0x00417590       0x12 mac_core/patch/AR6320/v3/.output/AR6320/hw.3/lib/lib_maccore_patches.a(patch_usb.o)
 .rodata.str1.4
                0x00000000       0x14 mac_core/patch/AR6320/v3/.output/AR6320/hw.3/lib/lib_maccore_patches.a(sha1_patch.o)
                                  0x1 (size before relaxing)
 .rodata.str1.4
                0x00000000        0x6 mac_core/src/misc/uartserp/.output/AR6320/hw.3/lib/libuartserp.a(uartserp.o)
 *(.gnu.linkonce.r.*)
 *(.rodata1)
                0x004175a2                __XT_EXCEPTION_TABLE__ = ABSOLUTE (.)
 *(.xt_except_table)
 *(.gcc_except_table)
 *(.gnu.linkonce.e.*)
 *(.gnu.version_r)
                0x004175a4                . = ALIGN (0x4)
 *fill*         0x004175a2        0x2 00
                0x004175a4                _bss_table_start = ABSOLUTE (.)
                0x004175a4        0x4 LONG 0x4175b8 _dport0_bss_start
                0x004175a8        0x4 LONG 0x4175b8 _dport0_bss_end
                0x004175ac        0x4 LONG 0x41de40 _bss_start
                0x004175b0        0x4 LONG 0x4250c0 _bss_end
                0x004175b4                _bss_table_end = ABSOLUTE (.)
                0x004175b4                _rodata_end = ABSOLUTE (.)

.dport0.data    0x004175b4        0x0
                0x004175b4                _dport0_data_start = ABSOLUTE (.)
 *(.dport0.data)
 *(.dport.data)
                0x004175b4                _dport0_data_end = ABSOLUTE (.)

.dport0.bss     0x004175b4        0x4
                0x004175b8                . = ALIGN (0x8)
 *fill*         0x004175b4        0x4 00
                0x004175b8                _dport0_bss_start = ABSOLUTE (.)
 *(.dport0.bss)
                0x004175b8                . = ALIGN (0x8)
                0x004175b8                _dport0_bss_end = ABSOLUTE (.)

.dram0.data     0x004175b8        0x0
                0x004175b8                _dram0_data_start = ABSOLUTE (.)
 *(.dram0.data)
 *(.dram.data)
                0x004175b8                _dram0_data_end = ABSOLUTE (.)

.data           0x004175c0     0x6878
                0x004175c0                _data_start = ABSOLUTE (.)
 *(.data)
 .data          0x004175c0       0x19 mac_core/patch/AR6320/v3/.output/AR6320/hw.3/obj/app_start.o
                0x004175c0                g_dbg_builddate
                0x004175d0                g_dbg_buildtime
 *fill*         0x004175d9        0x7 00
 .data          0x004175e0       0x70 protocol/src/init/.output/AR6320/hw.3/lib/libwlaninit.a(wlan_init.o)
                0x004175e0                wlanInitInternalIndirection
                0x004175f4                wlan_phase0_patch_init_fn
                0x004175f8                wlan_init_allocram_ready_fn
                0x004175fc                wlan_patch_init_fn
                0x00417600                wlan_init_done_fn
                0x00417604                gwlan_init_api
                0x00417610                buf_params
 .data          0x00417650       0xb8 protocol/src/init/.output/AR6320/hw.3/lib/libwlaninit.a(wlan_peer.o)
                0x00417664                peerApiIndirectionTableInit
                0x00417690                wlan_peer_dispatchentries
 .data          0x00417708        0x8 protocol/src/init/.output/AR6320/hw.3/lib/libwlaninit.a(umac_init.o)
                0x00417708                _umacinit_api
 .data          0x00417710        0xc protocol/src/init/.output/AR6320/hw.3/lib/libwlaninit.a(wlan_bss.o)
                0x00417710                bssApiIndirectionTable
 .data          0x0041771c       0x34 protocol/src/init/.output/AR6320/hw.3/lib/libwlaninit.a(wlan_buf.o)
                0x0041771c                wlan_buf_api_table_init
 .data          0x00417750      0x168 protocol/src/init/.output/AR6320/hw.3/lib/libwlaninit.a(wlan_dev.o)
                0x00417764                _wlandev_api_init
                0x00417788                dev_init_done_fn
                0x00417790                version_whitelist
                0x004177b0                wlan_pdev_dispatchentries
 .data          0x004178b8        0x8 mac_core/src/mac_core_init/.output/AR6320/hw.3/lib/libmaccoreinit.a(mac_core_init.o)
                0x004178b8                mii_module_install
                0x004178bc                interconnect_module_install
 .data          0x004178c0        0x8 protocol/src/cfg/.output/AR6320/hw.3/lib/libcfg.a(cfg.o)
                0x004178c0                gcfg_api
 .data          0x004178c8      0x22c mac_core/src/wal/AR/coex/.output/AR6320/hw.3/lib/wal_coex.a(wal_coex.o)
                0x004178c8                walCoexApiTable
                0x00417ae0                CoexConfigMgr2Chain
                0x00417ae4                CoexConfigMgr1Chain
                0x00417ae8                CoexConfigMgr3Chain
 .data          0x00417af4      0x148 mac_core/src/wal/AR/coex/.output/AR6320/hw.3/lib/wal_coex.a(wal_btcoex.o)
 *fill*         0x00417c3c        0x4 00
 .data          0x00417c40      0x105 mac_core/src/wal/AR/coex/.output/AR6320/hw.3/lib/wal_coex.a(wal_mwscoex.o)
                0x00417d28                pn
                0x00417d30                tddcfgparam
 .data          0x00417d45        0x0 mac_core/src/wal/AR/coex/.output/AR6320/hw.3/lib/wal_coex.a(wal_mwscoex_crc.o)
 .data          0x00417d45        0x0 mac_core/src/wal/AR/coex/.output/AR6320/hw.3/lib/wal_coex.a(qmi_idl_lib.o)
 .data          0x00417d45        0x0 mac_core/src/wal/AR/coex/.output/AR6320/hw.3/lib/wal_coex.a(qmi_idl_accessor.o)
 *fill*         0x00417d45        0x3 00
 .data          0x00417d48       0x38 mac_core/src/wal/AR/coex/.output/AR6320/hw.3/lib/wal_coex.a(coexistence_service_v02.o)
                0x00417d48                coex_qmi_idl_service_object_v02
 .data          0x00417d80        0x0 mac_core/src/wal/whal/ini/.output/AR6320/hw.3/lib/libwhalini.a(whalini.o)
 .data          0x00417d80       0x20 mac_core/src/data_txrx/.output/AR6320/hw.3/lib/libdatatxrx.a(data_txrx.o)
                0x00417d80                wlan_data_txrx_api_table
                0x00417d94                g_bar_sw_retry_th_fast_sta
                0x00417d98                g_bar_sw_retry_th_btcoex
                0x00417d9c                g_bar_sw_retry_th
 .data          0x00417da0       0x30 mac_core/src/data_txrx/.output/AR6320/hw.3/lib/libdatatxrx.a(ieee80211_hdr.o)
                0x00417da0                frameHdrSize
 .data          0x00417dd0       0x20 mac_core/src/data_txrx/.output/AR6320/hw.3/lib/libdatatxrx.a(data_rx.o)
                0x00417dd0                data_rx_indir_tbl
 .data          0x00417df0        0x0 mac_core/src/data_txrx/.output/AR6320/hw.3/lib/libdatatxrx.a(data_rx_peer.o)
 .data          0x00417df0        0x0 mac_core/src/data_txrx/.output/AR6320/hw.3/lib/libdatatxrx.a(data_rx_pn.o)
 .data          0x00417df0        0x0 mac_core/src/data_txrx/.output/AR6320/hw.3/lib/libdatatxrx.a(data_rx_reorder.o)
 .data          0x00417df0        0x8 protocol/src/mgmt_txrx/.output/AR6320/hw.3/lib/libmgmttxrx.a(ieee_mgmt_rx.o)
                0x00417df0                ieee_mgmt_api_table_init
 .data          0x00417df8       0x40 protocol/src/mgmt_txrx/.output/AR6320/hw.3/lib/libmgmttxrx.a(wlan_mgmt_local_txrx.o)
                0x00417df8                wlan_mgmt_local_txrx_api_table_init
 *fill*         0x00417e38        0x8 00
 .data          0x00417e40       0x80 protocol/src/mgmt_txrx/.output/AR6320/hw.3/lib/libmgmttxrx.a(wlan_mgmt_txrx.o)
                0x00417e40                wlan_mgmt_txrx_api_table
                0x00417e90                wlan_mgmt_dispatchentries
 .data          0x00417ec0      0x1c8 protocol/src/vdev_mgr/.output/AR6320/hw.3/lib/libvdevmgr.a(wlan_vdev.o)
                0x00417ec0                wlan_vdev_internal_indir_tbl
                0x00417eec                wlan_vdev_api_tbl_init
                0x00417f80                wlan_vdev_dispatchentries
 .data          0x00418088       0x10 protocol/src/vdev_mgr/.output/AR6320/hw.3/lib/libvdevmgr.a(wlan_vdev_keepalive.o)
                0x00418088                wlan_vdev_keepalive_indir_tbl
 .data          0x00418098       0x48 protocol/src/vdev_mgr/.output/AR6320/hw.3/lib/libvdevmgr.a(wlan_vdev_misc.o)
                0x00418098                wlan_vdev_misc_indir_tbl
 .data          0x004180e0       0x24 protocol/src/vdev_mgr/.output/AR6320/hw.3/lib/libvdevmgr.a(wlan_vdev_pause.o)
                0x004180e0                wlan_vdev_pause_indir_tbl
 .data          0x00418104       0x30 protocol/src/vdev_mgr/.output/AR6320/hw.3/lib/libvdevmgr.a(wlan_vdev_schedule.o)
                0x00418104                wlan_vdev_schedule_indir_tbl
 .data          0x00418134        0x4 protocol/src/key_mgmt/.output/AR6320/hw.3/lib/libkeymgmt.a(wlan_key_mgmt.o)
                0x00418134                keymgmtApiIndirectionTable
 .data          0x00418138       0xb8 mac_core/src/ratectrl/.output/AR6320/hw.3/lib/libratectrl_11ac.a(ratectrl_11ac.o)
                0x00418138                g_default_no_ack_coex_thr
                0x0041813c                g_default_no_ack_wifi_thr
                0x00418140                g_default_sgi_per_thresh
                0x00418141                g_default_gtx_per_thresh
                0x00418142                g_default_gtx_per_margin
                0x00418143                g_default_gtx_tpc_step
                0x00418144                g_def_vmode_compensation
                0x0041814c                rateInternalIndirectionTable
                0x00418198                rateApiIndirectionTable
                0x004181b4                g_rc_cck_rate_allowed
                0x004181b8                rssi_thresh
                0x004181bc                g_dbg_rts_toggle
                0x004181c0                g_rc_skip_rts_failure
                0x004181c4                g_rc_ht_xretry_per
                0x004181c8                g_rc_legacy_xretry_per
                0x004181cc                g_rc_rate_max_per_thr
                0x004181d0                g_nss_hysteresis
                0x004181d4                g_mcs_hysteresis
                0x004181dc                g_def_vmode_threshold
                0x004181e0                _g_dbg_rc_weight
                0x004181e8                defaultSpatialMuxMCSMask
 .data          0x004181f0       0x40 mac_core/src/ratectrl/.output/AR6320/hw.3/lib/libratectrl_11ac.a(ratectrl_11ac_if.o)
                0x004181f0                rateInterfaceIndirectionTable
 .data          0x00418230        0x0 mac_core/src/ratectrl/.output/AR6320/hw.3/lib/libratectrl_11ac.a(ratectrl_peer_state.o)
 .data          0x00418230       0x64 protocol/src/rtt/.output/AR6320/hw.3/lib/librtt.a(wlan_rtt.o)
                0x00418244                _wlan_rtt_api
                0x00418270                wlan_rtt_dispatchentries
 .data          0x00418294       0x58 protocol/src/phyerr/.output/AR6320/hw.3/lib/libphyerr.a(wlan_dfs_phyerr_filter.o)
                0x004182ac                _wlan_dfs_phyerr_filter_api
 *fill*         0x004182ec        0x4 00
 .data          0x004182f0       0x60 protocol/src/phyerr/.output/AR6320/hw.3/lib/libphyerr.a(wlan_phyerr.o)
                0x004182f0                _wlan_phyerr_api
                0x00418320                wlan_phyerr_dispatchentries
 .data          0x00418350        0x0 protocol/src/rfkill/.output/AR6320/hw.3/lib/librfkill.a(wlan_rfkill.o)
 .data          0x00418350       0x24 protocol/src/wmi/.output/AR6320/hw.3/lib/libumacwmi.a(umac_wmi_events.o)
                0x00418350                umac_wmi_events_api_tbl
 .data          0x00418374       0x3c protocol/src/wmi/.output/AR6320/hw.3/lib/libumacwmi.a(wlan_wmi.o)
                0x00418374                wlanWmiApiIndirectionTable
                0x00418394                wlanWmiInternalIndirectionTable
 .data          0x004183b0       0x1d protocol/src/wmi/.output/AR6320/hw.3/lib/libumacwmi.a(wlan_wmi_events.o)
                0x004183b0                _wlan_wmi_event_api
 *fill*         0x004183cd        0x3 00
 .data          0x004183d0       0x14 protocol/src/wmi/.output/AR6320/hw.3/lib/libumacwmi.a(wmi_gpiohook.o)
                0x004183d0                gpio_dispatch_tbl
 *fill*         0x004183e4        0xc 00
 .data          0x004183f0      0xd64 protocol/src/wmi/.output/AR6320/hw.3/lib/libumacwmi.a(wmi_tlv_helper.o)
                0x004183f0                cmdAttrList
                0x00418d00                evtAttrList
 *fill*         0x00419154        0xc 00
 .data          0x00419160       0x2c protocol/src/wmi/.output/AR6320/hw.3/lib/libumacwmi.a(umac_wmi.o)
                0x00419174                umacWmiApiIndirectionTable
                0x00419180                WmiUmacUnifiedDispatchEntries
 *fill*         0x0041918c        0x4 00
 .data          0x00419190       0x58 protocol/src/offload_mgr/.output/AR6320/hw.3/lib/liboffload_mgr.a(beacon_filter.o)
                0x00419190                wlanbcnfilterInternalTable
                0x004191b8                wlanbcnfltApiIndirectionTable
                0x004191d0                bcnfilter_dispatch_entries
 *fill*         0x004191e8        0x8 00
 .data          0x004191f0       0x68 protocol/src/offload_mgr/.output/AR6320/hw.3/lib/liboffload_mgr.a(csa_offload_main.o)
                0x004191f0                csa_internal_fn
                0x00419210                wlan_csa_wmi_commands
                0x00419224                csa_api_en_tbl
                0x00419240                wlan_csa_wmi_dispatch_entries
 .data          0x00419258       0x40 protocol/src/offload_mgr/.output/AR6320/hw.3/lib/liboffload_mgr.a(offload_mgr.o)
                0x00419258                offldApiIndirectionTableInit
 *fill*         0x00419298        0x8 00
 .data          0x004192a0       0x3c protocol/src/offload_mgr/.output/AR6320/hw.3/lib/liboffload_mgr.a(wlan_d0wow.o)
                0x004192b4                wlanD0wowApiIndirectionTable
                0x004192b8                wlanD0wowInternalApiIndirectionTable
                0x004192d0                d0wow_dispatch_entries
 *fill*         0x004192dc        0x4 00
 .data          0x004192e0       0x7c protocol/src/offload_mgr/.output/AR6320/hw.3/lib/liboffload_mgr.a(wlan_gtk_offload.o)
                0x004192e0                wlanGtkOffloadInternalApiTable
                0x00419328                wlanGtkOffloadApiIndirectionTable
                0x00419330                wmiCipherToCrypto
                0x00419350                _gtk_offload_dispatch_entries
 *fill*         0x0041935c        0x4 00
 .data          0x00419360       0xec protocol/src/offload_mgr/.output/AR6320/hw.3/lib/liboffload_mgr.a(wlan_wow.o)
                0x00419360                wlanInternalApiTable
                0x004193b4                wlanWowApiIndirectionTableInit
                0x004193f0                dbglog_level_record
                0x00419410                wow_dispatch_entries
 .data          0x0041944c       0xf8 protocol/src/mgmt/.output/AR6320/hw.3/lib/libmgmt.a(wlan_beacon.o)
                0x0041944c                wlanBeaconInternalIndirectionTable
                0x0041949c                wlanBeaconApiIndirectionTableInit
 .data          0x00419544        0x4 protocol/src/mgmt/.output/AR6320/hw.3/lib/libmgmt.a(wlan_early_rx_sm.o)
                0x00419544                min_sleep_slop
 .data          0x00419548        0x8 protocol/src/mgmt/.output/AR6320/hw.3/lib/libmgmt.a(wlan_ie_utils.o)
                0x00419548                wlan_utils_api_table_init
 .data          0x00419550        0x0 protocol/src/mgmt/.output/AR6320/hw.3/lib/libmgmt.a(wlan_wnm.o)
 .data          0x00419550        0x0 protocol/src/power/.output/AR6320/hw.3/lib/libpower.a(wlan_pm_arbiter.o)
 .data          0x00419550        0x0 protocol/src/power/.output/AR6320/hw.3/lib/libpower.a(wlan_powersave.o)
 .data          0x00419550       0x2c protocol/src/power/.output/AR6320/hw.3/lib/libpower.a(wlan_powersave_ap.o)
                0x00419550                wlan_ps_ap_wmi_commands
                0x00419570                wlan_ps_ap_wmi_dispatch_entries
 .data          0x0041957c       0x5c protocol/src/power/.output/AR6320/hw.3/lib/libpower.a(wlan_powersave_ibss.o)
                0x0041957c                wlan_ibss_ps_api_table
 .data          0x004195d8        0x0 protocol/src/power/.output/AR6320/hw.3/lib/libpower.a(wlan_powersave_ibss_nw_sm.o)
 .data          0x004195d8        0x0 protocol/src/power/.output/AR6320/hw.3/lib/libpower.a(wlan_powersave_ibss_peer_ps_sm.o)
 .data          0x004195d8        0x0 protocol/src/power/.output/AR6320/hw.3/lib/libpower.a(wlan_powersave_ibss_self_ps_sm.o)
 *fill*         0x004195d8        0x8 00
 .data          0x004195e0       0x44 protocol/src/power/.output/AR6320/hw.3/lib/libpower.a(wlan_powersave_sta.o)
                0x004195e0                wlan_ps_sta_wmi_commands
                0x00419600                wlan_ps_sta_wmi_dispatch_entries
 .data          0x00419624        0x0 protocol/src/power/.output/AR6320/hw.3/lib/libpower.a(wlan_powersave_sta_sm.o)
 .data          0x00419624        0x0 protocol/src/power/.output/AR6320/hw.3/lib/libpower.a(wlan_powersave_tdls.o)
 .data          0x00419624        0x0 protocol/src/power/.output/AR6320/hw.3/lib/libpower.a(wlan_qpower.o)
 *fill*         0x00419624        0xc 00
 .data          0x00419630       0x38 protocol/src/power/smps/.output/AR6320/hw.3/lib/libsmps.a(wlan_smps.o)
                0x00419630                g_dbg_smps_avg_rssi_wt
                0x00419634                wlan_smps_wmi_commands
                0x00419650                wlan_smps_wmi_dispatch_entries
 .data          0x00419668        0x0 protocol/src/power/smps/.output/AR6320/hw.3/lib/libsmps.a(wlan_smps_sm.o)
 .data          0x00419668       0x20 protocol/src/resmgr/.output/AR6320/hw.3/lib/libresmgr.a(channel_mgr.o)
                0x00419668                g_cts2s_timeout
                0x0041966c                channel_mgr_internal_indir_tbl
                0x00419678                channel_mgr_api_tbl
 *fill*         0x00419688        0x8 00
 .data          0x00419690       0xe4 protocol/src/resmgr/.output/AR6320/hw.3/lib/libresmgr.a(resmgr.o)
                0x00419690                g_resmgr_api_tbl
                0x00419730                resmgr_wmi_commands
 .data          0x00419774        0x0 protocol/src/resmgr/.output/AR6320/hw.3/lib/libresmgr.a(resmgr_dyn_sch.o)
 .data          0x00419774        0x0 protocol/src/resmgr/.output/AR6320/hw.3/lib/libresmgr.a(resmgr_ocs.o)
 .data          0x00419774        0x0 protocol/src/resmgr/.output/AR6320/hw.3/lib/libresmgr.a(virtual_channel.o)
 .data          0x00419774        0x0 protocol/src/resmgr/.output/AR6320/hw.3/lib/libresmgr.a(virtual_channel_arbiter.o)
 .data          0x00419774       0x70 mac_core/src/hostif/htc/.output/AR6320/hw.3/lib/libhtc.a(htc.o)
                0x00419774                g_HTCPipeIndirectionTable
 .data          0x004197e4       0x78 mac_core/src/hostif/htt/.output/AR6320/hw.3/lib/libhtt.a(htt_tgt_hif_svc.o)
                0x004197e4                htt_tgt_hif_internal_indir_tbl
                0x0041981c                htt_tgt_hif_svc_api_indir_tbl
 .data          0x0041985c       0x44 mac_core/src/hostif/htt/.output/AR6320/hw.3/lib/libhtt.a(htt_tgt_rx.o)
                0x0041985c                htt_tgt_rx_internal_indir_tbl
                0x00419884                htt_tgt_rx_api_indir_tbl
 .data          0x004198a0       0x44 mac_core/src/hostif/htt/.output/AR6320/hw.3/lib/libhtt.a(htt_tgt_rx_event.o)
                0x004198a0                htt_tgt_rx_event_internal_indir_tbl
                0x004198b0                htt_tgt_rx_event_api_indir_tbl
 .data          0x004198e4       0x14 mac_core/src/hostif/htt/.output/AR6320/hw.3/lib/libhtt.a(htt_tgt_stats.o)
                0x004198e4                htt_tgt_stats_internal_indir_tbl
                0x004198f4                htt_tgt_stats_api_indir_tbl
 .data          0x004198f8       0x2c mac_core/src/hostif/htt/.output/AR6320/hw.3/lib/libhtt.a(htt_tgt_tx.o)
                0x004198f8                htt_tgt_tx_internal_indir_tbl
                0x00419918                htt_tgt_tx_api_indir_tbl
 .data          0x00419924        0x0 mac_core/src/utils/sm/.output/AR6320/hw.3/lib/libsm.a(sm.o)
 *fill*         0x00419924        0xc 00
 .data          0x00419930      0x168 protocol/src/coex/.output/AR6320/hw.3/lib/libcoex.a(coex.o)
                0x00419930                CoexApiTable
                0x00419a64                wlan_coex_wmi_commands
                0x00419a80                wlan_coex_wmi_dispatch_entries
 .data          0x00419a98        0x0 mac_core/src/hostif/wmisvc/.output/AR6320/hw.3/lib/libwmisvc.a(wmi_svc.o)
 .data          0x00419a98       0x20 protocol/src/scan/.output/AR6320/hw.3/lib/libscan.a(wlan_dcs.o)
                0x00419a98                wlan_dcs_api_tbl
 *fill*         0x00419ab8        0x8 00
 .data          0x00419ac0      0x17c protocol/src/scan/.output/AR6320/hw.3/lib/libscan.a(wlan_scan_sch.o)
                0x00419ac0                wlan_scan_sch_internal_indir_tbl
                0x00419af0                wlan_scan_sch_api_tbl_init
                0x00419c00                wlan_scan_sch_dispatchentries
 .data          0x00419c3c        0x0 protocol/src/scan/.output/AR6320/hw.3/lib/libscan.a(wlan_scan_sm.o)
 .data          0x00419c3c       0x10 protocol/src/scan/.output/AR6320/hw.3/lib/libscan.a(wlan_scan.o)
                0x00419c3c                wlan_scan_internal_indir_tbl
 .data          0x00419c4c       0x20 protocol/src/roam/.output/AR6320/hw.3/lib/libroam.a(wlan_roam.o)
                0x00419c4c                wlan_roam_api_tbl
 .data          0x00419c6c       0x40 protocol/src/roam/.output/AR6320/hw.3/lib/libroam.a(wlan_roam_internal.o)
                0x00419c6c                wlan_roam_priv_api_tbl
 *fill*         0x00419cac        0x4 00
 .data          0x00419cb0       0x80 protocol/src/roam/.output/AR6320/hw.3/lib/libroam.a(wlan_roam_wmi.o)
                0x00419cd0                wlan_roam_dispatchentries
 .data          0x00419d30       0x70 protocol/src/pps/.output/AR6320/hw.3/lib/libpps.a(wlan_pps.o)
                0x00419d30                wlan_pps_priv_tbl
                0x00419d7c                wlan_pps_api_tbl
 .data          0x00419da0       0x58 protocol/src/stats/.output/AR6320/hw.3/lib/libstats.a(wlan_stats.o)
                0x00419da0                wlan_stats_api_tbl
 .data          0x00419df8        0x0 protocol/src/stats/.output/AR6320/hw.3/lib/libstats.a(wlan_estimate_linkspeed.o)
 .data          0x00419df8        0xc mac_core/src/soc/pcielp/.output/AR6320/hw.3/lib/libpcielp.a(pcielp_core.o)
                0x00419df8                PcielpApiTable
 .data          0x00419e04        0x0 mac_core/src/soc/pcielp/.output/AR6320/hw.3/lib/libpcielp.a(pcielp_ltr.o)
 .data          0x00419e04        0x0 mac_core/src/soc/pcielp/.output/AR6320/hw.3/lib/libpcielp.a(pcielp_dsleep.o)
 .data          0x00419e04        0x0 mac_core/src/soc/pcielp/.output/AR6320/hw.3/lib/libpcielp.a(pcielp_l1ss.o)
 .data          0x00419e04        0x0 mac_core/src/soc/pcielp/.output/AR6320/hw.3/lib/libpcielp.a(pcielp_buffering.o)
 .data          0x00419e04        0xc mac_core/src/pktlog/.output/AR6320/hw.3/lib/libpktlog.a(pktlog.o)
                0x00419e04                pktlog_api_table
 .data          0x00419e10        0xc protocol/src/tbd/.output/AR6320/hw.3/lib/libtbd.a(tbd.o)
                0x00419e10                tbd_api_func
 *fill*         0x00419e1c        0x4 00
 .data          0x00419e20      0x144 protocol/src/p2p/.output/AR6320/hw.3/lib/libp2p.a(p2p_main.o)
                0x00419e20                p2p_internal_fn
                0x00419ed0                p2p_wmi_commands
                0x00419ee4                p2p_api_fn_init
 .data          0x00419f64        0x0 protocol/src/p2p/.output/AR6320/hw.3/lib/libp2p.a(p2p_parse.o)
 .data          0x00419f64        0x0 protocol/src/p2p/.output/AR6320/hw.3/lib/libp2p.a(p2p_schedules.o)
 .data          0x00419f64        0x0 protocol/src/p2p/.output/AR6320/hw.3/lib/libp2p.a(p2p_go_ps.o)
 *fill*         0x00419f64        0xc 00
 .data          0x00419f70       0x70 protocol/src/chatter/.output/AR6320/hw.3/lib/libchatter.a(wlan_chatter.o)
                0x00419f70                wlan_chatter_wmi_commands
                0x00419f90                wlan_chatter_sm_state_info
                0x00419fb0                wlan_chatter_wmi_dispatch_entries
 .data          0x00419fe0        0x0 protocol/src/chatter/.output/AR6320/hw.3/lib/libchatter.a(wlan_coalescing.o)
 .data          0x00419fe0     0x1760 mac_core/src/retention/.output/AR6320/hw.3/lib/libretention.a(wlan_retention.o)
                0x00419fe0                qca6320_rome_mac_retention
                0x0041af60                qca6320_rome_mac_dma_rcv_en_retention
                0x0041af90                qca6320_rome_mac_hwupdate_retention
                0x0041afd0                qca6320_rome_analog_retention
 .data          0x0041b740       0x14 mac_core/src/utils/buf_chunk/.output/AR6320/hw.3/lib/libbufchunk.a(buf_chunk_api.o)
                0x0041b740                _buf_chunk_mgr_fn
 *fill*         0x0041b754        0xc 00
 .data          0x0041b760      0xdcc protocol/src/txbf/.output/AR6320/hw.3/lib/libtxbf.a(wlan_txbf.o)
                0x0041b760                _wlan_txbf_api
                0x0041b79c                wlan_cbf_table_size
                0x0041b7a0                wlan_cbf_table
                0x0041c520                wlan_txbf_dispatch_entries
 *fill*         0x0041c52c        0x4 00
 .data          0x0041c530       0x54 protocol/src/tdls/.output/AR6320/hw.3/lib/libtdls.a(wlan_tdls.o)
                0x0041c530                wlan_tdls_wmi_commands
                0x0041c544                tdls_api_table
                0x0041c560                wlan_tdls_wmi_dispatch_entries
 .data          0x0041c584        0x0 protocol/src/tdls/.output/AR6320/hw.3/lib/libtdls.a(wlan_tdls_peer.o)
 .data          0x0041c584        0x0 protocol/src/tdls/.output/AR6320/hw.3/lib/libtdls.a(wlan_tdls_uapsd.o)
 .data          0x0041c584       0x2c protocol/src/tcpip/.output/AR6320/hw.3/lib/libtcpip.a(wlan_ipv6.o)
                0x0041c584                all_nodes_mcast
                0x0041c594                ipv6_api_indir_table
                0x0041c5a0                all_routers_mcast
 .data          0x0041c5b0       0x10 mac_core/src/misc/extend_alloc/.output/AR6320/hw.3/lib/libextendalloc.a(extend_allocate.o)
                0x0041c5b0                ExtendAllocateApis
 .data          0x0041c5c0       0x2c protocol/src/thermal_mgr/.output/AR6320/hw.3/lib/libthermalmgr.a(wlan_thermal_mgr.o)
                0x0041c5e0                wlan_thermal_mgmt_wmi_dispatch_entries
 .data          0x0041c5ec        0x4 mac_core/src/wal/AR/init/.output/AR6320/hw.3/lib/ar_wal_init.a(ar_wal_init.o)
                0x0041c5ec                wal_init_api_tbl
 .data          0x0041c5f0        0x0 mac_core/src/wal/whal/init/.output/AR6320/hw.3/lib/libwhal_init.a(whal_init.o)
 .data          0x0041c5f0       0x14 mac_core/src/hostif/wdi_ipa/.output/AR6320/hw.3/lib/libwdi_ipa.a(wdi_ipa.o)
                0x0041c5f0                wdi_ipa_internal_indir_tbl
                0x0041c5fc                wdi_ipa_api_indir_tbl
 .data          0x0041c604       0x40 mac_core/src/hostif/wdi_ipa/.output/AR6320/hw.3/lib/libwdi_ipa.a(wdi_ipa_rx.o)
                0x0041c604                wdi_ipa_rx_internal_indir_tbl
                0x0041c618                wdi_ipa_rx_api_indir_tbl
 .data          0x0041c644       0x30 mac_core/src/hostif/wdi_ipa/.output/AR6320/hw.3/lib/libwdi_ipa.a(wdi_ipa_tx.o)
                0x0041c644                wdi_ipa_tx_internal_indir_tbl
                0x0041c654                wdi_ipa_tx_api_indir_tbl
 .data          0x0041c674        0x4 mac_core/src/hostif/hif/hif_dbguart/.output/AR6320/hw.3/lib/lib_hif_dbguart.a(hif_dbguart_install.o)
                0x0041c674                _hif_duart
 .data          0x0041c678      0x158 mac_core/src/hostif/hif/hif_dbguart/.output/AR6320/hw.3/lib/lib_hif_dbguart.a(hif_dbguart.o)
                0x0041c678                hif_duart_context
 .data          0x0041c7d0       0x54 protocol/src/lpi/.output/AR6320/hw.3/lib/liblpi.a(wlan_lpi.o)
                0x0041c7d0                wlan_lpi_internal_api
                0x0041c7f8                wlan_lpi_api
                0x0041c800                wlan_lpi_dispatchentries
 *fill*         0x0041c824        0xc 00
 .data          0x0041c830       0x60 protocol/src/profile/.output/AR6320/hw.3/lib/libwlanprofile.a(wlan_profile.o)
                0x0041c830                wlan_profile_api_table
                0x0041c848                wlan_profile_wmi_commands
                0x0041c860                wlan_profile_wmi_dispatch_entries
 .data          0x0041c890       0x84 protocol/src/offload/.output/AR6320/hw.3/lib/liboffload.a(wlan_arp_ns_offload.o)
                0x0041c890                wlanarpnsoffloadinternalTable
                0x0041c8c8                wlanarpnsoffloadapiTable
                0x0041c8f0                wlan_arp_ns_offload_dispatch_entries
 *fill*         0x0041c914        0xc 00
 .data          0x0041c920       0x74 protocol/src/offload/.output/AR6320/hw.3/lib/liboffload.a(wlan_beacon_tx_offload.o)
                0x0041c920                beacon_tx_offload_api
                0x0041c94c                beacon_tx_offload_wmi_commands
                0x0041c960                probe_rsp_tx_offload_api
                0x0041c968                tx_status_map
 *fill*         0x0041c994        0xc 00
 .data          0x0041c9a0       0x3c protocol/src/offload/.output/AR6320/hw.3/lib/liboffload.a(wlan_network_list_offload.o)
                0x0041c9a0                wlan_nlo_internal_api
                0x0041c9c4                wlan_nlo_api
                0x0041c9d0                wlan_nlo_dispatch_entries
 .data          0x0041c9dc       0x58 protocol/src/offload/.output/AR6320/hw.3/lib/liboffload.a(wlan_swbmiss_offload.o)
                0x0041c9dc                wlan_swbmiss_offload_priv_tbl
                0x0041c9fc                wlan_swbmiss_offload_api_tbl
 .data          0x0041ca34       0x4c protocol/src/framegen/.output/AR6320/hw.3/lib/libframegen.a(wlan_framegen.o)
                0x0041ca34                frmGenInternalIndirectionTable
                0x0041ca38                frmGenApiIndirectionTable
 .data          0x0041ca80        0x0 protocol/src/offload_mgr/stub/.output/AR6320/hw.3/lib/liboffload_mgr_stub.a(offload_mgr_stub.o)
 .data          0x0041ca80        0x0 protocol/src/offload_mgr/stub/.output/AR6320/hw.3/lib/liboffload_mgr_stub.a(wlan_wow_stub.o)
 .data          0x0041ca80        0x8 mac_core/src/misc/codeswap/.output/AR6320/hw.3/lib/libcodeswap.a(codeswap.o)
                0x0041ca80                __CODESWAP_INFO_codeswap_nonres_fn
 .data          0x0041ca88        0x0 mac_core/src/misc/codeswap/.output/AR6320/hw.3/lib/libcodeswap.a(codeswap_dmamgr.o)
 .data          0x0041ca88        0x0 protocol/src/scan/stub/.output/AR6320/hw.3/lib/libscan_stub.a(wlan_scan_sch_stub.o)
 *fill*         0x0041ca88        0x8 00
 .data          0x0041ca90       0xac protocol/src/blockack/.output/AR6320/hw.3/lib/libblockack.a(wlan_blockack.o)
                0x0041ca90                blockack_internal_table
                0x0041cac8                wlan_ba_wmi_commands
                0x0041cadc                blockack_api_table
                0x0041cb00                wlan_ba_wmi_dispatch_entries
 .data          0x0041cb3c        0x0 protocol/src/init/stub/.output/AR6320/hw.3/lib/libwlaninit_stub.a(wlan_buf_stub.o)
 .data          0x0041cb3c        0x0 protocol/src/init/stub/.output/AR6320/hw.3/lib/libwlaninit_stub.a(wlan_dev_stub.o)
 .data          0x0041cb3c        0x0 protocol/src/init/stub/.output/AR6320/hw.3/lib/libwlaninit_stub.a(wlan_peer_stub.o)
 .data          0x0041cb3c        0x0 mac_core/src/data_txrx/stub/.output/AR6320/hw.3/lib/libdatatxrx_stub.a(ieee80211_hdr_stub.o)
 .data          0x0041cb3c        0x0 protocol/src/vdev_mgr/stub/.output/AR6320/hw.3/lib/libvdevmgr_stub.a(wlan_vdev_stub.o)
 .data          0x0041cb3c        0x0 protocol/src/mgmt_txrx/stub/.output/AR6320/hw.3/lib/libmgmttxrx_stub.a(wlan_mgmt_local_txrx_stub.o)
 .data          0x0041cb3c        0x0 protocol/src/mgmt_txrx/stub/.output/AR6320/hw.3/lib/libmgmttxrx_stub.a(ieee_mgmt_rx_stub.o)
 .data          0x0041cb3c        0x0 protocol/src/mgmt/stub/.output/AR6320/hw.3/lib/libmgmt_stub.a(wlan_beacon_stub.o)
 .data          0x0041cb3c        0x0 protocol/src/mgmt/stub/.output/AR6320/hw.3/lib/libmgmt_stub.a(wlan_ie_utils_stub.o)
 .data          0x0041cb3c        0x0 protocol/src/p2p/stub/.output/AR6320/hw.3/lib/libp2p_stub.a(p2p_stub.o)
 .data          0x0041cb3c       0x58 mac_core/src/wal/whal/reset/.output/AR6320/hw.3/lib/ar6000_cal.a(ar6320_cal.o)
 *fill*         0x0041cb94        0xc 00
 .data          0x0041cba0      0x120 mac_core/src/wal/whal/reset/.output/AR6320/hw.3/lib/ar6000_cal.a(ar6320_rxdc_cal.o)
                0x0041cc80                G_RATIO_BQ1_MAN
                0x0041cc90                G_RATIO_BQ1_EXP_NEG
                0x0041cca0                G_RATIO_TIA_MAN
                0x0041ccb0                G_RATIO_TIA_EXP_NEG
 .data          0x0041ccc0      0x430 mac_core/src/wal/whal/reset/.output/AR6320/hw.3/lib/ar6000_cal.a(ar6320_iq_cal.o)
                0x0041cd50                ReverseSeq_128
                0x0041cf50                sin_table
                0x0041d060                cl_gain_mod_limits
                0x0041d070                cl_dac_val_tab
 .data          0x0041d0f0       0xe4 mac_core/src/wal/whal/reset/.output/AR6320/hw.3/lib/ar6000_cal.a(ar6320_pef_cal.o)
                0x0041d0f0                whalPefCalIndirectionTable
                0x0041d120                pefRefCoef
 *fill*         0x0041d1d4        0xc 00
 .data          0x0041d1e0       0x3c protocol/src/unit_test/.output/AR6320/hw.3/lib/libunittest.a(unit_test.o)
                0x0041d1e0                unit_test_internal_table
                0x0041d1f8                unit_test_api_table
                0x0041d210                wlan_unit_test_dispatchentries
 .data          0x0041d21c       0x14 protocol/src/frameparse/.output/AR6320/hw.3/lib/libframeparse.a(wlan_frameparse.o)
                0x0041d21c                frmParseApiIndirectionTable
 .data          0x0041d230       0x4c protocol/src/nan/.output/AR6320/hw.3/lib/libnanwlan.a(wlan_nan.o)
                0x0041d244                _wlan_nan_api
                0x0041d250                _wlan_nan
                0x0041d270                wlan_nan_dispatch_entries
 .data          0x0041d27c        0x0 protocol/src/nan/.output/AR6320/hw.3/lib/libnanwlan.a(wlan_nan_sync.o)
 .data          0x0041d27c       0xcc protocol/src/nan/.output/AR6320/hw.3/lib/libnanwlan.a(wlan_nan_mac.o)
                0x0041d27c                _wlan_nan_mac
 .data          0x0041d348       0x44 protocol/src/nan/.output/AR6320/hw.3/lib/libnanwlan.a(wlan_nan_publish.o)
                0x0041d348                _wlan_nan_pub
 .data          0x0041d38c       0x40 protocol/src/nan/.output/AR6320/hw.3/lib/libnanwlan.a(wlan_nan_subscribe.o)
                0x0041d38c                _wlan_nan_sub
 .data          0x0041d3cc       0x2c protocol/src/nan/.output/AR6320/hw.3/lib/libnanwlan.a(wlan_nan_ctrl.o)
                0x0041d3cc                _wlan_nan_ctrl
 .data          0x0041d3f8       0x1c protocol/src/nan/.output/AR6320/hw.3/lib/libnanwlan.a(wlan_nan_de_if.o)
                0x0041d3f8                g_dbg_nan_print
                0x0041d3fc                g_nan_de_hw_dummy_frm_war
                0x0041d400                g_wlan_nan_vdev_idx
                0x0041d408                wlan_nan_cluster_addr
                0x0041d410                wlan_nan_wfa_oui
 .data          0x0041d414        0x0 protocol/src/nan/.output/AR6320/hw.3/lib/libnanwlan.a(wlan_nan_rx.o)
 .data          0x0041d414       0x38 protocol/src/nan/.output/AR6320/hw.3/lib/libnanwlan.a(wlan_nan_match.o)
                0x0041d414                _wlan_nan_match
 .data          0x0041d44c       0x34 protocol/src/nan/.output/AR6320/hw.3/lib/libnanwlan.a(wconn_util_list.o)
                0x0041d44c                _wconn_util_list
 .data          0x0041d480      0x110 protocol/src/nan/.output/AR6320/hw.3/lib/libnanwlan.a(wlan_nan_attr.o)
                0x0041d480                _wlan_nan_attr
 .data          0x0041d590       0x28 protocol/src/nan/.output/AR6320/hw.3/lib/libnanwlan.a(wlan_nan_bloom_filter.o)
                0x0041d590                _wlan_nan_bf
 .data          0x0041d5b8        0x4 protocol/src/nan/.output/AR6320/hw.3/lib/libnanwlan.a(wlan_nan_crc.o)
                0x0041d5b8                _wlan_nan_crc
 .data          0x0041d5bc        0x8 protocol/src/nan/.output/AR6320/hw.3/lib/libnanwlan.a(wlan_nan_log.o)
                0x0041d5bc                _wlan_nan_log
 .data          0x0041d5c4        0x4 protocol/src/nan/.output/AR6320/hw.3/lib/libnanwlan.a(wlan_nan_time.o)
                0x0041d5c4                _wlan_nan_time
 .data          0x0041d5c8        0x8 protocol/src/nan/.output/AR6320/hw.3/lib/libnanwlan.a(wlan_nan_tlv.o)
                0x0041d5c8                _wlan_nan_tlv
 .data          0x0041d5d0        0x0 protocol/src/nan/.output/AR6320/hw.3/lib/libnanwlan.a(wlan_nan_util.o)
 .data          0x0041d5d0        0x0 protocol/src/nan/.output/AR6320/hw.3/lib/libnanwlan.a(wlan_nan_beacon_ie.o)
 .data          0x0041d5d0        0x0 protocol/src/nan/.output/AR6320/hw.3/lib/libnanwlan.a(wlan_nan_beacon_rx.o)
 .data          0x0041d5d0        0x0 protocol/src/nan/.output/AR6320/hw.3/lib/libnanwlan.a(wlan_nan_beacon_tx.o)
 .data          0x0041d5d0       0x30 protocol/src/nan/.output/AR6320/hw.3/lib/libnanwlan.a(wlan_nan_cluster_sm.o)
 .data          0x0041d600        0x0 protocol/src/nan/.output/AR6320/hw.3/lib/libnanwlan.a(wlan_nan_scan.o)
 .data          0x0041d600        0x0 protocol/src/nan/.output/AR6320/hw.3/lib/libnanwlan.a(wlan_nan_sched.o)
 .data          0x0041d600        0x0 protocol/src/nan/.output/AR6320/hw.3/lib/libnanwlan.a(sha2.o)
 .data          0x0041d600        0x8 protocol/src/extscan/.output/AR6320/hw.3/lib/libextscan.a(wlan_extscan_main.o)
                0x0041d600                wlan_extscan_api_table
 .data          0x0041d608        0x0 protocol/src/extscan/.output/AR6320/hw.3/lib/libextscan.a(wlan_extscan_wlan_change.o)
 *fill*         0x0041d608        0x8 00
 .data          0x0041d610       0x80 protocol/src/extscan/.output/AR6320/hw.3/lib/libextscan.a(wlan_extscan_wmi.o)
                0x0041d630                wlan_extscan_dispatchentries
 .data          0x0041d690        0x0 protocol/src/extscan/.output/AR6320/hw.3/lib/libextscan.a(wlan_extscan_bssid.o)
 .data          0x0041d690        0x0 protocol/src/extscan/.output/AR6320/hw.3/lib/libextscan.a(wlan_extscan_bucket.o)
 .data          0x0041d690        0x0 protocol/src/extscan/.output/AR6320/hw.3/lib/libextscan.a(wlan_extscan_hotlist.o)
 .data          0x0041d690       0x78 mac_core/src/wal/AR/rtt/.output/AR6320/hw.3/lib/ar_wal_rtt.a(wal_rtt.o)
                0x0041d690                wal_rtt_int_fn_tbl
                0x0041d6a4                wal_rtt_api_fn_tbl
                0x0041d6e4                rtt_bw_wmi_bw
                0x0041d6f0                rtt_chain_to_no
                0x0041d700                bw_size
 .data          0x0041d708        0x0 mac_core/patch/AR6320/v3/.output/AR6320/hw.3/lib/lib_maccore_patches.a(install_patches.o)
 .data          0x0041d708        0x0 mac_core/patch/AR6320/v3/.output/AR6320/hw.3/lib/lib_maccore_patches.a(whal_install_patches.o)
 .data          0x0041d708        0x0 mac_core/patch/AR6320/v3/.output/AR6320/hw.3/lib/lib_maccore_patches.a(wal_install_patches.o)
 .data          0x0041d708        0x0 mac_core/patch/AR6320/v3/.output/AR6320/hw.3/lib/lib_maccore_patches.a(ar_wal_connection_pause_patch.o)
 .data          0x0041d708        0x0 mac_core/patch/AR6320/v3/.output/AR6320/hw.3/lib/lib_maccore_patches.a(ar_wal_phy_dev_patch.o)
 .data          0x0041d708        0x4 mac_core/patch/AR6320/v3/.output/AR6320/hw.3/lib/lib_maccore_patches.a(cmnos_retention_patch.o)
                0x0041d708                mem_deep_slp_en
 .data          0x0041d70c        0x0 mac_core/patch/AR6320/v3/.output/AR6320/hw.3/lib/lib_maccore_patches.a(ar_wal_tx_de_patch.o)
 .data          0x0041d70c        0x0 mac_core/patch/AR6320/v3/.output/AR6320/hw.3/lib/lib_maccore_patches.a(ar_wal_local_frames_wifi_ip01_patch.o)
 .data          0x0041d70c        0x0 mac_core/patch/AR6320/v3/.output/AR6320/hw.3/lib/lib_maccore_patches.a(pool_mgr_patch.o)
 .data          0x0041d70c        0xc mac_core/patch/AR6320/v3/.output/AR6320/hw.3/lib/lib_maccore_patches.a(ar_wal_rx_patch.o)
                0x0041d70c                g_dbg_burst_vivo_time_period
                0x0041d710                g_dbg_burst_vivo_thresh
                0x0041d714                g_dbg_local_bufs_min
 .data          0x0041d718        0x0 mac_core/patch/AR6320/v3/.output/AR6320/hw.3/lib/lib_maccore_patches.a(ar_wal_rx_offload_patch.o)
 .data          0x0041d718        0x0 mac_core/patch/AR6320/v3/.output/AR6320/hw.3/lib/lib_maccore_patches.a(ar_wal_rx_common_patch.o)
 .data          0x0041d718        0x8 mac_core/patch/AR6320/v3/.output/AR6320/hw.3/lib/lib_maccore_patches.a(ar_wal_vdev_patch.o)
                0x0041d718                g_sta_kickout_th
                0x0041d71c                g_cmn_kickout_th
 .data          0x0041d720        0x0 mac_core/patch/AR6320/v3/.output/AR6320/hw.3/lib/lib_maccore_patches.a(ar_tx_q_enque_patch.o)
 .data          0x0041d720       0x14 mac_core/patch/AR6320/v3/.output/AR6320/hw.3/lib/lib_maccore_patches.a(tx_sched_patch.o)
                0x0041d720                g_dbg_burst_duration
                0x0041d724                g_dbg_delay_ack
                0x0041d728                g_dbg_aggr_timeout
                0x0041d72c                g_dbg_aggr_mpdu_limit
                0x0041d730                g_dbg_aggr_mpdu_len
 *fill*         0x0041d734        0x4 00
 .data          0x0041d738       0x30 mac_core/patch/AR6320/v3/.output/AR6320/hw.3/lib/lib_maccore_patches.a(ar_wal_tx_send_patch.o)
                0x0041d738                g_dbg_burstampdutime_auto
                0x0041d73c                g_dbg_burst_txoplimit
                0x0041d740                g_dbg_legacy_bursting
                0x0041d744                g_bb_rx_sounding_save_value
                0x0041d748                g_tx_ba_size_check_ampdu_size
                0x0041d74c                g_dbg_set_msdu_retry_bit
                0x0041d750                g_dbg_tbtt_prot_margin
                0x0041d754                g_dbg_burst_water_mark
                0x0041d758                g_dbg_max_ppdu_airtime_89mcs
                0x0041d75c                g_dbg_max_ppdu_airtime_othermcs
                0x0041d760                g_dbg_burst_txoplimit_per_bw
 .data          0x0041d768        0x0 mac_core/patch/AR6320/v3/.output/AR6320/hw.3/lib/lib_maccore_patches.a(ar_wal_chain_mgmt_patch.o)
 .data          0x0041d768        0x0 mac_core/patch/AR6320/v3/.output/AR6320/hw.3/lib/lib_maccore_patches.a(ar_wal_peer_patch.o)
 .data          0x0041d768        0x0 mac_core/patch/AR6320/v3/.output/AR6320/hw.3/lib/lib_maccore_patches.a(ar600P_txbf_patch.o)
 .data          0x0041d768        0x0 mac_core/patch/AR6320/v3/.output/AR6320/hw.3/lib/lib_maccore_patches.a(wal_pps_patch.o)
 .data          0x0041d768        0xc mac_core/patch/AR6320/v3/.output/AR6320/hw.3/lib/lib_maccore_patches.a(ar_xmit_wifi_ip01_patch.o)
 .data          0x0041d774        0x4 mac_core/patch/AR6320/v3/.output/AR6320/hw.3/lib/lib_maccore_patches.a(ar_wal_channel_change_patch.o)
                0x0041d774                g_dbg_reset_enable
 .data          0x0041d778        0x6 mac_core/patch/AR6320/v3/.output/AR6320/hw.3/lib/lib_maccore_patches.a(ar_wal_rc_patch.o)
                0x0041d778                g_dbg_legacy_rate_retries
                0x0041d77c                g_rc_rate_thr_amsdu_low
                0x0041d77d                g_rc_rate_thr_no_amsdu
 .data          0x0041d77e        0x0 mac_core/patch/AR6320/v3/.output/AR6320/hw.3/lib/lib_maccore_patches.a(wal_rtt_patch.o)
 .data          0x0041d77e        0x0 mac_core/patch/AR6320/v3/.output/AR6320/hw.3/lib/lib_maccore_patches.a(whal_rtt_patch.o)
 *fill*         0x0041d77e        0x2 00
 .data          0x0041d780        0x8 mac_core/patch/AR6320/v3/.output/AR6320/hw.3/lib/lib_maccore_patches.a(dbglog_patch.o)
                0x0041d780                g_dbg_m_id_max
                0x0041d784                wlanfw_diag_version
 .data          0x0041d788        0x0 mac_core/patch/AR6320/v3/.output/AR6320/hw.3/lib/lib_maccore_patches.a(ar600p_beacon_patch.o)
 .data          0x0041d788        0x4 mac_core/patch/AR6320/v3/.output/AR6320/hw.3/lib/lib_maccore_patches.a(ar6000_power_patch.o)
                0x0041d788                g_dsrMacAwakeEnable
 .data          0x0041d78c        0x0 mac_core/patch/AR6320/v3/.output/AR6320/hw.3/lib/lib_maccore_patches.a(ar6000_interrupt_patch.o)
 .data          0x0041d78c        0x4 mac_core/patch/AR6320/v3/.output/AR6320/hw.3/lib/lib_maccore_patches.a(cmnos_intrinf_patch.o)
                0x0041d78c                g_pKernelStack
 .data          0x0041d790        0x0 mac_core/patch/AR6320/v3/.output/AR6320/hw.3/lib/lib_maccore_patches.a(patch_pcie.o)
 .data          0x0041d790       0x38 mac_core/patch/AR6320/v3/.output/AR6320/hw.3/lib/lib_maccore_patches.a(patch_usb.o)
                0x0041d790                gpio_usb_vbus_intr
 .data          0x0041d7c8        0x0 mac_core/patch/AR6320/v3/.output/AR6320/hw.3/lib/lib_maccore_patches.a(wal_beacon_patch.o)
 .data          0x0041d7c8        0x0 mac_core/patch/AR6320/v3/.output/AR6320/hw.3/lib/lib_maccore_patches.a(wal_swba_patch.o)
 .data          0x0041d7c8        0xc mac_core/patch/AR6320/v3/.output/AR6320/hw.3/lib/lib_maccore_patches.a(ar600P_retention_patch.o)
                0x0041d7c8                g_dbg_reg_wr_track_enabled
                0x0041d7cc                dyn_bw
                0x0041d7d0                g_dbg_reg_wr_track_max
 .data          0x0041d7d4        0x0 mac_core/patch/AR6320/v3/.output/AR6320/hw.3/lib/lib_maccore_patches.a(ar_wal_rmc_patch.o)
 .data          0x0041d7d4        0x0 mac_core/patch/AR6320/v3/.output/AR6320/hw.3/lib/lib_maccore_patches.a(whal_rgc_patch.o)
 .data          0x0041d7d4        0xc mac_core/patch/AR6320/v3/.output/AR6320/hw.3/lib/lib_maccore_patches.a(patch_hif_ce.o)
                0x0041d7d4                ce_large_pkt_size
                0x0041d7d8                g_dbg_ce_infinite_tries
                0x0041d7dc                patch_HIF_CE_max_push_attempts
 .data          0x0041d7e0        0x0 mac_core/patch/AR6320/v3/.output/AR6320/hw.3/lib/lib_maccore_patches.a(patch_whal_coex.o)
 .data          0x0041d7e0        0x4 mac_core/patch/AR6320/v3/.output/AR6320/hw.3/lib/lib_maccore_patches.a(patch_whal_mws.o)
 .data          0x0041d7e4        0x0 mac_core/patch/AR6320/v3/.output/AR6320/hw.3/lib/lib_maccore_patches.a(patch_whal_mci.o)
 .data          0x0041d7e4        0x0 mac_core/patch/AR6320/v3/.output/AR6320/hw.3/lib/lib_maccore_patches.a(ar_wal_tx_dm_patch.o)
 .data          0x0041d7e4       0x14 mac_core/patch/AR6320/v3/.output/AR6320/hw.3/lib/lib_maccore_patches.a(patch_copy_engine.o)
                0x0041d7e4                patch_CE_per_engine_iteration_limit
                0x0041d7e8                patch_CE_per_engine_max_reap
 .data          0x0041d7f8        0x0 mac_core/patch/AR6320/v3/.output/AR6320/hw.3/lib/lib_maccore_patches.a(wal_concurrency_patch.o)
 .data          0x0041d7f8        0x0 mac_core/patch/AR6320/v3/.output/AR6320/hw.3/lib/lib_maccore_patches.a(ar_wal_tdls_patch.o)
 .data          0x0041d7f8        0x0 mac_core/patch/AR6320/v3/.output/AR6320/hw.3/lib/lib_maccore_patches.a(cmnos_timer_patch.o)
 .data          0x0041d7f8        0x0 mac_core/patch/AR6320/v3/.output/AR6320/hw.3/lib/lib_maccore_patches.a(ar_wal_tx_hcm_patch.o)
 .data          0x0041d7f8        0x0 mac_core/patch/AR6320/v3/.output/AR6320/hw.3/lib/lib_maccore_patches.a(ar_wal_tdls_conn_table_patch.o)
 .data          0x0041d7f8        0x0 mac_core/patch/AR6320/v3/.output/AR6320/hw.3/lib/lib_maccore_patches.a(ar600P_recv_patch.o)
 .data          0x0041d7f8        0x4 mac_core/patch/AR6320/v3/.output/AR6320/hw.3/lib/lib_maccore_patches.a(patch_gpio.o)
                0x0041d7f8                UART_RX_gpio_config_val
 *fill*         0x0041d7fc        0x4 00
 .data          0x0041d800       0x30 mac_core/patch/AR6320/v3/.output/AR6320/hw.3/lib/lib_maccore_patches.a(os_install_wlan_extra_memory_patches.o)
                0x0041d800                g_patch_extra_dram_num
                0x0041d810                g_patch_extra_dram_arenas
 .data          0x0041d830        0x0 mac_core/patch/AR6320/v3/.output/AR6320/hw.3/lib/lib_maccore_patches.a(patch_athos_main.o)
 .data          0x0041d830        0x0 mac_core/patch/AR6320/v3/.output/AR6320/hw.3/lib/lib_maccore_patches.a(cmnos_misc_patch.o)
 .data          0x0041d830        0x0 mac_core/patch/AR6320/v3/.output/AR6320/hw.3/lib/lib_maccore_patches.a(sha1_patch.o)
 .data          0x0041d830        0x0 mac_core/patch/AR6320/v3/.output/AR6320/hw.3/lib/lib_maccore_patches.a(qheap_patch.o)
 .data          0x0041d830        0x0 mac_core/patch/AR6320/v3/.output/AR6320/hw.3/lib/lib_maccore_patches.a(patch_hif_sdio.o)
 .data          0x0041d830        0x0 mac_core/patch/AR6320/v3/.output/AR6320/hw.3/lib/lib_maccore_patches.a(ar_wal_txbf_patch.o)
 .data          0x0041d830       0x14 mac_core/patch/AR6320/v3/.output/AR6320/hw.3/lib/lib_maccore_patches.a(wmi_dbgloghook_patch.o)
                0x0041d830                dbglog_dispatch_tbl
 .data          0x0041d844        0x0 mac_core/patch/AR6320/v3/.output/AR6320/hw.3/lib/lib_maccore_patches.a(cmnos_allocram_patch.o)
 *fill*         0x0041d844        0xc 00
 .data          0x0041d850       0xf4 protocol/src/extwow/.output/AR6320/hw.3/lib/libextwow.a(wlan_extwow.o)
                0x0041d850                wlanExtwowInternalIndirectionTable
                0x0041d8e4                wlanExtwowApiIndirectionTable
                0x0041d920                wlan_extwow_dispatch_entries
 .data          0x0041d944        0x0 halphy/patch/AR6320/v3/.output/AR6320/hw.3/lib/lib_halphy_patches.a(halphy_install_patches.o)
 .data          0x0041d944        0x0 halphy/patch/AR6320/v3/.output/AR6320/hw.3/lib/lib_halphy_patches.a(ar6000_nf_cal_patch.o)
 *fill*         0x0041d944        0xc 00
 .data          0x0041d950      0x108 halphy/patch/AR6320/v3/.output/AR6320/hw.3/lib/lib_halphy_patches.a(ar6000_ani_patch.o)
                0x0041d950                allow_ani
                0x0041d960                firstep_table
                0x0041d980                cycpwr_thr1_table
                0x0041d990                ofdm_level_table
                0x0041da10                cck_level_table
 .data          0x0041da58        0x0 halphy/patch/AR6320/v3/.output/AR6320/hw.3/lib/lib_halphy_patches.a(ar6320_ini_patch.o)
 *fill*         0x0041da58        0x8 00
 .data          0x0041da60       0x7f halphy/patch/AR6320/v3/.output/AR6320/hw.3/lib/lib_halphy_patches.a(ar6320_tpc_config_patch.o)
                0x0041da60                attenSettings
                0x0041da80                attenSteps
                0x0041daa0                atten_table_2g_chain0
                0x0041dab0                atten_table_2g_chain1
                0x0041dac0                atten_table_5g_chain0
                0x0041dad0                atten_table_5g_chain1
 *fill*         0x0041dadf        0x1 00
 .data          0x0041dae0       0x31 halphy/patch/AR6320/v3/.output/AR6320/hw.3/lib/lib_halphy_patches.a(ar6320_eeprom_patch.o)
                0x0041dae0                PRI20_FIR2_ATTN
                0x0041daf0                vmodeGpioSelect
 *fill*         0x0041db11        0xf 00
 .data          0x0041db20       0x5e halphy/patch/AR6320/v3/.output/AR6320/hw.3/lib/lib_halphy_patches.a(ar600P_reset_patch.o)
                0x0041db24                g_dbg_wait_reg_loop_count
                0x0041db28                g_dbg_wait_reg_mode
                0x0041db30                patch_rfModeArray
                0x0041db70                patch_bandArray
 *fill*         0x0041db7e        0x2 00
 .data          0x0041db80        0x4 halphy/patch/AR6320/v3/.output/AR6320/hw.3/lib/lib_halphy_patches.a(ar6000_paprd_patch.o)
                0x0041db80                g_forced_dac_gain
                0x0041db82                dynamicsqLimit
                0x0041db83                first_DPD_call
 .data          0x0041db84        0x0 halphy/patch/AR6320/v3/.output/AR6320/hw.3/lib/lib_halphy_patches.a(ar6000_phy_patch.o)
 .data          0x0041db84        0x0 /cad/tensilica/chips/peregrine/RE-2013.3-linux/peregrine/xtensa-elf/lib/xcc//libgcc.a(_divsi3.o)
 .data          0x0041db84        0x0 /cad/tensilica/chips/peregrine/RE-2013.3-linux/peregrine/xtensa-elf/lib/xcc//libgcc.a(_modsi3.o)
 .data          0x0041db84        0x0 /cad/tensilica/chips/peregrine/RE-2013.3-linux/peregrine/xtensa-elf/lib/xcc//libgcc.a(_udivsi3.o)
 .data          0x0041db84        0x0 /cad/tensilica/chips/peregrine/RE-2013.3-linux/peregrine/xtensa-elf/lib/xcc//libgcc.a(_umodsi3.o)
 .data          0x0041db84        0x0 /cad/tensilica/chips/peregrine/RE-2013.3-linux/peregrine/xtensa-elf/lib/xcc//libgcc.a(_ashldi3.o)
 .data          0x0041db84        0x0 /cad/tensilica/chips/peregrine/RE-2013.3-linux/peregrine/xtensa-elf/lib/xcc//libgcc.a(_ashrdi3.o)
 .data          0x0041db84        0x0 /cad/tensilica/chips/peregrine/RE-2013.3-linux/peregrine/xtensa-elf/lib/xcc//libgcc.a(_lshrdi3.o)
 .data          0x0041db84        0x0 /cad/tensilica/chips/peregrine/RE-2013.3-linux/peregrine/xtensa-elf/lib/xcc//libgcc.a(_muldf3.o)
 .data          0x0041db84        0x0 /cad/tensilica/chips/peregrine/RE-2013.3-linux/peregrine/xtensa-elf/lib/xcc//libgcc.a(_fixunsdfsi.o)
 .data          0x0041db84        0x0 /cad/tensilica/chips/peregrine/RE-2013.3-linux/peregrine/xtensa-elf/lib/xcc//libgcc.a(_floatsidf.o)
 .data          0x0041db84        0x0 /cad/tensilica/chips/peregrine/RE-2013.3-linux/peregrine/xtensa-elf/lib/xcc//libgcc.a(_muldi3.o)
 .data          0x0041db84        0x0 /cad/tensilica/chips/peregrine/RE-2013.3-linux/peregrine/xtensa-elf/lib/xcc//libgcc.a(_udivdi3.o)
 .data          0x0041db84        0x0 /cad/tensilica/chips/peregrine/RE-2013.3-linux/peregrine/xtensa-elf/lib/xcc//libgcc.a(_umoddi3.o)
 .data          0x0041db84        0x0 /cad/tensilica/chips/peregrine/RE-2013.3-linux/peregrine/xtensa-elf/lib/xcc//libgcc.a(lib2funcs.o)
 .data          0x0041db84       0x10 protocol/src/tcpip/.output/AR6320/hw.3/lib/libtcpip.a(wlan_pb.o)
                0x0041db84                wlanPbApiIndirectionTable
 .data          0x0041db94       0x14 protocol/src/tcpip/.output/AR6320/hw.3/lib/libtcpip.a(wlan_tcpip.o)
                0x0041db94                wlanTcpipApiIndirectionTable
 .data          0x0041dba8       0x14 mac_core/src/misc/serport/.output/AR6320/hw.3/lib/libserport.a(serial_if.o)
                0x0041dba8                g_SerpIndirectionTable
 .data          0x0041dbbc        0x0 mac_core/src/misc/serport/.output/AR6320/hw.3/lib/libserport.a(serial_port.o)
 *fill*         0x0041dbbc        0x4 00
 .data          0x0041dbc0       0xa0 mac_core/src/misc/uartserp/.output/AR6320/hw.3/lib/libuartserp.a(uartserp.o)
                0x0041dbc0                g_UartSerpIndirectionTable
                0x0041dc00                g_Uart0DefaultPins
                0x0041dc20                g_Uart1DefaultPins
                0x0041dc40                g_Uart2DefaultPins
 .data          0x0041dc60       0x88 mac_core/src/wal/AR/nan/.output/AR6320/hw.3/lib/ar_wal_nan.a(wal_nan_mac.o)
                0x0041dc60                g_wal_nan_mac_ctxt
                0x0041dcac                g_dbg_nan_mac_dwcm_en
                0x0041dcb0                _wal_nan_mac_fn
 *fill*         0x0041dce8        0x8 00
 .data          0x0041dcf0      0x110 mac_core/src/wal/whal/rtt/.output/AR6320/hw.3/lib/whal_rtt.a(whal_rtt.o)
                0x0041dcf0                whal_rtt_internal_fn_tbl
                0x0041dd08                chain_info_tbl_addr
                0x0041dd10                chain_info_tbl_data
                0x0041dd20                preamble_duration
                0x0041dd30                legacy_tm_ack_rx_time
                0x0041dd50                ACK_TIME_MCS_0
                0x0041dd58                pre_bw_to_bw
                0x0041dd60                ACK_TIME_MCS_1
                0x0041dd68                ACK_TIME_MCS_3
                0x0041dd70                rtt_tx_delay_wb294i
                0x0041dd80                rtt_rx_delay_wb294i
                0x0041dda0                rtt_rx_chain_0x1_5G_adjust
                0x0041ddb0                rtt_rx_chain_0x1_2G_adjust
                0x0041ddc0                rtt_rx_chain_0x2_5G_adjust
                0x0041ddd0                rtt_rx_chain_0x2_2G_adjust
                0x0041dde0                rtt_rx_spur_enable_adjust
                0x0041ddf0                packet_length
 *(.data.*)
 *(.gnu.linkonce.d.*)
 *(.data1)
 *(.sdata)
 *(.sdata.*)
 *(.gnu.linkonce.s.*)
 *(.sdata2)
 *(.sdata2.*)
 *(.gnu.linkonce.s2.*)
 *(.jcr)
 *(.eh_frame)
 .eh_frame      0x0041de00       0x24 /cad/tensilica/chips/peregrine/RE-2013.3-linux/peregrine/xtensa-elf/lib/xcc//libgcc.a(_udivdi3.o)
 .eh_frame      0x0041de24       0x14 /cad/tensilica/chips/peregrine/RE-2013.3-linux/peregrine/xtensa-elf/lib/xcc//libgcc.a(_umoddi3.o)
                                 0x24 (size before relaxing)
 *crtbegin.o(.ctors)
 *(EXCLUDE_FILE(*crtend.o) .ctors)
 *(SORT(.ctors.*))
 *(.ctors)
 *crtbegin.o(.dtors)
 *(EXCLUDE_FILE(*crtend.o) .dtors)
 *(SORT(.dtors.*))
 *(.dtors)
                0x0041de38                __XT_EXCEPTION_DESCS__ = ABSOLUTE (.)
 *(.xt_except_desc)
 *(.gnu.linkonce.h.*)
                0x0041de38                __XT_EXCEPTION_DESCS_END__ = ABSOLUTE (.)
 *(.xt_except_desc_end)
 *(.dynamic)
 *(.gnu.version_d)
                0x0041de38                _data_end = ABSOLUTE (.)

.bss            0x0041de40     0x7280
                0x0041de40                . = ALIGN (0x8)
                0x0041de40                _bss_start = ABSOLUTE (.)
 *(.dynsbss)
 *(.sbss)
 *(.sbss.*)
 *(.gnu.linkonce.sb.*)
 *(.scommon)
 *(.sbss2)
 *(.sbss2.*)
 *(.gnu.linkonce.sb2.*)
 *(.dynbss)
 *(.bss)
 .bss           0x0041de40        0x0 mac_core/patch/AR6320/v3/.output/AR6320/hw.3/obj/app_start.o
 .bss           0x0041de40       0x88 protocol/src/init/.output/AR6320/hw.3/lib/libwlaninit.a(wlan_init.o)
                0x0041de40                g_extra_dram_arenas
                0x0041de44                g_extra_dram_cnt
                0x0041de48                g_extra_pcie_axi_arenas
                0x0041de4c                g_extra_pcie_axi_cnt
                0x0041de50                hi_htc_version
                0x0041de54                gp_wlan_ps_ap_create_tim_fn
                0x0041de60                g_ac_to_htc_ep
                0x0041de70                g_htc_ep_to_ac
 .bss           0x0041dec8        0x4 protocol/src/init/.output/AR6320/hw.3/lib/libwlaninit.a(wlan_peer.o)
                0x0041dec8                _g_dbg_notif_delete_peer_cnt
 .bss           0x0041decc        0x0 protocol/src/init/.output/AR6320/hw.3/lib/libwlaninit.a(umac_init.o)
 .bss           0x0041decc        0x0 protocol/src/init/.output/AR6320/hw.3/lib/libwlaninit.a(wlan_bss.o)
 .bss           0x0041decc        0x0 protocol/src/init/.output/AR6320/hw.3/lib/libwlaninit.a(wlan_buf.o)
 .bss           0x0041decc        0x0 protocol/src/init/.output/AR6320/hw.3/lib/libwlaninit.a(wlan_dev.o)
 .bss           0x0041decc        0x0 mac_core/src/mac_core_init/.output/AR6320/hw.3/lib/libmaccoreinit.a(mac_core_init.o)
 .bss           0x0041decc        0x0 protocol/src/cfg/.output/AR6320/hw.3/lib/libcfg.a(cfg.o)
 .bss           0x0041decc        0x8 mac_core/src/wal/AR/coex/.output/AR6320/hw.3/lib/wal_coex.a(wal_coex.o)
                0x0041decc                pCoexDev
 .bss           0x0041ded4      0x14c mac_core/src/wal/AR/coex/.output/AR6320/hw.3/lib/wal_coex.a(wal_btcoex.o)
                0x0041ded4                pBtCoexDev
                0x0041ded8                walBtCoexApiTable
 .bss           0x0041e020      0x110 mac_core/src/wal/AR/coex/.output/AR6320/hw.3/lib/wal_coex.a(wal_mwscoex.o)
                0x0041e020                pMwsCoexDev
                0x0041e024                walMwsCoexApiTable
                0x0041e114                common_qmi_idl_type_table_object_v01
 .bss           0x0041e130        0x0 mac_core/src/wal/AR/coex/.output/AR6320/hw.3/lib/wal_coex.a(wal_mwscoex_crc.o)
 .bss           0x0041e130        0x0 mac_core/src/wal/AR/coex/.output/AR6320/hw.3/lib/wal_coex.a(qmi_idl_lib.o)
 .bss           0x0041e130        0x0 mac_core/src/wal/AR/coex/.output/AR6320/hw.3/lib/wal_coex.a(qmi_idl_accessor.o)
 .bss           0x0041e130        0x0 mac_core/src/wal/AR/coex/.output/AR6320/hw.3/lib/wal_coex.a(coexistence_service_v02.o)
 .bss           0x0041e130        0x4 mac_core/src/wal/whal/ini/.output/AR6320/hw.3/lib/libwhalini.a(whalini.o)
                0x0041e130                iniDset
 .bss           0x0041e134        0x0 mac_core/src/data_txrx/.output/AR6320/hw.3/lib/libdatatxrx.a(data_txrx.o)
 .bss           0x0041e134        0x0 mac_core/src/data_txrx/.output/AR6320/hw.3/lib/libdatatxrx.a(ieee80211_hdr.o)
 .bss           0x0041e134        0x4 mac_core/src/data_txrx/.output/AR6320/hw.3/lib/libdatatxrx.a(data_rx.o)
                0x0041e134                g_dbg_rx_skip_reorder
 .bss           0x0041e138        0x0 mac_core/src/data_txrx/.output/AR6320/hw.3/lib/libdatatxrx.a(data_rx_peer.o)
 .bss           0x0041e138        0x0 mac_core/src/data_txrx/.output/AR6320/hw.3/lib/libdatatxrx.a(data_rx_pn.o)
 .bss           0x0041e138        0x0 mac_core/src/data_txrx/.output/AR6320/hw.3/lib/libdatatxrx.a(data_rx_reorder.o)
 .bss           0x0041e138        0x0 protocol/src/mgmt_txrx/.output/AR6320/hw.3/lib/libmgmttxrx.a(ieee_mgmt_rx.o)
 .bss           0x0041e138        0x0 protocol/src/mgmt_txrx/.output/AR6320/hw.3/lib/libmgmttxrx.a(wlan_mgmt_local_txrx.o)
 .bss           0x0041e138        0x1 protocol/src/mgmt_txrx/.output/AR6320/hw.3/lib/libmgmttxrx.a(wlan_mgmt_txrx.o)
                0x0041e138                firmware_bridge
 .bss           0x0041e139        0x0 protocol/src/vdev_mgr/.output/AR6320/hw.3/lib/libvdevmgr.a(wlan_vdev.o)
 .bss           0x0041e139        0x0 protocol/src/vdev_mgr/.output/AR6320/hw.3/lib/libvdevmgr.a(wlan_vdev_keepalive.o)
 .bss           0x0041e139        0x0 protocol/src/vdev_mgr/.output/AR6320/hw.3/lib/libvdevmgr.a(wlan_vdev_misc.o)
 .bss           0x0041e139        0x0 protocol/src/vdev_mgr/.output/AR6320/hw.3/lib/libvdevmgr.a(wlan_vdev_pause.o)
 .bss           0x0041e139        0x0 protocol/src/vdev_mgr/.output/AR6320/hw.3/lib/libvdevmgr.a(wlan_vdev_schedule.o)
 .bss           0x0041e139        0x0 protocol/src/key_mgmt/.output/AR6320/hw.3/lib/libkeymgmt.a(wlan_key_mgmt.o)
 *fill*         0x0041e139        0x3 00
 .bss           0x0041e13c       0xd4 mac_core/src/ratectrl/.output/AR6320/hw.3/lib/libratectrl_11ac.a(ratectrl_11ac.o)
                0x0041e13c                g_default_gtx_tpc_min
                0x0041e144                g_scaled_nss_hysteresis
                0x0041e148                g_scaled_mcs_hysteresis
                0x0041e14c                g_dbg_last_rc_node
                0x0041e174                g_dbg_last_rate_ctx
                0x0041e204                g_rc_rts_bw_probe
 .bss           0x0041e210       0x1c mac_core/src/ratectrl/.output/AR6320/hw.3/lib/libratectrl_11ac.a(ratectrl_11ac_if.o)
                0x0041e210                g_pkt_info_rcf
 .bss           0x0041e22c        0x0 mac_core/src/ratectrl/.output/AR6320/hw.3/lib/libratectrl_11ac.a(ratectrl_peer_state.o)
 .bss           0x0041e22c        0x0 protocol/src/rtt/.output/AR6320/hw.3/lib/librtt.a(wlan_rtt.o)
 .bss           0x0041e22c        0x4 protocol/src/phyerr/.output/AR6320/hw.3/lib/libphyerr.a(wlan_dfs_phyerr_filter.o)
 .bss           0x0041e230        0x1 protocol/src/phyerr/.output/AR6320/hw.3/lib/libphyerr.a(wlan_phyerr.o)
                0x0041e230                g_dfs_phyerr_parse_filter_offload
 *fill*         0x0041e231        0x3 00
 .bss           0x0041e234        0x4 protocol/src/rfkill/.output/AR6320/hw.3/lib/librfkill.a(wlan_rfkill.o)
                0x0041e234                _wlan_rfkill_apis
 .bss           0x0041e238        0x0 protocol/src/wmi/.output/AR6320/hw.3/lib/libumacwmi.a(umac_wmi_events.o)
 *fill*         0x0041e238        0x8 00
 .bss           0x0041e240       0x9c protocol/src/wmi/.output/AR6320/hw.3/lib/libumacwmi.a(wlan_wmi.o)
                0x0041e240                host_buf_list
                0x0041e248                free_bufs
                0x0041e24c                wmiInfo
                0x0041e258                dbgBufSpace
                0x0041e25c                recovery_test_ctx
                0x0041e27c                _wlan_wmi_api
                0x0041e2a0                done_ep_credit
                0x0041e2d0                host_app_space
 .bss           0x0041e2dc        0x0 protocol/src/wmi/.output/AR6320/hw.3/lib/libumacwmi.a(wlan_wmi_events.o)
 *fill*         0x0041e2dc        0x4 00
 .bss           0x0041e2e0       0x40 protocol/src/wmi/.output/AR6320/hw.3/lib/libumacwmi.a(wmi_gpiohook.o)
                0x0041e2e0                gpio_info
 .bss           0x0041e320        0x8 protocol/src/wmi/.output/AR6320/hw.3/lib/libumacwmi.a(wmi_tlv_helper.o)
                0x0041e324                g_WmiStaticMaxCmdParamTlvs
 .bss           0x0041e328        0x0 protocol/src/wmi/.output/AR6320/hw.3/lib/libumacwmi.a(umac_wmi.o)
                0x0041e328                umacWmiInternalIndirectionTable
 .bss           0x0041e328        0x0 protocol/src/offload_mgr/.output/AR6320/hw.3/lib/liboffload_mgr.a(beacon_filter.o)
 .bss           0x0041e328       0x18 protocol/src/offload_mgr/.output/AR6320/hw.3/lib/liboffload_mgr.a(csa_offload_main.o)
                0x0041e328                gWMI_CsaOffload_Enable
                0x0041e32c                gcsaCtxt
                0x0041e330                csa_api_fn
 .bss           0x0041e340        0x0 protocol/src/offload_mgr/.output/AR6320/hw.3/lib/liboffload_mgr.a(offload_mgr.o)
 .bss           0x0041e340        0x1 protocol/src/offload_mgr/.output/AR6320/hw.3/lib/liboffload_mgr.a(wlan_d0wow.o)
 *fill*         0x0041e341        0xf 00
 .bss           0x0041e350      0x130 protocol/src/offload_mgr/.output/AR6320/hw.3/lib/liboffload_mgr.a(wlan_gtk_offload.o)
                0x0041e350                g_wmi_gtk_history_idx
                0x0041e430                wmi_gtk_history
 .bss           0x0041e480       0x29 protocol/src/offload_mgr/.output/AR6320/hw.3/lib/liboffload_mgr.a(wlan_wow.o)
                0x0041e480                g_wmi_wow_timing
 *fill*         0x0041e4a9        0x3 00
 .bss           0x0041e4ac        0x4 protocol/src/mgmt/.output/AR6320/hw.3/lib/libmgmt.a(wlan_beacon.o)
 .bss           0x0041e4b0        0xc protocol/src/mgmt/.output/AR6320/hw.3/lib/libmgmt.a(wlan_early_rx_sm.o)
                0x0041e4b0                early_rx_priv
 .bss           0x0041e4bc        0x0 protocol/src/mgmt/.output/AR6320/hw.3/lib/libmgmt.a(wlan_ie_utils.o)
 .bss           0x0041e4bc        0x0 protocol/src/mgmt/.output/AR6320/hw.3/lib/libmgmt.a(wlan_wnm.o)
 .bss           0x0041e4bc        0x4 protocol/src/power/.output/AR6320/hw.3/lib/libpower.a(wlan_pm_arbiter.o)
                0x0041e4bc                g_dbg_force_awake
 .bss           0x0041e4c0        0x0 protocol/src/power/.output/AR6320/hw.3/lib/libpower.a(wlan_powersave.o)
 .bss           0x0041e4c0        0x0 protocol/src/power/.output/AR6320/hw.3/lib/libpower.a(wlan_powersave_ap.o)
 .bss           0x0041e4c0        0x2 protocol/src/power/.output/AR6320/hw.3/lib/libpower.a(wlan_powersave_ibss.o)
 .bss           0x0041e4c2        0x0 protocol/src/power/.output/AR6320/hw.3/lib/libpower.a(wlan_powersave_ibss_nw_sm.o)
 .bss           0x0041e4c2        0x0 protocol/src/power/.output/AR6320/hw.3/lib/libpower.a(wlan_powersave_ibss_peer_ps_sm.o)
 .bss           0x0041e4c2        0x0 protocol/src/power/.output/AR6320/hw.3/lib/libpower.a(wlan_powersave_ibss_self_ps_sm.o)
 .bss           0x0041e4c2        0x0 protocol/src/power/.output/AR6320/hw.3/lib/libpower.a(wlan_powersave_sta.o)
 .bss           0x0041e4c2        0x0 protocol/src/power/.output/AR6320/hw.3/lib/libpower.a(wlan_powersave_sta_sm.o)
 .bss           0x0041e4c2        0x0 protocol/src/power/.output/AR6320/hw.3/lib/libpower.a(wlan_powersave_tdls.o)
 .bss           0x0041e4c2        0x0 protocol/src/power/.output/AR6320/hw.3/lib/libpower.a(wlan_qpower.o)
 *fill*         0x0041e4c2        0x2 00
 .bss           0x0041e4c4        0x2 protocol/src/power/smps/.output/AR6320/hw.3/lib/libsmps.a(wlan_smps.o)
                0x0041e4c4                g_dbg_smps_orig_rxchmask
 .bss           0x0041e4c6        0x0 protocol/src/power/smps/.output/AR6320/hw.3/lib/libsmps.a(wlan_smps_sm.o)
 .bss           0x0041e4c6        0x0 protocol/src/resmgr/.output/AR6320/hw.3/lib/libresmgr.a(channel_mgr.o)
 .bss           0x0041e4c6        0x0 protocol/src/resmgr/.output/AR6320/hw.3/lib/libresmgr.a(resmgr.o)
 .bss           0x0041e4c6        0x0 protocol/src/resmgr/.output/AR6320/hw.3/lib/libresmgr.a(resmgr_dyn_sch.o)
 .bss           0x0041e4c6        0x0 protocol/src/resmgr/.output/AR6320/hw.3/lib/libresmgr.a(resmgr_ocs.o)
 .bss           0x0041e4c6        0x0 protocol/src/resmgr/.output/AR6320/hw.3/lib/libresmgr.a(virtual_channel.o)
 .bss           0x0041e4c6        0x0 protocol/src/resmgr/.output/AR6320/hw.3/lib/libresmgr.a(virtual_channel_arbiter.o)
 *fill*         0x0041e4c6        0xa 00
 .bss           0x0041e4d0       0xe0 mac_core/src/hostif/htc/.output/AR6320/hw.3/lib/libhtc.a(htc.o)
                0x0041e4d0                g_htc_credit_op_his_idx
                0x0041e4e0                g_pHTCInstances
 .bss           0x0041e5b0       0x3c mac_core/src/hostif/htt/.output/AR6320/hw.3/lib/libhtt.a(htt_tgt_hif_svc.o)
                0x0041e5b0                g_htt_tgt_hif_svc_state_ptr
 *fill*         0x0041e5ec        0x4 00
 .bss           0x0041e5f0       0xc0 mac_core/src/hostif/htt/.output/AR6320/hw.3/lib/libhtt.a(htt_tgt_rx.o)
                0x0041e5f0                g_htt_tgt_rx_state_ptr
                0x0041e5f4                g_htt_tgt_rx_ring_state_ptr
                0x0041e600                hl_htt_fw_rx_desc
 .bss           0x0041e6b0      0x160 mac_core/src/hostif/htt/.output/AR6320/hw.3/lib/libhtt.a(htt_tgt_rx_event.o)
                0x0041e6b0                g_htt_tgt_rx_event_state_ptr
 .bss           0x0041e810       0x10 mac_core/src/hostif/htt/.output/AR6320/hw.3/lib/libhtt.a(htt_tgt_stats.o)
                0x0041e810                g_rst_stats_types_mask
                0x0041e814                g_upl_stats_types_mask
                0x0041e818                g_cookie_lsbs
                0x0041e81c                g_cookie_msbs
 .bss           0x0041e820      0x440 mac_core/src/hostif/htt/.output/AR6320/hw.3/lib/libhtt.a(htt_tgt_tx.o)
                0x0041e820                g_htt_tgt_tx_state
                0x0041ec58                g_tx_queue_frame_num
                0x0041ec5c                g_htt_tgt_tx_input_buf_ptr_dbg
 .bss           0x0041ec60        0x0 mac_core/src/utils/sm/.output/AR6320/hw.3/lib/libsm.a(sm.o)
 .bss           0x0041ec60       0x18 protocol/src/coex/.output/AR6320/hw.3/lib/libcoex.a(coex.o)
                0x0041ec60                pCOEXPsPoll
                0x0041ec64                pCOEX
                0x0041ec68                pCOEXDynamicOcs
                0x0041ec6c                pCOEXCts2s
                0x0041ec70                pCOEXState
 *fill*         0x0041ec78        0x8 00
 .bss           0x0041ec80      0x118 mac_core/src/hostif/wmisvc/.output/AR6320/hw.3/lib/libwmisvc.a(wmi_svc.o)
                0x0041ec80                g_pWMI
                0x0041ec84                debug_last_wmi_cmd_id
                0x0041ec88                g_wmi_cmd_idx
                0x0041ec8c                debug_end_wmi_cmd_id
                0x0041ec90                g_pWMI_static_param_tlv
                0x0041ec94                g_wmi_evt_idx
                0x0041eca0                wmi_cmd_history
                0x0041ed20                wmi_evt_history
 .bss           0x0041ed98        0x4 protocol/src/scan/.output/AR6320/hw.3/lib/libscan.a(wlan_dcs.o)
                0x0041ed98                test_val
 .bss           0x0041ed9c        0x0 protocol/src/scan/.output/AR6320/hw.3/lib/libscan.a(wlan_scan_sch.o)
 .bss           0x0041ed9c       0x10 protocol/src/scan/.output/AR6320/hw.3/lib/libscan.a(wlan_scan_sm.o)
                0x0041ed9c                tpc_report_ie_data
                0x0041eda0                tpc_report_ie_len
                0x0041eda4                ds_param_ie_data
                0x0041eda8                ds_param_ie_len
 .bss           0x0041edac        0x4 protocol/src/scan/.output/AR6320/hw.3/lib/libscan.a(wlan_scan.o)
 .bss           0x0041edb0        0x0 protocol/src/roam/.output/AR6320/hw.3/lib/libroam.a(wlan_roam.o)
 .bss           0x0041edb0        0x4 protocol/src/roam/.output/AR6320/hw.3/lib/libroam.a(wlan_roam_internal.o)
 .bss           0x0041edb4        0x0 protocol/src/roam/.output/AR6320/hw.3/lib/libroam.a(wlan_roam_wmi.o)
 .bss           0x0041edb4        0x4 protocol/src/pps/.output/AR6320/hw.3/lib/libpps.a(wlan_pps.o)
                0x0041edb4                g_is_hw_sync_tsf_support
 .bss           0x0041edb8        0x8 protocol/src/stats/.output/AR6320/hw.3/lib/libstats.a(wlan_stats.o)
                0x0041edb8                gRadio_stats
                0x0041edbc                p_link_layer_stats_ctxt
 .bss           0x0041edc0        0x0 protocol/src/stats/.output/AR6320/hw.3/lib/libstats.a(wlan_estimate_linkspeed.o)
 .bss           0x0041edc0      0x140 mac_core/src/soc/pcielp/.output/AR6320/hw.3/lib/libpcielp.a(pcielp_core.o)
                0x0041edc0                g_pcielp_ctx
 .bss           0x0041ef00       0x28 mac_core/src/soc/pcielp/.output/AR6320/hw.3/lib/libpcielp.a(pcielp_ltr.o)
                0x0041ef00                g_pcielp_ltr_ctx
 .bss           0x0041ef28        0x8 mac_core/src/soc/pcielp/.output/AR6320/hw.3/lib/libpcielp.a(pcielp_dsleep.o)
                0x0041ef28                g_pcielp_dsleep_ctx
 .bss           0x0041ef30       0x10 mac_core/src/soc/pcielp/.output/AR6320/hw.3/lib/libpcielp.a(pcielp_l1ss.o)
                0x0041ef30                g_pcielp_l1ss_ctx
 .bss           0x0041ef40        0x0 mac_core/src/soc/pcielp/.output/AR6320/hw.3/lib/libpcielp.a(pcielp_buffering.o)
 .bss           0x0041ef40        0x0 mac_core/src/pktlog/.output/AR6320/hw.3/lib/libpktlog.a(pktlog.o)
                0x0041ef40                pktlog_internal_table
 .bss           0x0041ef40       0x78 protocol/src/tbd/.output/AR6320/hw.3/lib/libtbd.a(tbd.o)
                0x0041ef40                tbd_values
 .bss           0x0041efb8       0x10 protocol/src/p2p/.output/AR6320/hw.3/lib/libp2p.a(p2p_main.o)
                0x0041efb8                gp2pCtxt
 .bss           0x0041efc8        0x0 protocol/src/p2p/.output/AR6320/hw.3/lib/libp2p.a(p2p_parse.o)
 .bss           0x0041efc8        0x0 protocol/src/p2p/.output/AR6320/hw.3/lib/libp2p.a(p2p_schedules.o)
 .bss           0x0041efc8        0x0 protocol/src/p2p/.output/AR6320/hw.3/lib/libp2p.a(p2p_go_ps.o)
 .bss           0x0041efc8        0xc protocol/src/chatter/.output/AR6320/hw.3/lib/libchatter.a(wlan_chatter.o)
                0x0041efc8                g_dbg_msdu_len
                0x0041efcc                g_dbg_abf
 .bss           0x0041efd4        0x0 protocol/src/chatter/.output/AR6320/hw.3/lib/libchatter.a(wlan_coalescing.o)
 *fill*         0x0041efd4        0xc 00
 .bss           0x0041efe0       0x30 mac_core/src/retention/.output/AR6320/hw.3/lib/libretention.a(wlan_retention.o)
                0x0041efe0                qca6320_rome_mac_retention_size
                0x0041efe2                qca6320_rome_mac_dma_rcv_en_retention_size
                0x0041efe3                qca6320_rome_mac_hwupdate_retention_size
                0x0041efe4                qca6320_rome_analog_retention_size
                0x0041efe6                qca6320_rome_shortshift_retention_size
                0x0041eff0                qca6320_rome_shortshift_retention
 .bss           0x0041f010        0x0 mac_core/src/utils/buf_chunk/.output/AR6320/hw.3/lib/libbufchunk.a(buf_chunk_api.o)
 .bss           0x0041f010       0x1c protocol/src/txbf/.output/AR6320/hw.3/lib/libtxbf.a(wlan_txbf.o)
                0x0041f014                g_txbf_en
 .bss           0x0041f02c        0x0 protocol/src/tdls/.output/AR6320/hw.3/lib/libtdls.a(wlan_tdls.o)
 .bss           0x0041f02c        0x8 protocol/src/tdls/.output/AR6320/hw.3/lib/libtdls.a(wlan_tdls_peer.o)
 .bss           0x0041f034        0x0 protocol/src/tdls/.output/AR6320/hw.3/lib/libtdls.a(wlan_tdls_uapsd.o)
 .bss           0x0041f034        0x0 protocol/src/tcpip/.output/AR6320/hw.3/lib/libtcpip.a(wlan_ipv6.o)
 .bss           0x0041f034        0x4 mac_core/src/misc/extend_alloc/.output/AR6320/hw.3/lib/libextendalloc.a(extend_allocate.o)
                0x0041f034                extendAllocramCont
 .bss           0x0041f038        0x4 protocol/src/thermal_mgr/.output/AR6320/hw.3/lib/libthermalmgr.a(wlan_thermal_mgr.o)
 .bss           0x0041f03c        0x0 mac_core/src/wal/AR/init/.output/AR6320/hw.3/lib/ar_wal_init.a(ar_wal_init.o)
 .bss           0x0041f03c        0x0 mac_core/src/wal/whal/init/.output/AR6320/hw.3/lib/libwhal_init.a(whal_init.o)
 .bss           0x0041f03c        0x0 mac_core/src/hostif/wdi_ipa/.output/AR6320/hw.3/lib/libwdi_ipa.a(wdi_ipa.o)
 .bss           0x0041f03c        0x4 mac_core/src/hostif/wdi_ipa/.output/AR6320/hw.3/lib/libwdi_ipa.a(wdi_ipa_rx.o)
                0x0041f03c                g_wdi_ipa_rxstate_ptr
 .bss           0x0041f040        0x4 mac_core/src/hostif/wdi_ipa/.output/AR6320/hw.3/lib/libwdi_ipa.a(wdi_ipa_tx.o)
                0x0041f040                g_wdi_ipa_txstate_ptr
 .bss           0x0041f044       0x54 mac_core/src/hostif/hif/hif_dbguart/.output/AR6320/hw.3/lib/lib_hif_dbguart.a(hif_dbguart_install.o)
                0x0041f044                hif_api_duart_space
 .bss           0x0041f098        0x0 mac_core/src/hostif/hif/hif_dbguart/.output/AR6320/hw.3/lib/lib_hif_dbguart.a(hif_dbguart.o)
 .bss           0x0041f098        0x8 protocol/src/lpi/.output/AR6320/hw.3/lib/liblpi.a(wlan_lpi.o)
 .bss           0x0041f0a0       0x70 protocol/src/profile/.output/AR6320/hw.3/lib/libwlanprofile.a(wlan_profile.o)
                0x0041f0a0                g_wlan_profile_enable
                0x0041f0a4                g_wlan_prof_ctxt
                0x0041f0c0                g_prof_stats
 .bss           0x0041f110        0x4 protocol/src/offload/.output/AR6320/hw.3/lib/liboffload.a(wlan_arp_ns_offload.o)
                0x0041f110                g_arp_ns_ctx
 .bss           0x0041f114        0x1 protocol/src/offload/.output/AR6320/hw.3/lib/liboffload.a(wlan_beacon_tx_offload.o)
                0x0041f114                gbcn_count
 .bss           0x0041f115        0x0 protocol/src/offload/.output/AR6320/hw.3/lib/liboffload.a(wlan_network_list_offload.o)
 .bss           0x0041f115        0x0 protocol/src/offload/.output/AR6320/hw.3/lib/liboffload.a(wlan_swbmiss_offload.o)
 *fill*         0x0041f115        0x3 00
 .bss           0x0041f118        0x6 protocol/src/framegen/.output/AR6320/hw.3/lib/libframegen.a(wlan_framegen.o)
                0x0041f118                zero_mac
 *fill*         0x0041f11e        0x2 00
 .bss           0x0041f120       0x40 protocol/src/offload_mgr/stub/.output/AR6320/hw.3/lib/liboffload_mgr_stub.a(offload_mgr_stub.o)
                0x0041f120                offldApiIndirectionTable
 .bss           0x0041f160       0x30 protocol/src/offload_mgr/stub/.output/AR6320/hw.3/lib/liboffload_mgr_stub.a(wlan_wow_stub.o)
                0x0041f160                wlanWowApiIndirectionTable
 .bss           0x0041f190       0x28 mac_core/src/misc/codeswap/.output/AR6320/hw.3/lib/libcodeswap.a(codeswap.o)
                0x0041f190                codeswap_ctxt_hdl
                0x0041f194                codeswap_counter
                0x0041f198                g_codeswap_ctxt
                0x0041f1a0                codeswap_timer
 .bss           0x0041f1b8       0x10 mac_core/src/misc/codeswap/.output/AR6320/hw.3/lib/libcodeswap.a(codeswap_dmamgr.o)
                0x0041f1b8                nc_offset
                0x0041f1bc                nc_hostp
                0x0041f1c0                nc_copybytes
                0x0041f1c4                nc_flog
 .bss           0x0041f1c8       0x3c protocol/src/scan/stub/.output/AR6320/hw.3/lib/libscan_stub.a(wlan_scan_sch_stub.o)
                0x0041f1c8                wlan_scan_sch_api_tbl
                0x0041f1f4                ptpc_report_ie_data
                0x0041f1f8                ptpc_report_ie_len
                0x0041f1fc                pds_param_ie_data
                0x0041f200                pds_param_ie_len
 .bss           0x0041f204        0x8 protocol/src/blockack/.output/AR6320/hw.3/lib/libblockack.a(wlan_blockack.o)
                0x0041f204                g_sta_connected_to_brcm_ap
                0x0041f208                g_war_disable_amsdu_rx_in_mcc
 .bss           0x0041f20c       0x34 protocol/src/init/stub/.output/AR6320/hw.3/lib/libwlaninit_stub.a(wlan_buf_stub.o)
                0x0041f20c                wlan_buf_api_table
 .bss           0x0041f240       0x28 protocol/src/init/stub/.output/AR6320/hw.3/lib/libwlaninit_stub.a(wlan_dev_stub.o)
                0x0041f240                g_pdev_p
                0x0041f244                _wlandev_api
 .bss           0x0041f268       0x20 protocol/src/init/stub/.output/AR6320/hw.3/lib/libwlaninit_stub.a(wlan_peer_stub.o)
                0x0041f268                peerApiIndirectionTable
 .bss           0x0041f288        0xc mac_core/src/data_txrx/stub/.output/AR6320/hw.3/lib/libdatatxrx_stub.a(ieee80211_hdr_stub.o)
                0x0041f288                ieee80211_hdr_fns
 .bss           0x0041f294       0x88 protocol/src/vdev_mgr/stub/.output/AR6320/hw.3/lib/libvdevmgr_stub.a(wlan_vdev_stub.o)
                0x0041f294                wlan_vdev_api_tbl
 .bss           0x0041f31c       0x40 protocol/src/mgmt_txrx/stub/.output/AR6320/hw.3/lib/libmgmttxrx_stub.a(wlan_mgmt_local_txrx_stub.o)
                0x0041f31c                wlan_mgmt_local_txrx_api_table
 .bss           0x0041f35c        0x8 protocol/src/mgmt_txrx/stub/.output/AR6320/hw.3/lib/libmgmttxrx_stub.a(ieee_mgmt_rx_stub.o)
                0x0041f35c                ieee_mgmt_api_table
 .bss           0x0041f364       0xa8 protocol/src/mgmt/stub/.output/AR6320/hw.3/lib/libmgmt_stub.a(wlan_beacon_stub.o)
                0x0041f364                wlanBeaconApiIndirectionTable
 .bss           0x0041f40c        0x8 protocol/src/mgmt/stub/.output/AR6320/hw.3/lib/libmgmt_stub.a(wlan_ie_utils_stub.o)
                0x0041f40c                wlan_utils_api_table
 .bss           0x0041f414       0x58 protocol/src/p2p/stub/.output/AR6320/hw.3/lib/libp2p_stub.a(p2p_stub.o)
                0x0041f414                p2p_api_fn
 *fill*         0x0041f46c        0x4 00
 .bss           0x0041f470       0x44 mac_core/src/wal/whal/reset/.output/AR6320/hw.3/lib/ar6000_cal.a(ar6320_cal.o)
                0x0041f474                num_rx_chains
                0x0041f478                active_to_receive_backup
                0x0041f47c                is_half_rate
                0x0041f480                is_quarter_rate
                0x0041f484                cur_tbl_idx
                0x0041f485                num_tx_chains
                0x0041f488                hw_tbl_freq
                0x0041f490                postNfCalTimer
                0x0041f4b0                cur_tbl_freq
 *fill*         0x0041f4b4        0xc 00
 .bss           0x0041f4c0      0x580 mac_core/src/wal/whal/reset/.output/AR6320/hw.3/lib/ar6000_cal.a(ar6320_rxdc_cal.o)
                0x0041f4d0                G_RATIO_LNA_MAN
                0x0041f4f0                G_RATIO_LNA_EXP_NEG
                0x0041f510                G_RATIO_MIX_MAN
                0x0041f520                G_RATIO_MIX_EXP_NEG
                0x0041f530                odac_meas
                0x0041f930                meas
                0x0041f980                ref_K
                0x0041f9f0                wl_top_rxtx2_caltx
                0x0041f9f8                wl_bb_bb8_caltx
                0x0041fa00                wl_bb_bb9_caltx
                0x0041fa08                wl_bb_bb10_caltx
                0x0041fa10                wl_top_rxtx1_caltx
                0x0041fa18                rffe_5g_en_calpa
                0x0041fa20                rffe_5g_1_wltx5_calpa
                0x0041fa28                rffe_5g_1_wlda5_calpa
                0x0041fa30                rffe_2grx_en_calpa
                0x0041fa38                rffe_2gtx_en_calpa
 .bss           0x0041fa40     0x1780 mac_core/src/wal/whal/reset/.output/AR6320/hw.3/lib/ar6000_cal.a(ar6320_iq_cal.o)
                0x0041fa40                skip_iq_comp_for_cl_cal
                0x0041fa44                recal
                0x0041fa48                pWhalIQCalIndirectionTable
                0x0041fa50                cur_gainmap
                0x0041fa54                recal_with_diff_init_gain
                0x0041fa58                tx_tone_gain
                0x0041fa5c                rx_used_gain
                0x0041fa60                cur_clmap
                0x0041fa70                iq_corr_res_mag
                0x0041ff70                iq_corr_coef_all
                0x00420370                iq_corr_res_pha
                0x00420870                gainmap
                0x004208f0                iqc_valid
                0x00420900                tx_iqc_coeff_array
                0x00420980                tx_cl_dac_val_array
                0x00420a00                sin_2phi_array
                0x00420a80                cos_2phi_array
                0x00420b00                rx_iqc_coeff_array
                0x00420b80                ChanFD
                0x00420d80                IFFT_out_real
                0x00420f80                IFFT_out_imag
                0x00421180                clmap
 .bss           0x004211c0       0x38 mac_core/src/wal/whal/reset/.output/AR6320/hw.3/lib/ar6000_cal.a(ar6320_pef_cal.o)
                0x004211c0                pPefRefCoef
                0x004211c8                pWhalPefCalIndirectionTable
                0x004211d0                pPefIQref
 .bss           0x004211f8        0x0 protocol/src/unit_test/.output/AR6320/hw.3/lib/libunittest.a(unit_test.o)
 .bss           0x004211f8        0x0 protocol/src/frameparse/.output/AR6320/hw.3/lib/libframeparse.a(wlan_frameparse.o)
                0x004211f8                frmParseInternalIndirectionTable
 .bss           0x004211f8       0x34 protocol/src/nan/.output/AR6320/hw.3/lib/libnanwlan.a(wlan_nan.o)
                0x004211f8                g_NanCtx
 .bss           0x0042122c        0x4 protocol/src/nan/.output/AR6320/hw.3/lib/libnanwlan.a(wlan_nan_sync.o)
 .bss           0x00421230        0x4 protocol/src/nan/.output/AR6320/hw.3/lib/libnanwlan.a(wlan_nan_mac.o)
 .bss           0x00421234        0x4 protocol/src/nan/.output/AR6320/hw.3/lib/libnanwlan.a(wlan_nan_publish.o)
 .bss           0x00421238        0x4 protocol/src/nan/.output/AR6320/hw.3/lib/libnanwlan.a(wlan_nan_subscribe.o)
 .bss           0x0042123c        0x6 protocol/src/nan/.output/AR6320/hw.3/lib/libnanwlan.a(wlan_nan_ctrl.o)
 *fill*         0x00421242        0x2 00
 .bss           0x00421244       0x60 protocol/src/nan/.output/AR6320/hw.3/lib/libnanwlan.a(wlan_nan_de_if.o)
                0x00421244                g_nan_ctrl_ctxt
                0x00421248                g_dbg_nan_stats
                0x0042129c                g_dbg_force_dwcm
 .bss           0x004212a4        0x0 protocol/src/nan/.output/AR6320/hw.3/lib/libnanwlan.a(wlan_nan_rx.o)
 .bss           0x004212a4        0x4 protocol/src/nan/.output/AR6320/hw.3/lib/libnanwlan.a(wlan_nan_match.o)
 .bss           0x004212a8        0x0 protocol/src/nan/.output/AR6320/hw.3/lib/libnanwlan.a(wconn_util_list.o)
 .bss           0x004212a8        0x4 protocol/src/nan/.output/AR6320/hw.3/lib/libnanwlan.a(wlan_nan_attr.o)
 *fill*         0x004212ac        0x4 00
 .bss           0x004212b0       0x40 protocol/src/nan/.output/AR6320/hw.3/lib/libnanwlan.a(wlan_nan_bloom_filter.o)
 .bss           0x004212f0        0x0 protocol/src/nan/.output/AR6320/hw.3/lib/libnanwlan.a(wlan_nan_crc.o)
 .bss           0x004212f0        0x0 protocol/src/nan/.output/AR6320/hw.3/lib/libnanwlan.a(wlan_nan_log.o)
 .bss           0x004212f0        0x0 protocol/src/nan/.output/AR6320/hw.3/lib/libnanwlan.a(wlan_nan_time.o)
 .bss           0x004212f0        0x0 protocol/src/nan/.output/AR6320/hw.3/lib/libnanwlan.a(wlan_nan_tlv.o)
 .bss           0x004212f0        0x0 protocol/src/nan/.output/AR6320/hw.3/lib/libnanwlan.a(wlan_nan_util.o)
 .bss           0x004212f0        0x0 protocol/src/nan/.output/AR6320/hw.3/lib/libnanwlan.a(wlan_nan_beacon_ie.o)
 .bss           0x004212f0        0x0 protocol/src/nan/.output/AR6320/hw.3/lib/libnanwlan.a(wlan_nan_beacon_rx.o)
 .bss           0x004212f0        0x0 protocol/src/nan/.output/AR6320/hw.3/lib/libnanwlan.a(wlan_nan_beacon_tx.o)
 .bss           0x004212f0        0x0 protocol/src/nan/.output/AR6320/hw.3/lib/libnanwlan.a(wlan_nan_cluster_sm.o)
 .bss           0x004212f0      0x758 protocol/src/nan/.output/AR6320/hw.3/lib/libnanwlan.a(wlan_nan_scan.o)
                0x004212f0                g_nan_scan_cli_ctx
 .bss           0x00421a48       0x68 protocol/src/nan/.output/AR6320/hw.3/lib/libnanwlan.a(wlan_nan_sched.o)
                0x00421a48                g_NanSchedCtx
 .bss           0x00421ab0        0x0 protocol/src/nan/.output/AR6320/hw.3/lib/libnanwlan.a(sha2.o)
 .bss           0x00421ab0       0x20 protocol/src/extscan/.output/AR6320/hw.3/lib/libextscan.a(wlan_extscan_main.o)
 .bss           0x00421ad0      0x1b8 protocol/src/extscan/.output/AR6320/hw.3/lib/libextscan.a(wlan_extscan_wlan_change.o)
                0x00421ad0                wlan_change_table
 .bss           0x00421c88        0x0 protocol/src/extscan/.output/AR6320/hw.3/lib/libextscan.a(wlan_extscan_wmi.o)
 .bss           0x00421c88     0x1620 protocol/src/extscan/.output/AR6320/hw.3/lib/libextscan.a(wlan_extscan_bssid.o)
 .bss           0x004232a8      0x53c protocol/src/extscan/.output/AR6320/hw.3/lib/libextscan.a(wlan_extscan_bucket.o)
 .bss           0x004237e4      0x3fc protocol/src/extscan/.output/AR6320/hw.3/lib/libextscan.a(wlan_extscan_hotlist.o)
                0x004237e4                hotlist_table
 .bss           0x00423be0        0x0 mac_core/src/wal/AR/rtt/.output/AR6320/hw.3/lib/ar_wal_rtt.a(wal_rtt.o)
 .bss           0x00423be0        0x0 mac_core/patch/AR6320/v3/.output/AR6320/hw.3/lib/lib_maccore_patches.a(install_patches.o)
 .bss           0x00423be0        0x4 mac_core/patch/AR6320/v3/.output/AR6320/hw.3/lib/lib_maccore_patches.a(whal_install_patches.o)
 .bss           0x00423be4        0x0 mac_core/patch/AR6320/v3/.output/AR6320/hw.3/lib/lib_maccore_patches.a(wal_install_patches.o)
 .bss           0x00423be4        0x8 mac_core/patch/AR6320/v3/.output/AR6320/hw.3/lib/lib_maccore_patches.a(ar_wal_connection_pause_patch.o)
                0x00423be4                wal_connection_pause_block_enable
                0x00423be8                wal_connection_pause_block_disable
 *fill*         0x00423bec        0x4 00
 .bss           0x00423bf0      0x150 mac_core/patch/AR6320/v3/.output/AR6320/hw.3/lib/lib_maccore_patches.a(ar_wal_phy_dev_patch.o)
                0x00423bf0                g_use_opt_whal_reset
                0x00423bf4                g_soc_chip_ver
                0x00423bfc                g_pdev_ext
                0x00423c00                g_wal_vdev_ext_array
                0x00423c04                g_wal_vdev_dbg_link_stats_array
                0x00423c08                rom_wal_pdev_get_cycle_counters
                0x00423c0c                rom_wal_set_pdev_param
                0x00423c10                g_dbg_bb_wdt_loop_count
                0x00423c20                reg_record
 .bss           0x00423d40      0x128 mac_core/patch/AR6320/v3/.output/AR6320/hw.3/lib/lib_maccore_patches.a(cmnos_retention_patch.o)
                0x00423d40                g_dbg_isr_ref
                0x00423d44                g_dbg_isr_idx
                0x00423d48                debug_inum_pre
                0x00423d4c                wakeup_ltecoex
                0x00423d50                rom_cmnos_retention_init
                0x00423d60                g_dbg_isr_history
                0x00423e50                ltecoex_timer
 .bss           0x00423e68       0x50 mac_core/patch/AR6320/v3/.output/AR6320/hw.3/lib/lib_maccore_patches.a(ar_wal_tx_de_patch.o)
                0x00423e68                g_dbg_de_cache_hits
                0x00423e74                g_wal_de_cache
                0x00423ea4                g_dbg_de_cache_disable
                0x00423ea8                g_dbg_de_cache_stored
 .bss           0x00423eb8        0x4 mac_core/patch/AR6320/v3/.output/AR6320/hw.3/lib/lib_maccore_patches.a(ar_wal_local_frames_wifi_ip01_patch.o)
                0x00423eb8                rom_local_data_frame_send_with_rate
 .bss           0x00423ebc        0x8 mac_core/patch/AR6320/v3/.output/AR6320/hw.3/lib/lib_maccore_patches.a(pool_mgr_patch.o)
                0x00423ebc                pool_ctxt_list
 *fill*         0x00423ec4        0xc 00
 .bss           0x00423ed0      0x370 mac_core/patch/AR6320/v3/.output/AR6320/hw.3/lib/lib_maccore_patches.a(ar_wal_rx_patch.o)
                0x00423ed0                g_dbg_rx_buf_chain
                0x00423ed4                g_p_tmp_msdu_list_dbg
                0x00423ed8                g_dbg_rx_reentry
                0x00423edc                g_rx_reorder_stats
                0x00423ee0                rx_fullreorder_buffer_mgmt_stats
                0x00423ee8                g_dbg_burst_vivo_rxpktcnt
                0x00423eec                g_dbg_rx_last_ok_ms
                0x00423ef0                g_dbg_assert_on_ftm_err
                0x00423ef4                g_dbg_num_local_bufs
                0x00424200                g_dbg_local_bufs_timeout
 .bss           0x00424240        0x4 mac_core/patch/AR6320/v3/.output/AR6320/hw.3/lib/lib_maccore_patches.a(ar_wal_rx_offload_patch.o)
                0x00424240                rom_rx_offload_attach
 .bss           0x00424244        0x0 mac_core/patch/AR6320/v3/.output/AR6320/hw.3/lib/lib_maccore_patches.a(ar_wal_rx_common_patch.o)
 *fill*         0x00424244        0xc 00
 .bss           0x00424250       0x50 mac_core/patch/AR6320/v3/.output/AR6320/hw.3/lib/lib_maccore_patches.a(ar_wal_vdev_patch.o)
                0x00424250                rom_wal_vdev_detach
                0x00424254                rom_wal_vdev_attach
                0x00424258                rom_wal_vdev_down
                0x0042425c                rom_wal_vdev_start
                0x00424260                vdev_11g_erp_enabled
 .bss           0x004242a0        0x8 mac_core/patch/AR6320/v3/.output/AR6320/hw.3/lib/lib_maccore_patches.a(ar_tx_q_enque_patch.o)
                0x004242a4                g_htt_tgt_tx_compl_idx_bitmap
 *fill*         0x004242a8        0x8 00
 .bss           0x004242b0       0x38 mac_core/patch/AR6320/v3/.output/AR6320/hw.3/lib/lib_maccore_patches.a(tx_sched_patch.o)
                0x004242b0                g_dbg_aggr_tid_mask
                0x004242b4                g_dbg_timer_started
                0x004242b8                g_dbg_burst_timeout
                0x004242bc                g_dbg_burst_break
                0x004242c0                g_dbg_aggr_tid
                0x004242c4                g_dbg_sched_burstsize_scaling
                0x004242d0                g_dbg_aggr_timer
 *fill*         0x004242e8        0x8 00
 .bss           0x004242f0      0x1f4 mac_core/patch/AR6320/v3/.output/AR6320/hw.3/lib/lib_maccore_patches.a(ar_wal_tx_send_patch.o)
                0x004242f4                g_dbg_tx_ppdu_stat_bmap
                0x004242f8                g_dbg_ifOutOfSync
                0x004242fc                time_dsr
                0x00424300                g_wmac_access_freed_ppdu
                0x00424304                tsf_wb_offset
                0x00424308                g_cw_min_from_ap_is_valid
                0x0042430c                g_txq_timeout_cca_busy
                0x00424310                g_dbg_pause_qcu_enabled
                0x00424314                g_dbg_burst_vivo_disable
                0x00424318                g_dbg_burst_vivo_rxpresent
                0x0042431c                g_dbg_burst_vivo_txpresent
                0x00424320                g_dbg_pause_sifs_burst
                0x00424324                g_dbg_tx_ppdu
                0x00424328                time_post_dsr_avg
                0x0042432c                time_ack
                0x00424330                time_air
                0x00424334                time_dsr_ack_avg
                0x00424338                time_ack_air_avg
                0x0042433c                pkt_info_ctxt_ppdu_cnt
                0x00424340                g_dbg_tx_last_ok_ms
                0x00424344                g_dbg_mpdu_before_assert
                0x00424348                rom_tx_send_proc_mpdu_swdone
                0x0042434c                g_dbg_final_mpdu
                0x00424350                g_dbg_mpdu_list_head
                0x00424354                g_dbg_mpdu_retry_list_head
                0x00424358                time_ppdu_cnt
                0x0042435c                rom_wal_tx_send_update_wmm_params
                0x00424360                rom_tx_send_flush_tid
                0x00424364                rom_tx_send_init_tid_txsate
                0x00424368                pkt_info_ctxt_wb_tsf_offset
                0x0042436c                time_post
                0x00424390                g_txq_cca_busy_refstart
                0x004243c0                g_mgmt_ac_link_stats
                0x004244c0                g_cw_min_from_ap
 .bss           0x004244e4        0x0 mac_core/patch/AR6320/v3/.output/AR6320/hw.3/lib/lib_maccore_patches.a(ar_wal_chain_mgmt_patch.o)
 *fill*         0x004244e4        0xc 00
 .bss           0x004244f0       0xe0 mac_core/patch/AR6320/v3/.output/AR6320/hw.3/lib/lib_maccore_patches.a(ar_wal_peer_patch.o)
                0x004244f0                rom_wal_peer_get_param
                0x004244f4                g_tid_ext_pool
                0x004244f8                g_tid_ext_list
                0x00424500                rom_wal_peer_set_param
                0x00424504                rom_ar_wal_peer_free_tid
                0x00424508                rom_ar_wal_peer_update_rxrate
                0x0042450c                rom_wal_peer_set_key
                0x00424510                g_wal_peer_key
 .bss           0x004245d0       0xb0 mac_core/patch/AR6320/v3/.output/AR6320/hw.3/lib/lib_maccore_patches.a(ar600P_txbf_patch.o)
                0x004245d0                g_cbf_war
                0x00424664                rom_ar6000TxbfeeSetCBIndex
                0x00424668                rom_ar6000TxbfeeSetNGIndex
                0x0042466c                rom_ar6000TxbfeeInit
                0x00424670                g_cbf_table
                0x00424674                txbf_power_mode_cb
 .bss           0x00424680        0x0 mac_core/patch/AR6320/v3/.output/AR6320/hw.3/lib/lib_maccore_patches.a(wal_pps_patch.o)
 .bss           0x00424680       0x74 mac_core/patch/AR6320/v3/.output/AR6320/hw.3/lib/lib_maccore_patches.a(ar_xmit_wifi_ip01_patch.o)
                0x00424680                g_ppdu_info_cache_hit
                0x0042468c                rom_StopTxDma
                0x00424690                g_ppdu_info_cache
 .bss           0x004246f4       0x1c mac_core/patch/AR6320/v3/.output/AR6320/hw.3/lib/lib_maccore_patches.a(ar_wal_channel_change_patch.o)
                0x004246f4                g_force_full_whal_reset
 .bss           0x00424710        0x4 mac_core/patch/AR6320/v3/.output/AR6320/hw.3/lib/lib_maccore_patches.a(ar_wal_rc_patch.o)
                0x00424710                g_txbf_musu_stats
 .bss           0x00424714        0x0 mac_core/patch/AR6320/v3/.output/AR6320/hw.3/lib/lib_maccore_patches.a(wal_rtt_patch.o)
 .bss           0x00424714        0x0 mac_core/patch/AR6320/v3/.output/AR6320/hw.3/lib/lib_maccore_patches.a(whal_rtt_patch.o)
 *fill*         0x00424714        0xc 00
 .bss           0x00424720       0x60 mac_core/patch/AR6320/v3/.output/AR6320/hw.3/lib/lib_maccore_patches.a(dbglog_patch.o)
                0x00424720                dbglog_send_debug_logs_cb
                0x00424724                dbglog_send_debug_logs_cookie
                0x00424728                dbglog_thickness
                0x0042472c                dbglog_config
                0x0042473c                patch_debuglog
                0x00424740                diag_message_enabled
                0x00424750                patch_logtimer
 .bss           0x00424780        0x8 mac_core/patch/AR6320/v3/.output/AR6320/hw.3/lib/lib_maccore_patches.a(ar600p_beacon_patch.o)
                0x00424780                ROM_ar6000SetStaBeaconTimers
 .bss           0x00424788        0x8 mac_core/patch/AR6320/v3/.output/AR6320/hw.3/lib/lib_maccore_patches.a(ar6000_power_patch.o)
                0x00424788                whalSetPowerModeCbList
 .bss           0x00424790        0x8 mac_core/patch/AR6320/v3/.output/AR6320/hw.3/lib/lib_maccore_patches.a(ar6000_interrupt_patch.o)
                0x00424790                rom_ar6000EnableInterrupts
                0x00424794                rom_ar6000DisableInterrupts
 *fill*         0x00424798        0x8 00
 .bss           0x004247a0      0x124 mac_core/patch/AR6320/v3/.output/AR6320/hw.3/lib/lib_maccore_patches.a(cmnos_intrinf_patch.o)
                0x004247a0                g_dbg_dsr_idx
                0x004247a4                rom_cmnos_intr_dsrs_pending
                0x004247a8                g_continuous_reading_count
                0x004247ac                mcerr_APB_error_1
                0x004247b0                mcerr_AHB_error_1
                0x004247b4                stackinit_isr_flag
                0x004247b8                rom_cmnos_intr_handle_pending_dsrs
                0x004247c0                g_dbg_dsr_history
                0x00424840                g_dbg_longest_dsr
 *fill*         0x004248c4        0x4 00
 .bss           0x004248c8       0x18 mac_core/patch/AR6320/v3/.output/AR6320/hw.3/lib/lib_maccore_patches.a(patch_pcie.o)
                0x004248c8                pcie_is_prepaused
                0x004248cc                pcie_prepause_tstamp
                0x004248d0                pcie_pause_tstamp
                0x004248d8                pcie_resume_tstamp
 .bss           0x004248e0      0x234 mac_core/patch/AR6320/v3/.output/AR6320/hw.3/lib/lib_maccore_patches.a(patch_usb.o)
                0x004248e4                g_bypass_EV129550
                0x004248e8                crashbuf
 .bss           0x00424b14        0x4 mac_core/patch/AR6320/v3/.output/AR6320/hw.3/lib/lib_maccore_patches.a(wal_beacon_patch.o)
 .bss           0x00424b18        0x0 mac_core/patch/AR6320/v3/.output/AR6320/hw.3/lib/lib_maccore_patches.a(wal_swba_patch.o)
 .bss           0x00424b18       0x20 mac_core/patch/AR6320/v3/.output/AR6320/hw.3/lib/lib_maccore_patches.a(ar600P_retention_patch.o)
                0x00424b18                rom_ar6000RetentionRadioLongshiftRestore
                0x00424b1c                g_dbg_reg_wr_track_cur_idx
                0x00424b20                g_dbg_reg_wr_track
                0x00424b24                g_shadow_reg_err_addr
                0x00424b28                rom_ar6000RetentionRadioLongshiftSave
                0x00424b2c                rom_ar6000RetentionShadowBBRegister
                0x00424b30                rom_ar6000RetentionShadowMACRegister
                0x00424b34                rom_ar6000RetentionShadowAnalogRegister
 .bss           0x00424b38        0x8 mac_core/patch/AR6320/v3/.output/AR6320/hw.3/lib/lib_maccore_patches.a(ar_wal_rmc_patch.o)
                0x00424b38                g_rgc_context_ptr
                0x00424b3c                g_rgc_context_ext_ptr
 .bss           0x00424b40        0x0 mac_core/patch/AR6320/v3/.output/AR6320/hw.3/lib/lib_maccore_patches.a(whal_rgc_patch.o)
 .bss           0x00424b40        0x4 mac_core/patch/AR6320/v3/.output/AR6320/hw.3/lib/lib_maccore_patches.a(patch_hif_ce.o)
                0x00424b40                g_CE_send_status_count
 .bss           0x00424b44       0x15 mac_core/patch/AR6320/v3/.output/AR6320/hw.3/lib/lib_maccore_patches.a(patch_whal_coex.o)
                0x00424b44                g_Wlan1ssSelfGenCHainMask
                0x00424b48                gWhalCoexHalphyEventCb
                0x00424b4c                gWhalCoexCalCb
                0x00424b50                rom_whal_coex_cal_start
                0x00424b54                rom_whal_coex_cal_end
                0x00424b58                g_Wlan1ssTxCHainMask
 *fill*         0x00424b59        0x3 00
 .bss           0x00424b5c        0xc mac_core/patch/AR6320/v3/.output/AR6320/hw.3/lib/lib_maccore_patches.a(patch_whal_mws.o)
 .bss           0x00424b68        0x4 mac_core/patch/AR6320/v3/.output/AR6320/hw.3/lib/lib_maccore_patches.a(patch_whal_mci.o)
                0x00424b68                rom_whal_mci_send_req_wake
 .bss           0x00424b6c        0x8 mac_core/patch/AR6320/v3/.output/AR6320/hw.3/lib/lib_maccore_patches.a(ar_wal_tx_dm_patch.o)
                0x00424b6c                g_wal_pdev
                0x00424b70                rom_tx_dm_init
 .bss           0x00424b74       0x14 mac_core/patch/AR6320/v3/.output/AR6320/hw.3/lib/lib_maccore_patches.a(patch_copy_engine.o)
                0x00424b74                g_dbg_ce_sync_count
                0x00424b78                g_dbg_ce_sync_count_max
                0x00424b7c                rom_CE_send_cb_register
                0x00424b80                rom_CE_recv_cb_register
                0x00424b84                rom_CE_watermark_cb_register
 .bss           0x00424b88        0x4 mac_core/patch/AR6320/v3/.output/AR6320/hw.3/lib/lib_maccore_patches.a(wal_concurrency_patch.o)
                0x00424b88                rom_wal_concurrency_vdev_attach
 .bss           0x00424b8c        0x8 mac_core/patch/AR6320/v3/.output/AR6320/hw.3/lib/lib_maccore_patches.a(ar_wal_tdls_patch.o)
                0x00424b8c                rom_wal_tdls_set_param
                0x00424b90                rom_wal_tdls_get_param
 *fill*         0x00424b94        0x4 00
 .bss           0x00424b98       0x10 mac_core/patch/AR6320/v3/.output/AR6320/hw.3/lib/lib_maccore_patches.a(cmnos_timer_patch.o)
                0x00424b98                g_dbg_ptimer
                0x00424b9c                g_dbg_invalid_ptimer
                0x00424ba0                g_dbg_hang_count
 .bss           0x00424ba8        0x0 mac_core/patch/AR6320/v3/.output/AR6320/hw.3/lib/lib_maccore_patches.a(ar_wal_tx_hcm_patch.o)
 .bss           0x00424ba8        0x4 mac_core/patch/AR6320/v3/.output/AR6320/hw.3/lib/lib_maccore_patches.a(ar_wal_tdls_conn_table_patch.o)
 .bss           0x00424bac        0xc mac_core/patch/AR6320/v3/.output/AR6320/hw.3/lib/lib_maccore_patches.a(ar600P_recv_patch.o)
                0x00424bb0                rom_ar6000RecvReset
                0x00424bb4                rom_SetRxFilter
 .bss           0x00424bb8        0x0 mac_core/patch/AR6320/v3/.output/AR6320/hw.3/lib/lib_maccore_patches.a(patch_gpio.o)
 .bss           0x00424bb8        0x0 mac_core/patch/AR6320/v3/.output/AR6320/hw.3/lib/lib_maccore_patches.a(os_install_wlan_extra_memory_patches.o)
 .bss           0x00424bb8       0x14 mac_core/patch/AR6320/v3/.output/AR6320/hw.3/lib/lib_maccore_patches.a(patch_athos_main.o)
                0x00424bb8                g_dbg_int_pcie_cnt
                0x00424bbc                g_dbg_int_pcie_fw_indicator
                0x00424bc0                g_dbg_int_pcie_core_ctrl_wake
                0x00424bc4                g_dbg_int_pcie_core_ctrl_set
                0x00424bc8                g_dbg_int_pcie_core_ctrl_clear
 .bss           0x00424bcc       0x18 mac_core/patch/AR6320/v3/.output/AR6320/hw.3/lib/lib_maccore_patches.a(cmnos_misc_patch.o)
                0x00424bcc                report_wait_func
                0x00424bd0                g_dbg_notify_cnt
                0x00424bd4                cmnos_assfail_cb_list
                0x00424bdc                g_dbg_ass_cnt
                0x00424be0                rom_cmnos_assfail
 .bss           0x00424be4        0x0 mac_core/patch/AR6320/v3/.output/AR6320/hw.3/lib/lib_maccore_patches.a(sha1_patch.o)
 .bss           0x00424be4        0x0 mac_core/patch/AR6320/v3/.output/AR6320/hw.3/lib/lib_maccore_patches.a(qheap_patch.o)
 .bss           0x00424be4        0x0 mac_core/patch/AR6320/v3/.output/AR6320/hw.3/lib/lib_maccore_patches.a(patch_hif_sdio.o)
 .bss           0x00424be4        0x8 mac_core/patch/AR6320/v3/.output/AR6320/hw.3/lib/lib_maccore_patches.a(ar_wal_txbf_patch.o)
 .bss           0x00424bec        0x0 mac_core/patch/AR6320/v3/.output/AR6320/hw.3/lib/lib_maccore_patches.a(wmi_dbgloghook_patch.o)
 *fill*         0x00424bec        0x4 00
 .bss           0x00424bf0      0x124 mac_core/patch/AR6320/v3/.output/AR6320/hw.3/lib/lib_maccore_patches.a(cmnos_allocram_patch.o)
                0x00424c04                PACKED
 .bss           0x00424d14        0x0 protocol/src/extwow/.output/AR6320/hw.3/lib/libextwow.a(wlan_extwow.o)
 .bss           0x00424d14        0x4 halphy/patch/AR6320/v3/.output/AR6320/hw.3/lib/lib_halphy_patches.a(halphy_install_patches.o)
 .bss           0x00424d18       0x20 halphy/patch/AR6320/v3/.output/AR6320/hw.3/lib/lib_halphy_patches.a(ar6000_nf_cal_patch.o)
                0x00424d1c                savePending
                0x00424d24                maxCCAPower_dirty
                0x00424d28                rom_ar6000NfStartCal
                0x00424d30                nfmaxCCAPower
 .bss           0x00424d38       0x38 halphy/patch/AR6320/v3/.output/AR6320/hw.3/lib/lib_halphy_patches.a(ar6000_ani_patch.o)
                0x00424d54                enable_ani_ptr
                0x00424d58                ani_reset_ptr
 .bss           0x00424d70        0x4 halphy/patch/AR6320/v3/.output/AR6320/hw.3/lib/lib_halphy_patches.a(ar6320_ini_patch.o)
                0x00424d70                analog_pmu5_inited
 *fill*         0x00424d74        0xc 00
 .bss           0x00424d80      0x112 halphy/patch/AR6320/v3/.output/AR6320/hw.3/lib/lib_halphy_patches.a(ar6320_tpc_config_patch.o)
                0x00424d80                g_clpcSensitivePdadc
                0x00424d84                ROM_ar6320SetTpcCLPC
                0x00424d88                ROM_ar6320PdetDcCal
                0x00424d8c                ROM_ar6320ProgAlut
                0x00424d90                temp_plut
                0x00424e90                g_CplcOffsetThermal
 *fill*         0x00424e92        0x2 00
 .bss           0x00424e94       0x39 halphy/patch/AR6320/v3/.output/AR6320/hw.3/lib/lib_halphy_patches.a(ar6320_eeprom_patch.o)
                0x00424e94                cur_ini_ver
                0x00424e98                pSpurMitApi
                0x00424e9c                g_Otp2gBiasInfo
                0x00424e9e                g_is2GHz
                0x00424ea0                ROM_ar6000EepromSetBoardValues
                0x00424ea4                g_ChannelSwitchUpdateScanPowerLimit
                0x00424ea8                pThermal_chan
                0x00424eac                pThermal_timer
                0x00424eb0                pAr6000SetPaprdReducedPower
                0x00424eb4                pAr6000AdjustPowerPerRate
                0x00424eb8                pAr6000EepromProgramTxPowerRegisters
                0x00424ebe                g_ofdmAckPwr
                0x00424ec0                g_ofdmAckPwrOffset
                0x00424ec4                rom_ar6000SetCCKspur
                0x00424ec8                ROM_ar6000SetRegulatoryDomain
                0x00424ecc                g_RegularyDomainSet
 *fill*         0x00424ecd        0x3 00
 .bss           0x00424ed0       0xa0 halphy/patch/AR6320/v3/.output/AR6320/hw.3/lib/lib_halphy_patches.a(ar600P_reset_patch.o)
                0x00424ed0                g_dbg_changech_enter_time
                0x00424ed4                rom_ar6000ChannelSwitch
                0x00424ed8                g_dbg_changech_txit_time
                0x00424edc                bEnable_CTS_CBW
                0x00424ee0                romar6000WaitReg
                0x00424ee4                g_dbg_wait_reg_track_idx
                0x00424ee8                ResetSCPCMode
                0x00424eec                g_dbg_reset_enter_time
                0x00424ef4                g_dbg_reset_exit_time
                0x00424ef8                rom_ar6000WriteAssocid
                0x00424efc                g_max_halttime
                0x00424f00                g_avg_halttime
                0x00424f04                g_haltcount
                0x00424f08                savedExt40Value
                0x00424f0c                rom_ar6000SetTxPowerLimit
                0x00424f10                SCPC_DPD_training_packet_hang
                0x00424f20                g_dbg_wait_reg_track
 .bss           0x00424f70      0x126 halphy/patch/AR6320/v3/.output/AR6320/hw.3/lib/lib_halphy_patches.a(ar6000_paprd_patch.o)
                0x00424f70                rom_ar6000DPDanalogWAR
                0x00424f74                scpcStruct
                0x00424fd4                ScpcIndirectionTable
                0x00425000                DPDTBLMASK_2G
                0x00425001                DPDTBLMASK_5G
                0x00425010                rom_ar6000PaprdForceTxGainIdx
                0x00425014                START_COARSE_IDX_5G
                0x00425016                START_COARSE_IDX_ch1
                0x0042501c                rom_ar6000PaprdProcessTrainingData
                0x00425020                g_dpd_war
                0x00425088                rom_ar6000PaprdReset
                0x0042508c                pResetStruct
                0x00425090                rom_ar6000PaprdSmTimer
 *fill*         0x00425096        0x2 00
 .bss           0x00425098        0x4 halphy/patch/AR6320/v3/.output/AR6320/hw.3/lib/lib_halphy_patches.a(ar6000_phy_patch.o)
                0x00425098                rom_ar6000SetChannel
 .bss           0x0042509c        0x0 /cad/tensilica/chips/peregrine/RE-2013.3-linux/peregrine/xtensa-elf/lib/xcc//libgcc.a(_divsi3.o)
 .bss           0x0042509c        0x0 /cad/tensilica/chips/peregrine/RE-2013.3-linux/peregrine/xtensa-elf/lib/xcc//libgcc.a(_modsi3.o)
 .bss           0x0042509c        0x0 /cad/tensilica/chips/peregrine/RE-2013.3-linux/peregrine/xtensa-elf/lib/xcc//libgcc.a(_udivsi3.o)
 .bss           0x0042509c        0x0 /cad/tensilica/chips/peregrine/RE-2013.3-linux/peregrine/xtensa-elf/lib/xcc//libgcc.a(_umodsi3.o)
 .bss           0x0042509c        0x0 /cad/tensilica/chips/peregrine/RE-2013.3-linux/peregrine/xtensa-elf/lib/xcc//libgcc.a(_ashldi3.o)
 .bss           0x0042509c        0x0 /cad/tensilica/chips/peregrine/RE-2013.3-linux/peregrine/xtensa-elf/lib/xcc//libgcc.a(_ashrdi3.o)
 .bss           0x0042509c        0x0 /cad/tensilica/chips/peregrine/RE-2013.3-linux/peregrine/xtensa-elf/lib/xcc//libgcc.a(_lshrdi3.o)
 .bss           0x0042509c        0x0 /cad/tensilica/chips/peregrine/RE-2013.3-linux/peregrine/xtensa-elf/lib/xcc//libgcc.a(_muldf3.o)
 .bss           0x0042509c        0x0 /cad/tensilica/chips/peregrine/RE-2013.3-linux/peregrine/xtensa-elf/lib/xcc//libgcc.a(_fixunsdfsi.o)
 .bss           0x0042509c        0x0 /cad/tensilica/chips/peregrine/RE-2013.3-linux/peregrine/xtensa-elf/lib/xcc//libgcc.a(_floatsidf.o)
 .bss           0x0042509c        0x0 /cad/tensilica/chips/peregrine/RE-2013.3-linux/peregrine/xtensa-elf/lib/xcc//libgcc.a(_muldi3.o)
 .bss           0x0042509c        0x0 /cad/tensilica/chips/peregrine/RE-2013.3-linux/peregrine/xtensa-elf/lib/xcc//libgcc.a(_udivdi3.o)
 .bss           0x0042509c        0x0 /cad/tensilica/chips/peregrine/RE-2013.3-linux/peregrine/xtensa-elf/lib/xcc//libgcc.a(_umoddi3.o)
 .bss           0x0042509c        0x0 /cad/tensilica/chips/peregrine/RE-2013.3-linux/peregrine/xtensa-elf/lib/xcc//libgcc.a(lib2funcs.o)
 .bss           0x0042509c        0x0 protocol/src/tcpip/.output/AR6320/hw.3/lib/libtcpip.a(wlan_pb.o)
 .bss           0x0042509c        0x0 protocol/src/tcpip/.output/AR6320/hw.3/lib/libtcpip.a(wlan_tcpip.o)
 .bss           0x0042509c        0x4 mac_core/src/misc/serport/.output/AR6320/hw.3/lib/libserport.a(serial_if.o)
                0x0042509c                g_pSerPManager
 .bss           0x004250a0        0x0 mac_core/src/misc/serport/.output/AR6320/hw.3/lib/libserport.a(serial_port.o)
 .bss           0x004250a0        0xc mac_core/src/misc/uartserp/.output/AR6320/hw.3/lib/libuartserp.a(uartserp.o)
                0x004250a0                g_pUartDevices
 .bss           0x004250ac        0x8 mac_core/src/wal/AR/nan/.output/AR6320/hw.3/lib/ar_wal_nan.a(wal_nan_mac.o)
 .bss           0x004250b4        0x7 mac_core/src/wal/whal/rtt/.output/AR6320/hw.3/lib/whal_rtt.a(whal_rtt.o)
                0x004250b4                rtt_regfield_save
 *(.bss.*)
 *(.gnu.linkonce.b.*)
 *(COMMON)
 *(.dram0.bss)
                0x004250c0                . = ALIGN (0x8)
 *fill*         0x004250bb        0x5 00
                0x004250c0                _bss_end = ABSOLUTE (.)
                0x004250c0                _end = ALIGN (0x8)
                0x004250c0                PROVIDE (end, ALIGN (0x8))
                0x004250c0                _stack_sentry = ALIGN (0x8)

.iram0.text     0x00985000        0x0
                0x00985000                _iram0_text_start = ABSOLUTE (.)
 *(.iram0.literal .iram.literal .iram.text.literal .iram0.text .iram.text)
                0x00985000                _iram0_text_end = ABSOLUTE (.)

.text           0x00985000    0x8a604
                0x00985000                _stext = .
                0x00985000                _text_start = ABSOLUTE (.)
 *(.entry.text)
 *(.init.literal)
 *(.init)
 *(.literal .text .text.* .stub .gnu.warning .gnu.linkonce.literal.* .gnu.linkonce.t.*.literal .gnu.linkonce.t.*)
 .text          0x00985000       0xa9 protocol/src/init/.output/AR6320/hw.3/lib/libwlaninit.a(wlan_init.o)
                                 0xac (size before relaxing)
                0x00985028                null_fn
                0x00985030                wlan_wakeup_on_wow
                0x00985074                _wlan_reg_scan_complete
                0x0098507c                _FilterDevicePowerState
                0x0098509c                _EnableHCIBridge
 *fill*         0x009850a9        0x3 00
 .text          0x009850ac     0x106e protocol/src/init/.output/AR6320/hw.3/lib/libwlaninit.a(wlan_peer.o)
                               0x1072 (size before relaxing)
                0x009850ac                _wlan_is_non_qos_peer_present
                0x00985100                _wlan_find_peer
                0x009851a4                _wlan_find_peer_by_pdev
                0x00985240                _wlan_alloc_new_peer
                0x009854cc                _wlan_free_peer
                0x00985598                _wlan_get_active_peer_num
                0x009855c4                wlan_peer_send_peer_info_event
                0x009855cc                wlan_unified_peer_event_handler
                0x00985640                _wlan_vdev_dispatch_peer_assoc
 *fill*         0x0098611a        0x2 00
 .text          0x0098611c       0x2d protocol/src/init/.output/AR6320/hw.3/lib/libwlaninit.a(wlan_bss.o)
                0x0098611c                _wlan_alloc_bss
                0x00986134                _wlan_free_bss
 *fill*         0x00986149        0x3 00
 .text          0x0098614c      0x460 protocol/src/init/.output/AR6320/hw.3/lib/libwlaninit.a(wlan_buf.o)
                0x0098614c                _wlan_buf_free
                0x00986164                _wlan_buf_recycle_buffers
                0x00986210                _wlan_buf_return_tx_buffers
                0x009862a4                _wlan_buf_get_large_mgmt_buffer
                0x00986310                _wlan_buf_get_mgmt_buffer
                0x00986478                _wlan_buf_rx_chain_free
                0x00986518                _wlan_buf_rxbuf_requeue
                0x00986558                _wlan_buf_mac_buffer_dispatcher
                0x00986574                _wlan_buf_mgmt_buffer_dispatcher
 .text          0x009865ac      0xc6f protocol/src/init/.output/AR6320/hw.3/lib/libwlaninit.a(wlan_dev.o)
                                0xc73 (size before relaxing)
                0x009865ac                dev_init_done_null_fn
                0x009865b4                wlan_dev_reset_failure
                0x009865c4                wlan_shared_presend_handler
                0x0098662c                _wlandev_pdev_event_handler
                0x009866b8                _wlan_pdev_wal_pdev_to_pdev
                0x009866c4                _wlan_pdev_register_wmi_service
                0x00986724                _wlan_pdev_set_param
                0x00986ad0                _wlan_phy_dev_register_pkt_info_handler
                0x00986ae0                _wlan_dev_unregister_pkt_info_handler
                0x00987000                _wlan_host_auto_shutdown_event
                0x00987208                wlan_dev_unit_test
 *fill*         0x0098721b        0x1 00
 .text          0x0098721c      0x301 mac_core/src/mac_core_init/.output/AR6320/hw.3/lib/libmaccoreinit.a(mac_core_init.o)
                0x0098721c                mac_core_init_module_install
                0x00987364                mac_core_init_phase1
                0x0098736c                mac_core_init_get_switched_irams
                0x0098737c                mac_core_init_get_ex_init_text_addrs
                0x009873c4                mac_core_init_extend_allocram_init_done
                0x009873d4                mac_core_init_enable_HCI_bridge
                0x009873dc                mac_core_init_htt_tgt_hif_svc_init
                0x009873ec                mac_core_init_htt_tgt_ctrl_data_init
                0x00987430                mac_core_init_pcielp_init
                0x00987440                mac_core_init_pcielp_set_param
                0x00987454                mac_core_init_pktlog_enable
                0x00987468                mac_core_init_pktlog_disable
                0x00987478                mac_core_init_pktlog_init
                0x0098748c                mac_core_init_set_dscp_tid_map
                0x00987504                mac_core_init_set_allbcn_filter
 *fill*         0x0098751d        0x3 00
 .text          0x00987520     0x6d41 mac_core/src/wal/AR/coex/.output/AR6320/hw.3/lib/wal_coex.a(wal_coex.o)
                0x00987520                _wal_coex_tx_de_cb
                0x00987544                _wal_coex_cal_cb
                0x00987558                _wal_coex_halphy_cb
                0x00987668                _wal_coex_cts2s_timer_handler
                0x009876d0                _wal_coex_crit_proto_hint_expired
                0x00987724                _wal_coex_sleep_delay_expired
                0x0098772c                _wal_coex_ant_share_timer
                0x0098773c                _wal_coex_add_to_list
                0x00987784                _wal_coex_remove_from_list
                0x009877ec                _wal_coex_isr
                0x009877f4                _wal_coex_dsr
                0x00987810                _wal_coex_wbtmr_dsr
                0x00987840                _wal_coex_config_debug_gpio
                0x00987848                _wal_coex_state_change_sim
                0x00987868                _wal_coex_call_state_change_sim
                0x009878a8                _wal_coex_beacon_tx_event_cb
                0x009878c8                _wal_coex_swba_tbtt_cb
                0x00987960                _wal_coex_sched_timeout
                0x00987968                _wal_coex_chainmask_update_handler
                0x0098797c                _wal_coex_get_delta_time
                0x00987990                _wal_coex_select_psp_vdev
                0x00987a54                _wal_coex_pause_for_sta
                0x00987ad0                _wal_coex_unpause_for_sta
                0x00987b34                _wal_coex_scc_sta_update
                0x00987bfc                _wal_coex_rx_throughput_monitor
                0x00987cdc                _wal_coex_rssi_monitor
                0x00987d94                _wal_coex_peer_rx_thresh_reset
                0x00987db0                _wal_coex_system_rx_thresh_config
                0x00987df8                _wal_coex_system_monitor
                0x00987f84                _wal_coex_wlan_register_rc_cb
                0x00987f94                _wal_coex_wlan_register_psp_cb
                0x00987fb0                _wal_coex_wlan_register_smps_cb
                0x00987fc0                _wal_coex_wlan_register_tdls_cb
                0x00987fd0                _wal_coex_wlan_sleep_enable
                0x00987fe8                _wal_coex_enter_cts2s_mode
                0x00988058                _wal_coex_exit_cts2s_mode
                0x009880b4                _wal_coex_trfmgmt_cts2s
                0x00988210                _wal_coex_cts2s_get_nav
                0x00988220                _wal_coex_force_cts2s_res_cb
                0x00988280                _wal_coex_wlan_register_cts2s_cb
                0x00988294                _wal_coex_wlan_register_debug_utils
                0x009882a4                _wal_coex_vdev_created
                0x009882b8                _wal_coex_bmiss_monitor
                0x00988334                _wal_coex_update_rx_thresh
                0x00988370                _wal_coex_init_rx_rate_thresh
                0x0098843c                _wal_coex_set_rx_rate_thresh
                0x00988544                _wal_coex_peer_rx_rate_cb
                0x00988618                _wal_coex_get_rssi
                0x00988688                _wal_coex_chainmask_update
                0x009887a8                _wal_coex_whal_init_start_cb
                0x0098884c                _wal_coex_whal_init_cb
                0x00988854                _wal_coex_channel_change_cb
                0x009888e4                _wal_coex_soc_power_change_cb
                0x00988910                _wal_coex_power_change_cb
                0x00988a30                _wal_coex_prioritize_mgmt_frames
                0x00988a48                _wal_coex_prioritize_ibss_mgmt_frames
                0x00988aa8                _wal_coex_prioritize_beacon_rx
                0x00988ad8                _wal_coex_inc_beacon_priority
                0x00988b28                _wal_coex_reset_beacon_priority
                0x00988b78                _wal_coex_config_rc_chainmask
                0x00988bfc                _wal_coex_update_1ss_tx_selfgen_mask
                0x00988c7c                _wal_coex_config_manager
                0x00988d50                _wal_coex_get_wlan_systemstate
                0x00988d68                _wal_coex_find_wlanstate
                0x00988d94                _wal_coex_find_wlanstate_all_vdev
                0x00988dc0                _wal_coex_is_peer_security_inprogress
                0x00988df8                _wal_coex_is_vdev_scanning
                0x00988e2c                _wal_coex_is_vdev_connecting
                0x00988e60                _wal_coex_is_peer_crit_proto_hint
                0x00988e94                _wal_coex_is_vdev_nan_discovering
                0x00988ecc                _wal_coex_reassess_wlanstate
                0x00988fe8                _wal_coex_determine_vdev_state
                0x0098901c                _wal_coex_update_vdev
                0x009890bc                _wal_coex_get_sap_state
                0x009890f0                _wal_coex_get_sap_vdev
                0x0098912c                _wal_coex_get_num_vdev_by_type
                0x00989170                _wal_coex_increase_bcn_tx_priority
                0x0098919c                _wal_coex_add_to_wlanlist
                0x009891c0                _wal_coex_remove_from_wlanlist
                0x00989208                _wal_coex_get_first_2g_vdev
                0x0098924c                _wal_coex_find_first_same_channel_vdev_id
                0x00989290                _wal_coex_update_concurrency_vdev_counters
                0x00989384                _wal_coex_ant_share_update
                0x00989900                _wal_coex_update_concurrency_state
                0x00989a04                _wal_coex_concurrency_manager
                0x00989a0c                _wal_coex_reset_vdev
                0x00989be4                _wal_coex_update_wlanstate
                0x0098abcc                _wal_coex_timer_handler
                0x0098abdc                _wal_coex_bt_cal_timer_handler
                0x0098abf8                _wal_coex_set_rc_nss
                0x0098ac58                _wal_coex_configure_fullconcurrency
                0x0098acc0                _wal_coex_set_scheme
                0x0098ad84                _wal_coex_pause_wlan_peer
                0x0098ad8c                _wal_coex_wlan_peer_unpause
                0x0098ae60                _wal_coex_is_pause_warranted
                0x0098ae68                _wal_coex_num_of_connected_2g_vdev
                0x0098aec0                _wal_coex_find_same_channel_vdev
                0x0098af3c                _wal_coex_update_deweight
                0x0098af44                _wal_coex_is_rx_throughput_critical
                0x0098af70                _wal_coex_singlechain_init
                0x0098afc8                _wal_coex_multichain_init
                0x0098b06c                _wal_coex_singlechain_systemupdate
                0x0098b0d4                _wal_coex_multichain_systemupdate
                0x0098b170                _wal_coex_get_trafficmgmt_algorithm
                0x0098b62c                _wal_coex_set_psp_params
                0x0098b670                _wal_coex_get_t2p2pnoa_blocking
                0x0098b6bc                _wal_coex_get_p2pnoa_blocking_duration
                0x0098b6f0                _wal_coex_mws_trfmgmt_psp_do
                0x0098b794                _wal_coex_mws_trfmgmt_psp
                0x0098b7ec                _wal_coex_trfmgmt_psp
                0x0098ba58                _wal_coex_prioritize_flow_control_frames
                0x0098bac4                _wal_coex_prioritize_wlan_collision
                0x0098baf4                _wal_coex_enter_psp_mode
                0x0098bb94                _wal_coex_exit_psp_mode
                0x0098bc1c                _wal_coex_psp_update_nonwlan_int
                0x0098bcbc                _wal_coex_wlan_state_based_mgmt_frm_weight
                0x0098bd08                _wal_coex_system_update
                0x0098c4b4                _wal_coex_rc_time_limit_adjust
                0x0098c4dc                _wal_coex_set_rc_time_limit
                0x0098c5e4                _wal_coex_determine_wlan_interval
                0x0098c5ec                _wal_coex_scheduler_pre_op
                0x0098c5f4                _wal_coex_scheduler_post_op
                0x0098c5fc                _wal_coex_exit_noa_mode
                0x0098c678                _wal_coex_enter_noa_mode
                0x0098c690                _wal_coex_trfmgmt_noa
                0x0098c698                _wal_coex_dynamic_a2dp_state_handler
                0x0098c6dc                _wal_coex_exit_dynamic_ocs_mode
                0x0098c764                _wal_coex_enter_dynamic_ocs_mode
                0x0098c82c                _wal_coex_trfmgmt_dynamic
                0x0098c888                _wal_coex_trfmgmt_freerun
                0x0098ca50                _wal_coex_trfmgmt_pm
                0x0098ca58                _wal_coex_trfmgmt_ocs
                0x0098ccd4                _wal_coex_sta_send_cts2s
                0x0098cd44                _wal_coex_start_wlan_interval
                0x0098cd64                _wal_coex_start_bt_interval
                0x0098cd90                _wal_coex_start_mws_interval
                0x0098cda8                _wal_coex_schedule
                0x0098d51c                _wal_coex_manager
                0x0098dac4                _wal_coex_set_quiet_time
                0x0098db04                _wal_coex_wlan_layer_ready
                0x0098db2c                _wal_coex_wlan_register_ba_teardown_update_cb
                0x0098db3c                _wal_coex_wlan_register_data_rx_reorder_timeout_cb
                0x0098db4c                _wal_coex_wlan_register_swbmiss_cb
                0x0098db5c                _wal_coex_wlan_register_swbmiss_param_cb
                0x0098db6c                _wal_coex_wlan_register_cck_enable_cb
                0x0098db7c                _wal_coex_wlan_register_ocs_cb
                0x0098db98                _wal_coex_ocs_grant_bt
                0x0098dc20                _wal_coex_opt_timer_handler
                0x0098dc28                _wal_coex_enter_ocs_mode
                0x0098dd20                _wal_coex_exit_ocs_mode
                0x0098de14                _wal_coex_update_ocs_transition_state
                0x0098de24                _wal_coex_update_ocs_mode
                0x0098de7c                _wal_coex_wlan_register_noa_cb
                0x0098de90                _wal_coex_update_noa_data
                0x0098de98                _wal_coex_update_noa
                0x0098dea0                _wal_coex_bcn_tx_handler
                0x0098df0c                _wal_coex_get_ibss_state
                0x0098df40                _wal_coex_get_ibss_vdev
                0x0098df78                _wal_coex_trfmgmt_fixed_time
                0x0098e178                _wal_coex_is_long_bt_req
                0x0098e180                _wal_coex_config_oneshot_noa
                0x0098e188                _wal_coex_config_periodic_noa
                0x0098e1f0                _wal_coex_get_num_of_p2p_go_up
                0x0098e224                _wal_coex_prioritize_mgmt_txrx_frames
                0x0098e25c                _wal_coex_prioritize_ibss_mgmt_frames_stub
 *fill*         0x0098e261        0x3 00
 .text          0x0098e264     0x3a39 mac_core/src/wal/AR/coex/.output/AR6320/hw.3/lib/wal_coex.a(wal_btcoex.o)
                               0x3a3d (size before relaxing)
                0x0098e264                _wal_btcoex_nonlink_get_type
                0x0098e2a4                _wal_btcoex_nonlink_extra_intervals
                0x0098e338                _wal_btcoex_is_nonlink_active
                0x0098e350                _wal_btcoex_forcewake_wlan
                0x0098e394                _wal_btcoex_forcewake_timer_handler
                0x0098e3bc                _wal_btcoex_coex_manager_context
                0x0098e3d8                _wal_btcoex_call_coex_manager
                0x0098e404                _wal_btcoex_transport_init_complete_cb
                0x0098e414                _wal_btcoex_pause_cb
                0x0098e498                _wal_btcoex_handle_full_sleep
                0x0098e4c8                _wal_btcoex_full_sleep_waking
                0x0098e4fc                _wal_btcoex_hwq_cb
                0x0098e54c                _wal_btcoex_intf_timer_handler
                0x0098e568                _wal_btcoex_band_change
                0x0098e578                _wal_btcoex_update_afh
                0x0098e6c8                _wal_btcoex_isr
                0x0098e6e8                _wal_btcoex_process_band_change
                0x0098e6f8                _wal_btcoex_mci_timer_handler
                0x0098e758                _wal_btcoex_mci_recovery
                0x0098e840                _wal_btcoex_mci_process_gpm_int
                0x0098e8e8                _wal_btcoex_snapshot_valid_sched_msgs
                0x0098e980                _wal_btcoex_earliest_valid_sched_msg
                0x0098e9cc                _wal_btcoex_get_t2bt
                0x0098ea88                _wal_btcoex_get_bt_duration
                0x0098eb88                _wal_btcoex_mci_isr
                0x0098ed44                _wal_btcoex_profile_list_reset_all
                0x0098edc4                _wal_btcoex_config_cck_rates
                0x0098ede0                _wal_btcoex_update_swbmiss_param
                0x0098ee50                _wal_btcoex_prof_info
                0x0098f114                _wal_btcoex_reset_topology_info
                0x0098f294                _wal_btcoex_alloc_local_link_id
                0x0098f330                _wal_btcoex_dealloc_local_link_id
                0x0098f394                _wal_btcoex_get_master_required_duration
                0x0098f3cc                _wal_btcoex_process_btprofile_gpm
                0x0098fb7c                _wal_btcoex_wlan_register_cb
                0x0098fb90                _wal_btcoex_handle_critical_links
                0x0098fbd0                _wal_btcoex_process_status_update
                0x0098fd90                _wal_btcoex_process_debug_print
                0x0098fd98                _wal_btcoex_bt_power_on
                0x0098fe04                _wal_btcoex_record_bt_rxss_lower_thresh
                0x0098fe88                _wal_btcoex_record_inactivity_info
                0x0098ff04                _wal_btcoex_get_t2bt_extended
                0x0098ffd0                _wal_btcoex_process_scan_activity
                0x009900f0                _wal_btcoex_process_scan_activity_bitmap
                0x0099015c                _wal_btcoex_process_btle_scan_activity
                0x0099019c                _wal_btcoex_process_sched_info_trigger_rsp
                0x009901b0                _wal_btcoex_set_sched_trigger
                0x0099021c                _wal_btcoex_process_bt_scan_op
                0x00990224                _wal_btcoex_ant_freq_overlapping_detection
                0x00990278                _wal_btcoex_process_connect_status
                0x00990594                _wal_btcoex_mci_process_bt_on
                0x009905e8                _wal_btcoex_process_scan_update
                0x009907bc                _wal_btcoex_process_long_le_scan
                0x00990824                _wal_btcoex_process_report_bt_reg
                0x0099082c                _wal_btcoex_process_bt_queue_overflow
                0x00990874                _wal_btcoex_process_bt_req_wlan_flag
                0x0099089c                _wal_btcoex_process_bt_additional_prof_info
                0x009908e8                _wal_btcoex_update_critical_nonlink
                0x009909c8                _wal_btcoex_mci_process_gpm
                0x00990c7c                _wal_btcoex_setconcurrency
                0x00990c84                _wal_btcoex_sm_idle
                0x00990d04                _wal_btcoex_setweight
                0x00991038                _wal_btcoex_config_bt_profile
                0x0099108c                _wal_btcoex_pause_bt_profile
                0x009910d8                _wal_btcoex_pause_coex_interval
                0x009910e8                _wal_btcoex_start_bt_interval
                0x00991170                _wal_btcoex_reset_coex_interval
                0x00991178                _wal_btcoex_start_wlan_interval
                0x009911fc                _wal_btcoex_start_wlan_cts2s_interval
                0x00991270                _wal_btcoex_set_bt_prio_limit
                0x00991284                _wal_btcoex_set_bt_counter_limit
                0x00991294                _wal_btcoex_add_profile
                0x00991348                _wal_btcoex_remove_profile
                0x00991428                _wal_btcoex_track_profile
                0x009915e0                _wal_btcoex_update_bt_rxss_lower_thresh
                0x00991668                _wal_btcoex_enable_bt_traffic_tracking
                0x00991694                _wal_btcoex_enable_bt_slave_inactivity_tracking
                0x00991768                _wal_btcoex_get_bt_traffic_status
                0x00991820                _wal_btcoex_is_bt_granted
                0x009919b8                _wal_btcoex_process_periodical_traffic
                0x009919c0                _wal_btcoex_is_high_frequency_bt_active
                0x00991a10                _wal_btcoex_init_stub
                0x00991a18                _wal_btcoex_forcewake_wlan_stub
                0x00991a20                _wal_btcoex_nonlink_get_type_stub
                0x00991a28                _wal_btcoex_nonlink_extra_intervals_stub
                0x00991a30                _wal_btcoex_is_nonlink_active_stub
                0x00991a38                _wal_btcoex_coex_manager_context_stub
                0x00991a40                _wal_btcoex_call_coex_manager_stub
                0x00991a48                _wal_btcoex_transport_init_complete_cb_stub
                0x00991a50                _wal_btcoex_pause_cb_stub
                0x00991a58                _wal_btcoex_hwq_cb_stub
                0x00991a60                _wal_btcoex_handle_full_sleep_stub
                0x00991a68                _wal_btcoex_full_sleep_waking_stub
                0x00991a70                _wal_btcoex_band_change_stub
                0x00991a78                _wal_btcoex_update_afh_stub
                0x00991a80                _wal_btcoex_isr_stub
                0x00991a88                _wal_btcoex_process_band_change_stub
                0x00991a90                _wal_btcoex_reset_topology_info_stub
                0x00991a98                _wal_btcoex_process_btprofile_gpm_stub
                0x00991aa0                _wal_btcoex_wlan_register_cb_stub
                0x00991aa8                _wal_btcoex_process_status_update_stub
                0x00991ab0                _wal_btcoex_process_debug_print_stub
                0x00991ab8                _wal_btcoex_setconcurrency_stub
                0x00991ac0                _wal_btcoex_sm_idle_stub
                0x00991ac8                _wal_btcoex_setweight_stub
                0x00991ad0                _wal_btcoex_config_bt_profile_stub
                0x00991ad8                _wal_btcoex_pause_bt_profile_stub
                0x00991ae0                _wal_btcoex_pause_coex_interval_stub
                0x00991ae8                _wal_btcoex_start_bt_interval_stub
                0x00991af0                _wal_btcoex_reset_coex_interval_stub
                0x00991af8                _wal_btcoex_start_wlan_interval_stub
                0x00991b00                _wal_btcoex_start_wlan_cts2s_interval_stub
                0x00991b08                _wal_btcoex_set_bt_prio_limit_stub
                0x00991b10                _wal_btcoex_set_bt_counter_limit_stub
                0x00991b18                _wal_btcoex_track_profile_stub
                0x00991b20                _wal_btcoex_bt_power_on_stub
                0x00991b28                _wal_btcoex_record_bt_rxss_lower_thresh_stub
                0x00991b30                _wal_btcoex_record_inactivity_info_stub
                0x00991b38                _wal_btcoex_profile_list_reset_all_stub
                0x00991b40                _wal_btcoex_prof_info_stub
                0x00991b48                _wal_btcoex_add_profile_stub
                0x00991b50                _wal_btcoex_remove_profile_stub
                0x00991b58                _wal_btcoex_process_scan_activity_stub
                0x00991b60                _wal_btcoex_process_scan_activity_bitmap_stub
                0x00991b68                _wal_btcoex_process_btle_scan_activity_stub
                0x00991b70                _wal_btcoex_process_sched_info_trigger_rsp_stub
                0x00991b78                _wal_btcoex_snapshot_valid_sched_msgs_stub
                0x00991b80                _wal_btcoex_earliest_valid_sched_msg_stub
                0x00991b88                _wal_btcoex_get_t2bt_stub
                0x00991b90                _wal_btcoex_get_bt_duration_stub
                0x00991b98                _wal_btcoex_process_bt_scan_op_stub
                0x00991ba0                _wal_btcoex_ant_freq_overlapping_detection_stub
                0x00991ba8                _wal_btcoex_process_connect_status_stub
                0x00991bb0                _wal_btcoex_process_scan_update_stub
                0x00991bb8                _wal_btcoex_process_long_le_scan_stub
                0x00991bc0                _wal_btcoex_process_report_bt_reg_stub
                0x00991bc8                _wal_btcoex_process_bt_queue_overflow_stub
                0x00991bd0                _wal_btcoex_process_bt_req_wlan_flag_stub
                0x00991bd8                _wal_btcoex_update_critical_nonlink_stub
                0x00991be0                _wal_btcoex_set_sched_trigger_stub
                0x00991be8                _wal_btcoex_alloc_local_link_id_stub
                0x00991bf0                _wal_btcoex_dealloc_local_link_id_stub
                0x00991bf8                _wal_btcoex_enable_bt_traffic_tracking_stub
                0x00991c00                _wal_btcoex_enable_bt_slave_inactivity_tracking_stub
                0x00991c08                _wal_btcoex_get_bt_traffic_status_stub
                0x00991c10                _wal_btcoex_update_bt_rxss_lower_thresh_stub
                0x00991c18                _wal_btcoex_is_bt_granted_stub
                0x00991c20                _wal_btcoex_process_periodical_traffic_stub
                0x00991c28                _wal_btcoex_handle_critical_links_stub
                0x00991c30                _wal_btcoex_mci_timer_handler_stub
                0x00991c38                _wal_btcoex_mci_process_gpm_int_stub
                0x00991c40                _wal_btcoex_mci_isr_stub
                0x00991c48                _wal_btcoex_mci_process_gpm_stub
                0x00991c50                _wal_btcoex_mci_recovery_stub
                0x00991c58                _wal_btcoex_intf_timer_handler_stub
                0x00991c60                _wal_btcoex_forcewake_timer_handler_stub
                0x00991c68                _wal_btcoex_get_master_required_duration_stub
                0x00991c70                _wal_btcoex_get_t2bt_extended_stub
                0x00991c78                _wal_btcoex_mci_process_bt_on_stub
                0x00991c80                _wal_btcoex_update_swbmiss_param_stub
                0x00991c88                _wal_btcoex_process_bt_additional_prof_info_stub
                0x00991c90                _wal_btcoex_config_cck_rates_stub
                0x00991c98                _wal_btcoex_is_high_frequency_bt_active_stub
 *fill*         0x00991c9d        0x3 00
 .text          0x00991ca0     0x272a mac_core/src/wal/AR/coex/.output/AR6320/hw.3/lib/wal_coex.a(wal_mwscoex.o)
                               0x274e (size before relaxing)
                0x00991ca0                wal_mwscoex_state_ind_timer_hdl
                0x00991ce8                _wal_mwscoex_isr
                0x00991cf0                _wal_mwscoex_subf_filter
                0x00991d64                _wal_mwscoex_wbtmr_sync
                0x00991ef0                _wal_mwscoex_tdm_handler
                0x00991f28                _wal_mwscoex_tdm_tx
                0x00991f50                _wal_mwscoex_dsr
                0x00991fe0                _wal_mwscoex_wlan_register_cb
                0x00991ff0                _wal_mwscoex_conflict_update
                0x009922f0                _wal_mwscoex_avoid_freq_rpt
                0x00992370                _wal_mwscoex_avoid_freq_clr
                0x009923e4                _wal_mwscoex_avoid_freq_fill
                0x00992478                _wal_mwscoex_mwsul_handler
                0x009924dc                _wal_mwscoex_cp_msg_send
                0x0099253c                _wal_mwscoex_hdlc_frame_and_escape
                0x00992624                _wal_mwscoex_hdlc_unframe
                0x00992674                _wal_mwscoex_cp_update_filltx
                0x009926c0                _wal_mwscoex_cp_sync_filltx_chk
                0x00992744                _wal_mwscoex_cp_sync_filltx_do
                0x0099286c                _wal_mwscoex_detect_timer_hdl
                0x0099294c                _wal_mwscoex_cp_sync_filltx
                0x00992988                _wal_mwscoex_eval_forced_tdm_exit_select_dpb_scenario
                0x009929e4                _wal_mwscoex_eval_dpb_exit_select_forced_tdm_scenario
                0x00992a94                _wal_mwscoex_set_wlan_operating_mode
                0x00992ac0                _wal_mwscoex_notify_rssi_change_event
                0x00992b10                _wal_mwscoex_dpb_forced_tdm_switch
                0x00992bc4                _wal_mwscoex_tdm_uplink_type_switch
                0x00992c18                _wal_mwscoex_lte_wlan_sinr_deinit
                0x00992c48                _wal_mwscoex_lte_wlan_sinr_init
                0x00992c8c                _wal_mwscoex_lte_wlan_start_sinr_collection
                0x00992cbc                _wal_mwscoex_lte_wlan_stop_sinr_collection
                0x00992ce8                _wal_mwscoex_lte_wlan_sinr_computation
                0x00992ea0                _wal_mwscoex_cp_wlan_lte_sinr_filltx
                0x00992f24                _wal_mwscoex_lte_sinr_rsp_await_timer_handler
                0x00992f44                _wal_mwscoex_lte_sinr_interval_timer_handler
                0x00992fb4                _wal_mwscoex_cp_wlan_state_ind_filltx
                0x0099307c                _wal_mwscoex_timer_handler
                0x009930c8                _wal_mwscoex_txgrant_update
                0x00993134                _wal_mwscoex_get_lte_mac_status
                0x00993180                _wal_mwscoex_wlan_pwrlimit_sar
                0x009931b0                _wal_mwscoex_wlan_pwrlimit_set
                0x00993274                _wal_mwscoex_scheme_update
                0x0099345c                _wal_mwscoex_wlan_event
                0x009935d4                wal_mwscoex_process_wwan_state
                0x0099375c                _wal_mwscoex_remote_event
                0x00993e80                _wal_mwscoex_hdlc_buffer_and_unescape
                0x00993f2c                _wal_mwscoex_cp_encode_and_send
                0x0099404c                _wal_mwscoex_cp_recv_decode
                0x0099406c                _wal_mwscoex_verification_stub
                0x00994074                _wal_mwscoex_get_t2mws
                0x009940dc                _wal_mwscoex_modem_power_state
                0x00994138                _wal_mwscoex_chan_avoid_update
                0x00994168                _wal_mwscoex_get_mws_duration
                0x0099426c                _wal_mwscoex_tdm_event
                0x009942e8                _wal_mwscoex_cp_conflict_req_filltx
                0x0099437c                _wal_mwscoex_conflict_req_timeout_handler
                0x009943b4                _wal_mwscoex_get_fbdspt
 *fill*         0x009943ca        0x2 00
 .text          0x009943cc      0x19f mac_core/src/wal/AR/coex/.output/AR6320/hw.3/lib/wal_coex.a(wal_mwscoex_crc.o)
                0x009943cc                crc_16_calc
                0x00994448                crc_16_l_calc
                0x009944cc                crc_30_calc
                0x009944d4                crc_30_step
                0x009944dc                crc_16_step
                0x00994520                crc_16_l_step
                0x00994564                crc_32_calc
 *fill*         0x0099456b        0x1 00
 .text          0x0099456c     0x1187 mac_core/src/wal/AR/coex/.output/AR6320/hw.3/lib/wal_coex.a(qmi_idl_lib.o)
                0x0099456c                qmi_idl_next_element
                0x009945d0                qmi_idl_find_msg
                0x0099467c                qmi_idl_decode_find_tlv
                0x009946b4                qmi_idl_decode_verify_mandatory
                0x00994768                qmi_idl_decode_element
                0x00994e8c                qmi_idl_message_decode_v6
                0x00994fc0                qmi_idl_encode_element
                0x00995578                qmi_idl_message_encode_v6
                0x00995614                qmi_idl_message_decode
                0x00995650                qmi_idl_message_encode
                0x00995694                qmi_idl_encode_resp_tlv
                0x009956ec                qmi_idl_get_std_resp_tlv_len
 *fill*         0x009956f3        0x1 00
 .text          0x009956f4      0x1c2 mac_core/src/wal/AR/coex/.output/AR6320/hw.3/lib/wal_coex.a(qmi_idl_accessor.o)
                0x009956f4                qmi_idl_get_idl_version
                0x00995718                qmi_idl_get_idl_minor_version
                0x00995744                qmi_idl_get_service_id
                0x00995768                qmi_idl_get_max_service_len
                0x0099578c                qmi_idl_get_max_message_len
                0x009957e8                qmi_idl_get_message_c_struct_len
                0x00995820                qmi_idl_get_max_c_struct_len
                0x00995874                qmi_idl_inherit_service_object
                0x009958a4                qmi_idl_get_inherited_service_object
 *fill*         0x009958b6        0x2 00
 .text          0x009958b8       0x15 mac_core/src/wal/AR/coex/.output/AR6320/hw.3/lib/wal_coex.a(coexistence_service_v02.o)
                0x009958b8                coex_get_service_object_internal_v02
 *fill*         0x009958cd        0x3 00
 .text          0x009958d0      0x3bf mac_core/src/data_txrx/.output/AR6320/hw.3/lib/libdatatxrx.a(data_txrx.o)
                0x00995a70                _data_txrx_event_pdev_peer_create
                0x00995a94                _data_txrx_event_peer_block_complete
                0x00995b84                _data_txrx_event_peer_max_sw_retry_handler
                0x00995c78                _data_txrx_event_peer_sta_kickout_handler
 *fill*         0x00995c8f        0x1 00
 .text          0x00995c90       0x59 mac_core/src/data_txrx/.output/AR6320/hw.3/lib/libdatatxrx.a(ieee80211_hdr.o)
                0x00995c90                _ieee80211_hdrsize_nopad
 *fill*         0x00995ce9        0x3 00
 .text          0x00995cec     0x1492 mac_core/src/data_txrx/.output/AR6320/hw.3/lib/libdatatxrx.a(data_rx.o)
                               0x14aa (size before relaxing)
                0x00995f30                _data_rx_register_deliver_cb
                0x00995f54                _data_rx_register_frag_ind_cb
                0x00995f74                _data_rx_register_event_cb
                0x0099603c                data_rx_copy_pn
                0x00996360                data_null_deauth_check
                0x00996464                data_rx_record_pktlog
                0x00997094                _data_rx_set_param
                0x009970c0                _data_rx_reorder_stats_publish
                0x009970f0                _data_rx_reorder_stats_reset
 *fill*         0x0099717e        0x2 00
 .text          0x00997180      0x473 mac_core/src/data_txrx/.output/AR6320/hw.3/lib/libdatatxrx.a(data_rx_peer.o)
                                0x477 (size before relaxing)
                0x00997198                data_rx_peer_alloc
                0x0099721c                data_rx_peer_free
                0x00997270                _data_rx_peer_flush
                0x009972b8                data_rx_peer_record_pktlog
                0x00997568                data_rx_peer_deliver_event
                0x009975b4                data_rx_peer_event
 *fill*         0x009975f3        0x1 00
 .text          0x009975f4      0x20c mac_core/src/data_txrx/.output/AR6320/hw.3/lib/libdatatxrx.a(data_rx_pn.o)
                0x0099769c                data_rx_pn_is_wep
                0x009976b0                data_rx_is_replay_error
 .text          0x00997800      0xf85 mac_core/src/data_txrx/.output/AR6320/hw.3/lib/libdatatxrx.a(data_rx_reorder.o)
                0x00997820                data_rx_reorder_ac_waitlist_add
                0x00997884                data_rx_reorder_ac_waitlist_remove
                0x009978d4                data_rx_reorder_ac_waitlist_timeout
                0x00997988                data_rx_reorder_msdu_free
                0x00997e6c                data_rx_reorder_tid_free
                0x00997f00                data_rx_reorder_tid_flush_any
                0x00997f2c                data_rx_reorder_tid_store
                0x00998158                data_rx_reorder_tid_release
                0x0099834c                data_rx_reorder_tid_flush
                0x009986ac                data_rx_reorder_tid_get_elem
                0x009986dc                data_rx_reorder_tid_timestamp_cmp
                0x009986e8                data_rx_reorder_tid_timeout
                0x00998708                data_rx_reorder_buff_refill_req
                0x0099875c                data_rx_reorder_set_timeout
 *fill*         0x00998785        0x3 00
 .text          0x00998788       0xaf protocol/src/mgmt_txrx/.output/AR6320/hw.3/lib/libmgmttxrx.a(ieee_mgmt_rx.o)
                0x00998788                _ieee_ieee2freq
                0x009987c0                _ieee_chan2ieee
 *fill*         0x00998837        0x1 00
 .text          0x00998838      0x8dd protocol/src/mgmt_txrx/.output/AR6320/hw.3/lib/libmgmttxrx.a(wlan_mgmt_local_txrx.o)
                0x00998838                _wlan_data_local_send_with_rate
                0x0099888c                _wlan_data_local_send
                0x009988a8                _wlan_mgmt_local_send
                0x00998a00                _wlan_mgmt_local_send_nullfunc
                0x00998a5c                _wlan_mgmt_local_send_pspoll
                0x00998af8                _wlan_mgmt_local_send_cts2self
                0x00998b2c                _wlan_mgmt_local_send_cfend
                0x00998b60                _wlan_mgmt_local_send_action_ba
                0x00998b98                _wlan_mgmt_local_send_bar
                0x00998bf8                _wlan_mgmt_local_input
                0x00998f94                _wlan_mgmt_local_send_beacon
                0x00998fec                _wlan_mgmt_local_send_probe_req
                0x00999058                _wlan_mgmt_local_send_action_smps
                0x0099908c                _wlan_mgmt_local_send_action_rmc_ldr_inform
                0x00999094                _wlan_mgmt_local_send_deauth_disassoc
                0x009990e4                _wlan_mgmt_local_send_atim_req
 *fill*         0x00999115        0x3 00
 .text          0x00999118      0x7a1 protocol/src/mgmt_txrx/.output/AR6320/hw.3/lib/libmgmttxrx.a(wlan_mgmt_txrx.o)
                0x00999144                _wlan_txrx_frame_from_host
                0x0099914c                _wlan_mgmt_rx_complete_from_host
                0x009991ac                _wlan_mgmt_update_rx_stats
                0x00999208                _wlan_mgmt_rx_get_rssi_for_chain
                0x00999228                _wlan_mgmt_rx_frame_handler
                0x00999594                _wlan_mgmt_tx_send
                0x009995e0                _wlan_bcn_tx_send
                0x00999834                _wlan_mgmt_txrx_send_bcn_byref
                0x009998a4                _wlan_mgmt_txrx_register_coex_ops
 *fill*         0x009998b9        0x3 00
 .text          0x009998bc     0x27e4 protocol/src/vdev_mgr/.output/AR6320/hw.3/lib/libvdevmgr.a(wlan_vdev.o)
                               0x27f4 (size before relaxing)
                0x009998bc                _wlan_vdev_create
                0x00999c90                _wlan_vdev_delete
                0x00999db4                _wlan_vdev_start
                0x0099a39c                _wlan_vdev_stop
                0x0099a584                wlan_set_vdev_bss_peer
                0x0099a5f0                _wlan_vdev_up
                0x0099ab98                _wlan_vdev_down
                0x0099ad44                _wlan_vdev_restart
                0x0099ad88                _wlan_vdev_set_param
                0x0099b2ec                _wlan_vdev_sta_ps_event_handler
                0x0099b37c                _wlan_vdev_register_notif_handler
                0x0099b3dc                _wlan_vdev_unregister_notif_handler
                0x0099b434                _wlan_vdev_deliver_notif
                0x0099b678                _wlan_vdev_find_notif_data
                0x0099b694                wmi_wal_vdev_peer_event_handler
                0x0099b6ec                wlan_unified_vdev_stop
                0x0099b774                wlan_unified_vdev_down
                0x0099b784                _wlan_vdev_install_key_complete_event
                0x0099b7e8                wlan_vdev_cmd_valid
                0x0099b844                _wlan_vdev_dispatch_vdev_start_request
                0x0099b940                _wlan_vdev_dispatch_vdev_set_wmm_params
                0x0099b9c4                _wlan_vdev_dispatch_install_key
                0x0099bac8                _wlan_vdev_dispatch_wmm_addts
 .text          0x0099c0a0      0x7b5 protocol/src/vdev_mgr/.output/AR6320/hw.3/lib/libvdevmgr.a(wlan_vdev_keepalive.o)
                                0x7c1 (size before relaxing)
                0x0099c0e0                _wlan_vdev_heartbeat_timer_func
                0x0099c464                _wlan_vdev_send_keepalive_frame
                0x0099c4c4                _wlan_vdev_keepalive_tx_completion
                0x0099c50c                _wlan_vdev_keepalive_check
                0x0099c600                _wlan_vdev_swbmiss_evt_handler
                0x0099c7f4                _wlan_enable_disable_swbmiss_on_sta_vdevs
 *fill*         0x0099c855        0x3 00
 .text          0x0099c858      0xdf8 protocol/src/vdev_mgr/.output/AR6320/hw.3/lib/libvdevmgr.a(wlan_vdev_misc.o)
                0x0099c968                _wlan_vdev_cleanup
                0x0099caa0                _wal_vdev_peer_authorize_event_handler
                0x0099cacc                _wlan_vdev_wal_event_handler
                0x0099cb0c                _wlan_vdev_register_wal_peer_events
                0x0099cb40                _wlan_vdev_sta_swtim_event_hdlr
                0x0099cb7c                _wlan_data_null_deauth_check
                0x0099cc60                _wlan_vdev_handle_own_beacon
                0x0099cde8                _wlan_vdev_handle_ibss_beacon
                0x0099cec8                _wlan_vdev_stats_process
                0x0099cff8                _wlan_vdev_ebt_handler
                0x0099d024                _wlan_vdev_udpate_diag_rssi_monitor
                0x0099d074                _wlan_vdev_is_p2p_go_present
                0x0099d0a8                _wlan_vdev_ap_connecting_peer_avail
                0x0099d0d4                _wlan_vdev_set_mcast_filter
                0x0099d264                _wlan_vdev_delete_mcast_filter
                0x0099d38c                _wlan_vdev_mcast_match
                0x0099d494                _wlan_vdev_dpd_cal_timeout
                0x0099d4c4                _wlan_vdev_do_dpd_cal
                0x0099d510                _wlan_vdev_reconfig
                0x0099d54c                _wlan_vdev_get_max_dpd_cal_time
                0x0099d588                _wlan_vdev_find_vdev
                0x0099d5b0                _wlan_vdev_wal_vdev_to_vdev
                0x0099d5e8                _wlan_find_vdev_by_mac
                0x0099d630                _wlan_vdev_send_cts2self
 .text          0x0099d650      0xc4e protocol/src/vdev_mgr/.output/AR6320/hw.3/lib/libvdevmgr.a(wlan_vdev_pause.o)
                                0xc56 (size before relaxing)
                0x0099d650                _wlan_pause_timeout
                0x0099d688                _wlan_vdev_pause_complete_handler
                0x0099d9f0                _wlan_vdev_unpuase_complete_handler
                0x0099da34                _wlan_vdev_pause_event_hdlr
                0x0099dabc                _wlan_vdev_pause
                0x0099dd88                _wlan_vdev_ispaused
                0x0099dd94                _wlan_vdev_unpause
                0x0099df6c                _wlan_vdev_store_cb_data
                0x0099e050                _wlan_vdev_pause_cb_complete
                0x0099e0c4                _wlan_vdev_unpause_cb_complete
                0x0099e138                _wlan_vdev_calc_avg_pause_delay
                0x0099e148                _wlan_vdev_set_link_pause_fail
                0x0099e190                _wlan_vdev_set_link_pause_delay
                0x0099e1c8                _wlan_vdev_set_rx_leak_window
                0x0099e1dc                _wlan_vdev_find_max_pause_delay
                0x0099e224                _wlan_vdev_req_bcn_q_unpause
                0x0099e248                _wlan_vdev_get_max_active_vdev_pause_delay
                0x0099e278                _wlan_vdev_is_leakyap_cts2s_enabled
 *fill*         0x0099e29e        0x2 00
 .text          0x0099e2a0     0x1992 protocol/src/vdev_mgr/.output/AR6320/hw.3/lib/libvdevmgr.a(wlan_vdev_schedule.o)
                               0x19a6 (size before relaxing)
                0x0099e7d4                _wlan_configure_ap_beacon_with_tbtt_offset
                0x0099e808                _wlan_vdev_sync_ap_sta_tbtt_offset
                0x0099ebf8                _wlan_handle_sta_tsf_drifts
                0x0099f110                _wlan_vdev_ocs_event_notif_handler
                0x0099f128                _wlan_vdev_channel_op_cb
                0x0099f55c                _wlan_vdev_ch_req_update_status
                0x0099f6b0                _wlan_vdev_beacon_sync_check
                0x0099f728                _wlan_vdev_up_ch_req_setup
                0x0099f990                _wlan_vdev_swbmiss_post_critical_request
                0x0099fabc                _wlan_vdev_ap_conn_prot
                0x0099fb7c                _wlan_vdev_set_link_cts2s
                0x0099fbc4                _wlan_vdev_restart_hp_lp_reqs
 *fill*         0x0099fc32        0x2 00
 .text          0x0099fc34     0x2d48 mac_core/src/ratectrl/.output/AR6320/hw.3/lib/libratectrl_11ac.a(ratectrl_11ac.o)
                               0x2d54 (size before relaxing)
                0x0099fd74                _rcUpdatePer_2D
                0x0099feb8                _RATE_GetPeerPhy
                0x0099fee0                _RATE_GetTxChainMask
                0x0099ff68                _RATE_GetRCFlags
                0x0099ffdc                _RATE_SetSGIMasks
                0x0099fffc                _RATE_GetSGIFlag
                0x009a00dc                _RATE_SetGTXMasks
                0x009a01c0                _RATE_GetGTXTPC
                0x009a06a4                _RATE_IsRTS_CTS_Enabled
                0x009a06c4                _RATE_GetRTS_CTS_Profile
                0x009a06dc                _GetLSB
                0x009a0768                _GetMSB
                0x009a07d0                _rate_setup
                0x009a07d8                _rcGetValidTxRateMaxMcs
                0x009a0838                _rcGetNextValidTxRate
                0x009a08c8                _rcGetLowerValid
                0x009a0908                _rcGetNextLowerValidTxRate
                0x009a0980                _GetRateTblAndIndex
                0x009a0a64                _RateCheckDefaultMCSMask
                0x009a0a9c                _RateValidCheckNodeFlags
                0x009a0ab8                _RateValidCheck
                0x009a0b10                _rcSortValidRates
                0x009a0b54                _RateValidateRateSet
                0x009a0c88                _rc_validate_init_rateMax
                0x009a0d28                rate_validate_params
                0x009a0e94                _rcSibUpdate
                0x009a122c                _GetBestRate
                0x009a12a8                _GetBestRate_2D
                0x009a1474                _rcFindAltNssRate_2D
                0x009a14c8                _rcRateFind
                0x009a18f4                _RATE_UpdateCCKRateMask
                0x009a1938                _rcUpdate_HT
                0x009a1e2c                _RATE_SetCurmode
                0x009a1e4c                _RATE_SetRtsCtsRate
                0x009a1e6c                _RATE_GetRtsCtsRate
                0x009a1e74                rate_init_peer_ratectxt
                0x009a1f30                rate_init_vdev_ratectxt
                0x009a1fd0                wlan_rc_set_max_nss
                0x009a200c                _RATE_GetTxRetrySchedule
                0x009a28b0                _RATE_SetHTConnCap
                0x009a28d4                _RATE_SetVHTConnCap
                0x009a28f8                _RATE_GetNonDataRc
                0x009a2948                _RATE_GetNonDataHwRc
 .text          0x009a297c      0x872 mac_core/src/ratectrl/.output/AR6320/hw.3/lib/libratectrl_11ac.a(ratectrl_11ac_if.o)
                0x009a29bc                _rateSetAckFrmBasicRate
                0x009a2a00                _ratectrl_install_rc_update_buf_req
                0x009a2a14                _ratectrl_install_rc_update_indicate
                0x009a2a28                _RATE_vdev_ctxt_free
                0x009a2a54                _RATE_peer_ctxt_free
                0x009a2a84                ratectrl_update_rate_sched
                0x009a2b28                rate_init_peer_params
                0x009a2b84                rate_init_vdev_params
                0x009a2bbc                _RATE_VdevInit
                0x009a2c00                _RATE_NodeInit
                0x009a2c7c                _RATE_NodeUpdate
                0x009a2ce0                _RATE_GroupCastUpdate
                0x009a2e94                RATE_GetRatectrlPeerParams
                0x009a2ea0                RATE_GetCurFixedRateIndex
                0x009a2eac                RATE_GetLegacyRateMask
                0x009a2f00                _RATE_Update_handler
                0x009a3124                _RATE_GetRateMax
                0x009a3150                _RATE_SetRateMax
                0x009a317c                _RATE_EnableCCKRatesInHTMode
                0x009a31e4                _RATE_GetCCKRatesInHTMode
 *fill*         0x009a31ee        0x2 00
 .text          0x009a31f0       0x40 mac_core/src/ratectrl/.output/AR6320/hw.3/lib/libratectrl_11ac.a(ratectrl_peer_state.o)
                0x009a31f0                rate_ctrl_state_register
                0x009a3200                rate_ctrl_state_alloc
                0x009a321c                rate_ctrl_state_free
 .text          0x009a3230      0x33f protocol/src/rfkill/.output/AR6320/hw.3/lib/librfkill.a(wlan_rfkill.o)
                                0x347 (size before relaxing)
                0x009a3284                handle_RFKillIntr
                0x009a32fc                config_gpio_intr
                0x009a3368                _wlan_rfkill_set_mode_cmd
                0x009a33d0                _wlan_rfkill_get_mode_cmd
                0x009a33fc                rfkill_handler
                0x009a3438                _wlan_rfkill_initconfig
 *fill*         0x009a356f        0x1 00
 .text          0x009a3570      0x46b protocol/src/wmi/.output/AR6320/hw.3/lib/libumacwmi.a(umac_wmi_events.o)
 *fill*         0x009a39db        0x1 00
 .text          0x009a39dc      0x24d protocol/src/wmi/.output/AR6320/hw.3/lib/libumacwmi.a(wlan_wmi.o)
                                0x251 (size before relaxing)
                0x009a39dc                _htc_buffer_dispatcher
                0x009a3a80                _wmi_get_wmi_version
                0x009a3a90                _wmi_get_htc_version
                0x009a3a9c                _wmi_setup_hostAppSpace_post_wmi_ready
                0x009a3acc                _wmi_eventq_busy
                0x009a3ae4                _wmi_requeue_buffer_from_host
                0x009a3b24                _wmi_htc_tx_complete
                0x009a3b5c                _wmi_free_dbglogbuf
                0x009a3b70                _wmi_is_dbglogbuf
                0x009a3b98                recovery_delay_timer_handle
                0x009a3bc8                _wmi_set_recovery_test_params
                0x009a3c00                wmi_set_recovery_test_params_cmd
                0x009a3c10                _RegisterWMIDispatchTables
 *fill*         0x009a3c29        0x3 00
 .text          0x009a3c2c      0x364 protocol/src/wmi/.output/AR6320/hw.3/lib/libumacwmi.a(wlan_wmi_events.o)
                0x009a3d00                _wmi_tpc_config_event
                0x009a3eb8                _wmi_eeprom_dump_event
                0x009a3f4c                _wmi_rfkill_send_state_change_event_to_host
 .text          0x009a3f90      0x122 protocol/src/wmi/.output/AR6320/hw.3/lib/libumacwmi.a(wmi_gpiohook.o)
 *fill*         0x009a40b2        0x2 00
 .text          0x009a40b4      0x49e protocol/src/wmi/.output/AR6320/hw.3/lib/libumacwmi.a(wmi_tlv_helper.o)
                                0x4a2 (size before relaxing)
                0x009a40b4                wmitlv_set_static_param_tlv_buf
                0x009a40c0                wmitlv_get_attributes
                0x009a421c                wmitlv_check_event_tlv_params
                0x009a4230                wmitlv_check_command_tlv_params
                0x009a44fc                wmitlv_check_and_pad_event_tlvs
                0x009a4514                wmitlv_check_and_pad_command_tlvs
                0x009a4534                wmitlv_free_allocated_command_tlvs
                0x009a4544                wmitlv_free_allocated_event_tlvs
 *fill*         0x009a4552        0x2 00
 .text          0x009a4554       0x31 protocol/src/wmi/.output/AR6320/hw.3/lib/libumacwmi.a(umac_wmi.o)
                0x009a4574                _UmacRegisterWMIDispatchTables
 *fill*         0x009a4585        0x3 00
 .text          0x009a4588      0xe77 protocol/src/mgmt/.output/AR6320/hw.3/lib/libmgmt.a(wlan_beacon.o)
                                0xe7f (size before relaxing)
                0x009a4588                wlan_beacon_set_tbd
                0x009a4590                _wlan_beacon_vdev_init
                0x009a4640                _wlan_beacon_vdev_shutdown
                0x009a4688                _wlan_beacon_queue_setup
                0x009a46d4                _wlan_beacon_setup
                0x009a4708                _wlan_beacon_takedown
                0x009a4718                _wlan_beacon_update_cw
                0x009a477c                _wlan_beacon_update_aggr_cw
                0x009a4784                _wlan_beacon_get_tim_info
                0x009a479c                _wlan_beacon_current_bss
                0x009a487c                wlan_beacon_handle_quiet
                0x009a49f0                _wlan_beacon_recv
                0x009a4adc                wlan_beacon_wal_tbttoffset_update_handler
                0x009a4af8                wlan_beacon_wal_swba_event_handler
                0x009a4b44                _wlan_beacon_swba_handler
                0x009a4b70                _wlan_beacon_tbttoffset_update_handler
                0x009a4bf0                _wlan_beacon_resync
                0x009a4c1c                _wlan_beacon_cancel_resync
                0x009a4c44                _wlan_set_listen_interval
                0x009a4c68                _wlan_get_listen_interval
                0x009a4c74                _wlan_set_beacon_interval
                0x009a4c80                _wlan_set_dtim_interval
                0x009a4c8c                _wlan_get_dtim_interval
                0x009a4ca0                _wlan_get_beacon_interval
                0x009a4cb0                _wlan_beacon_set_tsfoor_timer
                0x009a4cdc                _wlan_beacon_clear_tsfoor_timer
                0x009a4d00                _wlan_beacon_tsfoor_timer
                0x009a4d20                _wlan_tsfoor_handler
                0x009a4d98                _wlan_dtimsync_handler
                0x009a4ddc                _wlan_get_set_cab_timeout
                0x009a4dec                _wlan_get_set_bcn_timeout
                0x009a4dfc                _wlan_get_dtim_policy
                0x009a4e08                _wlan_set_dtim_policy
                0x009a4e74                _wlan_beacon_config
                0x009a50d4                _wlan_beacon_dtimsync_cb
                0x009a50ec                _wlan_beacon_tsfoor_cb
                0x009a5104                _wlan_beacon_ibss_tsfoor_cb
                0x009a5144                _wlan_beacon_bmiss_cb
                0x009a515c                _wlan_beacon_enable_bmiss
                0x009a5198                _wlan_beacon_register_bmiss_handlers
                0x009a51ac                _wlan_beacon_tim_cb
                0x009a51c4                _wlan_beacon_enable_tim
                0x009a51f0                _wlan_beacon_register_tim_handler
                0x009a5200                _wlan_beacon_brssi_cb
                0x009a523c                _wlan_beacon_enable_brssi_event
                0x009a5258                _wlan_beacon_disable_brssi_event
                0x009a5270                _wlan_beacon_enable_bmiss_event
                0x009a528c                _wlan_beacon_disable_bmiss_event
                0x009a52a4                _wlan_beacon_adjust_early_rx_start
                0x009a52c8                _wlan_beacon_adjust_early_rx_stop
                0x009a52e8                _wlan_beacon_adjust_early_rx_pause
                0x009a530c                _wlan_beacon_adjust_early_rx_unpause
                0x009a5330                _wlan_beacon_early_rx_set_tgt_bmiss_num
                0x009a534c                _wlan_beacon_early_rx_set_sample_cycle
                0x009a5364                _wlan_beacon_early_rx_set_slop_step
                0x009a5378                _wlan_beacon_early_rx_set_init_slop
                0x009a538c                _wlan_beacon_early_rx_bcn_rcv_handler
                0x009a53a8                _wlan_beacon_early_rx_drift_sample_start
                0x009a53c8                _wlan_beacon_early_rx_drift_sample_stop
                0x009a53e8                _wlan_beacon_vdev_evt_handler
 *fill*         0x009a53ff        0x1 00
 .text          0x009a5400      0xaf1 protocol/src/mgmt/.output/AR6320/hw.3/lib/libmgmt.a(wlan_early_rx_sm.o)
                                0xb0d (size before relaxing)
                0x009a5400                wlan_early_rx_sm_debug_print
                0x009a5408                wlan_early_rx_sm_get_dbglog_data
                0x009a5580                wlan_early_rx_drift_sample
                0x009a5664                _wlan_early_rx_bcn_rcv_handler
                0x009a5c7c                _wlan_early_rx_sm_start
                0x009a5c9c                _wlan_early_rx_sm_restart
                0x009a5cbc                _wlan_early_rx_sm_cancel
                0x009a5cdc                _wlan_early_rx_sm_pause
                0x009a5cfc                _wlan_early_rx_sm_unpause
                0x009a5d1c                _wlan_early_rx_sm_drift_sample_start
                0x009a5d48                _wlan_early_rx_sm_drift_sample_stop
                0x009a5dcc                _wlan_early_rx_sm_init
                0x009a5ea8                _wlan_early_rx_sm_exit
 *fill*         0x009a5ef1        0x3 00
 .text          0x009a5ef4       0xf5 protocol/src/mgmt/.output/AR6320/hw.3/lib/libmgmt.a(wlan_wnm.o)
                0x009a5ef4                wlan_mgmt_local_send_ethernetloopback
 *fill*         0x009a5fe9        0x3 00
 .text          0x009a5fec      0x138 protocol/src/power/.output/AR6320/hw.3/lib/libpower.a(wlan_pm_arbiter.o)
                0x009a5fec                wlan_pm_arbiter_resolve
                0x009a6014                wlan_pm_arbiter_create_instance
                0x009a604c                wlan_pm_arbiter_delete_instance
                0x009a608c                wlan_pm_arbiter_request
 .text          0x009a6124       0x57 protocol/src/power/.output/AR6320/hw.3/lib/libpower.a(wlan_powersave.o)
                                 0x5b (size before relaxing)
                0x009a6124                wlan_ps_process_pre_send
 *fill*         0x009a617b        0x1 00
 .text          0x009a617c     0x173f protocol/src/power/.output/AR6320/hw.3/lib/libpower.a(wlan_powersave_ap.o)
                0x009a61a4                wlan_ps_ap_sleep_sta_increment
                0x009a61f0                wlan_ps_ap_sleep_sta_decrement
                0x009a6234                wlan_ps_ap_cab_finish
                0x009a6288                wlan_ps_ap_cab_deliver
                0x009a631c                wlan_ps_ap_cab_continue
                0x009a6378                wlan_ps_ap_cab_start
                0x009a63a0                wlan_ps_ap_peer_get_pstate
                0x009a63ac                wlan_ps_ap_peer_update_tim
                0x009a640c                wlan_ps_buf_peer_get_delivery_tids
                0x009a6428                wlan_ps_buf_peer_get_legacy_tids
                0x009a644c                wlan_ps_buf_peer_sync_tim
                0x009a64ac                wlan_ps_buf_peer_next_response
                0x009a6564                wlan_ps_buf_peer_process_pre_send
                0x009a65cc                wlan_ps_buf_peer_process_completed_eosp
                0x009a663c                wlan_ps_buf_peer_process_send_complete
                0x009a66c0                wlan_ps_buf_peer_process_send_n_complete
                0x009a6720                wlan_ps_buf_wal_peer_event_handler
                0x009a676c                wlan_ps_buf_peer_send_nullfunc
                0x009a6798                wlan_ps_buf_peer_get_next_response_tid
                0x009a67f8                wlan_ps_buf_peer_send_uapsd_delivery_frames
                0x009a6a50                wlan_ps_buf_peer_send_pspoll_response_frame
                0x009a6b8c                wlan_ps_buf_peer_state_change
                0x009a6ce4                wlan_ps_ap_detect_out_of_sync_sta
                0x009a6d64                wlan_ps_buf_peer_process_trigger
                0x009a6e18                wlan_ps_buf_peer_process_pspoll
                0x009a6e50                wlan_ps_buf_peer_rx_mgmt
                0x009a6e84                wlan_ps_buf_peer_rx_ctrl
                0x009a6efc                wlan_ps_buf_peer_rx_data
                0x009a6fe8                wlan_ps_buf_peer_process_rx
                0x009a7058                wlan_ps_ap_create_tim
                0x009a714c                wlan_ps_ap_get_tim_info
                0x009a71b0                wlan_ps_ap_peer_create_instance
                0x009a7214                wlan_ps_buf_peer_create_instance
                0x009a7250                wlan_ps_ap_peer_delete_instance
                0x009a729c                wlan_ps_buf_peer_delete_instance
                0x009a72d8                wlan_ps_ap_vdev_notif_handler
                0x009a7328                wlan_ps_ap_wal_vdev_event_handler
                0x009a754c                wlan_ps_ap_create_instance
                0x009a75f4                wlan_ps_ap_delete_instance
                0x009a769c                wlan_ps_ap_allow_wow
                0x009a76f4                wlan_ps_wmi_ap_peer_param_cmd
 *fill*         0x009a78bb        0x1 00
 .text          0x009a78bc     0x1334 protocol/src/power/.output/AR6320/hw.3/lib/libpower.a(wlan_powersave_ibss.o)
                               0x1338 (size before relaxing)
                0x009a78f8                wlan_ps_ibss_sm_debug_print
                0x009a7900                wlan_ps_ibss_sm_get_dbglog_data
                0x009a7a68                _wlan_ps_ibss_register
                0x009a7a7c                wlan_ps_ibss_mc_tx_timeout
                0x009a7b08                wlan_ps_ibss_null_frame_tx_completion_cb_handler
                0x009a7b1c                _wlan_ps_ibss_null_frame_tx_completion_cb
                0x009a7bd4                wlan_ps_ibss_send_nullfunc
                0x009a7c74                wlan_ps_ibss_atim_window_timeout
                0x009a7c84                wlan_ps_ibss_connection_pause_send_frames
                0x009a7cbc                _wlan_ps_ibss_find_txdone_hanlder
                0x009a7cdc                wlan_ps_ibss_protocol_sleep_timeout
                0x009a7cf8                wlan_ps_ibss_vdev_pause_timeout
                0x009a7d08                _wlan_ps_ibss_set_param_handler_internal
                0x009a7e2c                _wlan_ps_ibss_create_instance
                0x009a7f24                wlan_ps_ibss_bt_state_change_handler
                0x009a7f74                wlan_ps_ibss_unregister_event_notifications
                0x009a7fdc                _wlan_ps_ibss_delete_instance
                0x009a805c                wlan_ps_ibss_uc_tx_timeout
                0x009a80f8                wlan_ps_ibss_change_rx_chainmask
                0x009a81f4                _wlan_ps_ibss_peer_create_instance
                0x009a82a8                _wlan_ps_ibss_peer_delete_instance
                0x009a8314                _wlan_ps_ibss_wal_peer_event_pre_send
                0x009a8378                _wlan_ps_ibss_vdev_notif_handler
                0x009a83cc                _wlan_ps_ibss_beacon_send_comp
                0x009a83e8                _wlan_ps_ibss_swba_handler
                0x009a8408                _wlan_ps_ibss_set_param_handler
                0x009a8468                _wlan_ps_ibss_wal_vdev_event_handler
                0x009a8494                wlan_ps_ibss_register_event_notifications
                0x009a856c                _wlan_ps_ibss_vdev_up_handler
                0x009a85e8                _wlan_ps_ibss_get_atim_window_length
                0x009a85fc                _wlan_ps_ibss_nw_powersve_enabled
                0x009a8614                _wlan_ps_ibss_unregister_atim_win_notification
                0x009a8674                _wlan_ps_ibss_register_atim_win_notification
                0x009a86a8                _wlan_ps_ibss_coex_unregister_frame_protection
                0x009a86c0                _wlan_ps_ibss_coex_register_for_frame_protection
                0x009a86d8                wlan_ps_ibss_wal_peer_event
                0x009a8860                wlan_ps_ibss_set_peer_event_handlers
                0x009a88d0                wlan_ps_ibss_wal_pdev_event_hdlr
                0x009a89dc                _wlan_ps_ibss_set_peer_param_handler
                0x009a8a70                _wlan_ps_ibss_validate_bcn_atim_window_length
                0x009a8b48                _wlan_ps_ibss_pause
                0x009a8bc0                _wlan_ps_ibss_unpause
 .text          0x009a8bf0     0x1586 protocol/src/power/.output/AR6320/hw.3/lib/libpower.a(wlan_powersave_ibss_nw_sm.o)
                               0x1592 (size before relaxing)
                0x009a8c4c                wlan_ps_ibss_nw_sm_get_dbglog_data
                0x009a8d20                wlan_ps_ibss_get_nexttbtt
                0x009a8fd0                wlan_ps_ibss_unicast_timeout_null_completion
                0x009a9064                wlan_ps_ibss_multicast_timeout_null_completion
                0x009aa124                wlan_ps_ibss_nw_sm_shared_create
                0x009aa150                wlan_ps_ibss_nw_sm_init
 *fill*         0x009aa176        0x2 00
 .text          0x009aa178      0x2ef protocol/src/power/.output/AR6320/hw.3/lib/libpower.a(wlan_powersave_ibss_peer_ps_sm.o)
                0x009aa194                wlan_ps_ibss_peer_ps_sm_get_dbglog_data
                0x009aa1c0                wlan_ps_ibss_peer_ps_state_monitor_timeout
                0x009aa414                wlan_ps_ibss_peer_ps_sm_shared_create
                0x009aa440                wlan_ps_ibss_peer_ps_sm_init
 *fill*         0x009aa467        0x1 00
 .text          0x009aa468      0xafb protocol/src/power/.output/AR6320/hw.3/lib/libpower.a(wlan_powersave_ibss_self_ps_sm.o)
                                0xaff (size before relaxing)
                0x009aa484                wlan_ps_ibss_ps_sm_get_dbglog_data
                0x009aa4b4                wlan_ps_ibss_self_ps_state_notification_timeout
                0x009aa524                wlan_ps_ibss_vdev_self_pause_cb
                0x009aa778                wlan_ps_ibss_sleep_timeout
                0x009aaf10                wlan_ps_ibss_ps_sm_shared_create
                0x009aaf3c                wlan_ps_ibss_ps_sm_init
 *fill*         0x009aaf63        0x1 00
 .text          0x009aaf64     0x1091 protocol/src/power/.output/AR6320/hw.3/lib/libpower.a(wlan_powersave_sta.o)
                               0x109d (size before relaxing)
                0x009aaf80                wlan_ps_sta_wal_peer_event_pre_send
                0x009aafd8                wlan_ps_sta_wal_peer_event
                0x009ab198                wlan_ps_sta_wal_vdev_event
                0x009ab1c0                wlan_ps_sta_set_event_handlers
                0x009ab244                wlan_ps_sta_txrx_inactivity_check
                0x009ab31c                wlan_ps_sta_txrx_inactivity_timeout
                0x009ab328                wlan_ps_sta_pspoll_timeout
                0x009ab338                wlan_ps_sta_uapsd_timeout
                0x009ab348                wlan_ps_sta_delayed_sleep_timeout
                0x009ab358                wlan_ps_sta_wake_up_from_sleep_timeout
                0x009ab368                wlan_ps_sta_qpower_resync_settings
                0x009ab3ec                wlan_ps_sta_p2p_event_handler
                0x009ab434                wlan_ps_sta_vdev_notif_handler
                0x009ab51c                wlan_ps_sta_create_instance
                0x009ab690                wlan_ps_sta_delete_instance
                0x009ab70c                wlan_ps_sta_set_mode
                0x009ab758                wlan_ps_sta_pause
                0x009ab7e0                wlan_ps_sta_unpause
                0x009ab81c                wlan_ps_sta_pspoll_allow
                0x009ab890                wlan_ps_sta_send_pspoll
                0x009ab8b8                wlan_ps_sta_register_coex_ops
                0x009ab8cc                wlan_ps_sta_deliver_event
                0x009ab95c                wlan_ps_sta_set_param
                0x009abbb4                wlan_ps_sta_get_param
                0x009abbc8                wlan_ps_wmi_sta_powersave_mode_cmd
                0x009abbe8                wlan_ps_wmi_sta_powersave_param_cmd
                0x009abc64                wlan_ps_sta_update_uapsd_auto_trig_timer
                0x009abd20                wlan_ps_wmi_sta_uapsd_auto_trig
                0x009abe60                wlan_ps_sta_set_fw_override_mode
                0x009abf28                wlan_ps_sta_set_coex_mode
                0x009abf38                wlan_ps_sta_coex_ops_pspoll_sequence_done
                0x009abfa0                wlan_ps_resync_bt_connection
                0x009abfb0                wlan_ps_vote_for_qpower
 *fill*         0x009abff5        0x3 00
 .text          0x009abff8     0x1968 protocol/src/power/.output/AR6320/hw.3/lib/libpower.a(wlan_powersave_sta_sm.o)
                               0x1974 (size before relaxing)
                0x009ad7dc                wlan_ps_sta_update_sm
                0x009ad83c                wlan_ps_sta_sm_debug_print
                0x009ad844                wlan_ps_sta_sm_get_dbglog_data
                0x009ad920                wlan_ps_sta_sm_shared_create
                0x009ad94c                wlan_ps_sta_sm_init
 .text          0x009ad960      0x1d5 protocol/src/power/.output/AR6320/hw.3/lib/libpower.a(wlan_powersave_tdls.o)
                                0x1e1 (size before relaxing)
                0x009ad960                wlan_ps_tdls_wal_peer_event_handler
                0x009ada04                wlan_ps_tdls_init_default_configs
                0x009adac0                wlan_tdls_ps_peer
                0x009adac8                wlan_tdls_ps_state_change
                0x009adae8                wlan_tdls_buf_peer_process_pre_send
 *fill*         0x009adb35        0x3 00
 .text          0x009adb38       0x5f protocol/src/power/.output/AR6320/hw.3/lib/libpower.a(wlan_qpower.o)
                0x009adb38                wlan_qpower_update_inactivity_timeout
 *fill*         0x009adb97        0x1 00
 .text          0x009adb98      0x437 protocol/src/resmgr/.output/AR6320/hw.3/lib/libresmgr.a(channel_mgr.o)
                                0x457 (size before relaxing)
                0x009adc84                _channel_mgr_switch_request
                0x009add10                _channel_mgr_pause_complete
                0x009adf6c                _channel_mgr_cts2s_tx_complete
                0x009adfac                _channel_mgr_set_abort_chan_change
                0x009adfc4                _channel_mgr_chan_change_new_chan
 *fill*         0x009adfcf        0x1 00
 .text          0x009adfd0      0x605 protocol/src/resmgr/.output/AR6320/hw.3/lib/libresmgr.a(resmgr.o)
                                0x611 (size before relaxing)
                0x009ae094                _resmgr_get_link_pause_delay_usec
                0x009ae0a4                _resmgr_get_virtual_chan_smps_handle
                0x009ae0b4                _resmgr_get_virtual_chan_pause_delay_usec
                0x009ae0c4                _resmgr_get_home_channels
                0x009ae0d8                _resmgr_create_link
                0x009ae18c                _resmgr_delete_link
                0x009ae1d0                _resmgr_update_link_attribute_status
                0x009ae1f4                _resmgr_update_link_linkops
                0x009ae208                _resmgr_update_link
                0x009ae2b4                _resmgr_get_chan_stats
                0x009ae2c0                _resmgr_get_max_mcc_channels
                0x009ae2cc                _resmgr_virtual_chan_send_cts2s
                0x009ae324                _resmgr_virtual_chan_send_cfend
                0x009ae354                _resmgr_set_ch_param
                0x009ae47c                _resmgr_get_ch_param
                0x009ae5a0                _resmgr_update_virtual_chan
                0x009ae5b0                _resmgr_is_cts2s_sent_on_chan
                0x009ae5c4                _resmgr_ocs_chan_change_new_chan
 *fill*         0x009ae5d5        0x3 00
 .text          0x009ae5d8      0x63b protocol/src/resmgr/.output/AR6320/hw.3/lib/libresmgr.a(resmgr_dyn_sch.o)
                                0x65f (size before relaxing)
                0x009ae8f4                _resmgr_dyn_sch_en_dis
                0x009ae9b4                resmgr_dyn_sch_indicate_home_ch_update
                0x009ae9c0                resmgr_dyn_sch_handle_chan_time_compl
                0x009aeaac                resmgr_dyn_sch_handle_chan_time_start
                0x009aeb2c                resmgr_dyn_sch_handle_latency_requirements
 *fill*         0x009aec13        0x1 00
 .text          0x009aec14     0x2972 protocol/src/resmgr/.output/AR6320/hw.3/lib/libresmgr.a(resmgr_ocs.o)
                               0x297a (size before relaxing)
                0x009aeef4                resmgr_ocs_ch_req_restart
                0x009af228                resmgr_ocs_insert_req_timeslot
                0x009b02ac                resmgr_ocs_adjust_cat_timeslots
                0x009b0344                resmgr_ocs_schedule_channel_transition
                0x009b03f8                resmgr_ocs_get_next_tsftimer
                0x009b0ae0                resmgr_ocs_find_ch_allocator
                0x009b0c78                resmgr_ocs_ch_sx_hdlr
                0x009b0cd8                _resmgr_ocs_ch_req_create
                0x009b0e48                _wlan_ch_req_info
                0x009b0e58                _resmgr_ocs_ch_req_delete
                0x009b0efc                _resmgr_ocs_ch_req_update
                0x009b10a0                _resmgr_ocs_ch_req_strict_timing_update
                0x009b10f4                resmgr_ocs_update_quota_and_latency
                0x009b1214                _resmgr_ocs_ch_req_start
                0x009b12bc                _resmgr_ocs_ch_req_stop
                0x009b1334                resmgr_ocs_notify_channel_change
                0x009b13c0                _resmgr_ocs_update_ch_alloc_chan
                0x009b13d8                _resmgr_ocs_is_bt_req_present
                0x009b13f4                resmgr_ocs_find_notif_data
                0x009b1410                _resmgr_ocs_register_notif_handler
                0x009b1488                _resmgr_ocs_deregister_notif_handler
                0x009b1504                resmgr_ocs_deliver_notif
                0x009b1570                _resmgr_ocs_is_ch_req_in_runqueue
 *fill*         0x009b1586        0x2 00
 .text          0x009b1588      0xa27 protocol/src/resmgr/.output/AR6320/hw.3/lib/libresmgr.a(virtual_channel.o)
                0x009b1588                print_link_list
                0x009b167c                wlan_virtual_chan_set_cts2s_sent
                0x009b1914                wlan_virtual_chan_get_home_chans
                0x009b1948                wlan_virtual_chan_update_cur_vc
                0x009b1988                wlan_virtual_chan_get_cur_vc
                0x009b1990                wlan_virtual_chan_get_virtual_chan_for_channel
                0x009b19d0                wlan_virtual_chan_get_smps_handle
                0x009b19d8                wlan_virtual_chan_get_pause_delay
                0x009b19e8                wlan_virtual_chan_get_vc_latency_on_home_chans
                0x009b1a20                wlan_virtual_chan_register_link
                0x009b1a68                wlan_virtual_chan_unregister_link
                0x009b1b38                wlan_get_chan_stats_ctxt
                0x009b1b40                wlan_virtual_chan_send_cts2s
                0x009b1c88                wlan_virtual_chan_send_cfend
                0x009b1d40                channel_mgr_local_frame_cts2s_tx_completion
                0x009b1d7c                channel_mgr_local_frame_cfend_tx_completion
                0x009b1db4                _wlan_virtual_chan_send_cts2self
                0x009b1ddc                _wlan_virtual_chan_smps_send_action_frame
                0x009b1dfc                _wlan_virtual_chan_smps_register_events
                0x009b1e1c                _wlan_virtual_chan_smps_update_rssi_values
                0x009b1e38                _wlan_virtual_chan_smps_is_rssi_above_thresh
                0x009b1e5c                _wlan_virtual_chan_enable_stats
                0x009b1e84                _wlan_virtual_chan_get_dtim_rx_chainmask_for_cur_virtual_chan
                0x009b1ea0                _wlan_virtual_chan_get_dtim_rx_chainmask
                0x009b1ed8                wlan_virtual_chan_reset_dtim_rx_chainmask
                0x009b1f0c                wlan_virtual_chan_reset_dtim_rx_chainmask_for_cur_virtual_chan
                0x009b1f1c                wlan_virtual_chan_register_beacon_rx
                0x009b1f38                wlan_virtual_chan_resume_smps_on_cur_chan
                0x009b1f54                wlan_virtual_chan_get_mhz_for_virtual_chan
                0x009b1f5c                wlan_virtual_chan_configure_attributes
                0x009b1f78                wlan_virtual_chan_is_cts2s_sent
                0x009b1f94                wlan_virtual_chan_update_chan
 *fill*         0x009b1faf        0x1 00
 .text          0x009b1fb0      0x2bd protocol/src/resmgr/.output/AR6320/hw.3/lib/libresmgr.a(virtual_channel_arbiter.o)
                0x009b225c                wlan_virtual_chan_arbitrate_vc_attributes
 *fill*         0x009b226d        0x3 00
 .text          0x009b2270     0x1481 mac_core/src/hostif/htc/.output/AR6320/hw.3/lib/libhtc.a(htc.o)
                0x009b2270                _HTC_PipeAddBufferResources
                0x009b2278                _HTCPipePutRecvBuffers
                0x009b22a4                _HTCPipeGetRecvBuffer
                0x009b22c0                _HTCPipePostRecvBuffers
                0x009b2340                _HTCPipeProcessControlMsg
                0x009b24d8                _HTCPipeProcessConnectMsg
                0x009b2654                _HTCPipeSendSuspendCompleted
                0x009b26a0                HifLayerSendDoneCallback
                0x009b27e4                _HTCPipeProcessRecvMessage
                0x009b293c                _HTCPipeProcessRecvBundle
                0x009b29d0                HifLayerRecvCallback
                0x009b2b30                _HTCSetupPipeResource
                0x009b2b74                _HTC_PipeInitEx
                0x009b2b90                _HTC_PipeRegisterService
                0x009b2ba0                _HTCPipeSetupPipes
                0x009b2bf0                _HTC_PipeReady
                0x009b2cc4                _HTC_PipeReturnBuffers
                0x009b2d7c                _HTCPipeAddCreditReports
                0x009b2e68                _HTCPipeTryAllocateTrailer
                0x009b2ed4                _HTC_PipeSendMsg
                0x009b2fa0                _HTC_PipePauseRecv
                0x009b2fb8                _HTC_PipeResumeRecv
                0x009b2ffc                _HTC_PipeGetNumSendBufsPending
                0x009b3004                _HTC_SuspendSend
                0x009b3138                _HTC_NACKSuspend
                0x009b3194                _HTCPipeFreeMsgBuffer
                0x009b31c4                _HTCPipeAllocMsgBuffer
                0x009b31e0                _HTCPipeProcessCtrlSendComplete
                0x009b32c0                _HTCPipeIndicateSendComplete
                0x009b32f0                _HTCPipeEnqueuePausedRecv
                0x009b3314                _HTCPipeDequeuePausedRecv
                0x009b3368                _HTCPipeIndicateRecvMgs
                0x009b33e4                _HTCPipeAdjustCreditThreshold
                0x009b3414                _HTCPipeCheckAndSendCreditReport
                0x009b34d0                _HTCPipeRegisterWowTimestampCB
                0x009b34dc                _PrepMsgInfo
                0x009b3598                _CompleteHTCMsg
                0x009b3600                _PipeSendCommit
                0x009b3680                _HTC_GenericPipeSendBundle
                0x009b36a0                _HTC_GenericPipeCommitLookahead
                0x009b36a8                _HTC_GenericPipeClrLookaheadStatus
                0x009b36b0                _RemoveAddedTrailer
 *fill*         0x009b36f1        0x3 00
 .text          0x009b36f4      0xe5c mac_core/src/hostif/htt/.output/AR6320/hw.3/lib/libhtt.a(htt_tgt_hif_svc.o)
                                0xe64 (size before relaxing)
                0x009b36f4                _htt_tgt_hif_svc_get_extra_htc_trailer_size
                0x009b370c                _htt_tgt_hif_svc_data_to_host
                0x009b3c3c                _htt_tgt_hif_svc_msg_to_host
                0x009b3d6c                _htt_tgt_hif_svc_connect
                0x009b3d90                _htt_tgt_hif_svc_callback
                0x009b3db4                _htt_tgt_hif_svc_callback_hl
                0x009b3e60                _htt_tgt_hif_svc_cb_set
                0x009b3e84                _htt_tgt_hif_svc_max_buf_sz
                0x009b3e9c                _htt_tgt_hif_svc_max_msg_sz
                0x009b3ea8                _htt_tgt_hif_svc_return_msg_buffer
                0x009b3f00                _htt_tgt_hif_svc_load_msdu_id_map
                0x009b3f7c                _htt_tgt_hif_svc_save_msdu_id_map
                0x009b3fd0                _htt_tgt_hif_svc_h2t_msg_dispatch
                0x009b40c0                _htt_tgt_hif_svc_h2t_input
                0x009b4140                _htt_tgt_hif_svc_sync
                0x009b4190                _htt_tgt_hif_svc_h2t_sync_msg_handler
                0x009b41b8                _htt_tgt_hif_svc_msg_free
                0x009b4250                _htt_tgt_tx_credit_msg_free
                0x009b4268                _htt_tgt_hif_svc_msg_alloc
                0x009b4294                _htt_tgt_hif_svc_msg_avail_space
                0x009b42ac                _htt_tgt_tx_credit_msg_alloc
                0x009b42d0                _htt_tgt_hif_svc_msg_realloc
                0x009b42f4                _htt_tgt_hif_svc_h2t_msg_cb_set
                0x009b4330                _htt_tgt_hif_svc_init_wlanbuf_fn
                0x009b434c                _htt_tgt_hif_svc_h2t_msg_cb_get
                0x009b4370                _htt_tgt_hif_svc_tx_buffer_dispatcher
                0x009b43dc                _htt_tgt_hif_svc_h2t_refill_recv_buf
                0x009b444c                _htt_tgt_hif_svc_h2t_recv_buf_pool_init
                0x009b4460                _htt_tgt_hif_svc_h2t_recv_buf_pool_init_hl
                0x009b4474                _htt_tgt_hif_svc_tx_credit_update
                0x009b4508                _htt_tgt_hif_svc_ver_req
                0x009b4538                _htt_tgt_hif_svc_h2t_frag_desc_bank_cfg
 .text          0x009b4550      0x8a4 mac_core/src/hostif/htt/.output/AR6320/hw.3/lib/libhtt.a(htt_tgt_rx.o)
                0x009b4550                _htt_tgt_rx_msg_buf
                0x009b4560                _htt_tgt_rx_frag_msg_buf
                0x009b4570                _htt_tgt_rx_ind_handler
                0x009b4728                _htt_tgt_rx_buffer_init
                0x009b473c                _htt_tgt_rx_buffer_dispatcher
                0x009b4758                _htt_tgt_rx_init_intf_wlanbuf_fn
                0x009b4784                _htt_tgt_rx_ring_enque
                0x009b4818                _htt_tgt_rx_ring_deque
                0x009b488c                _htt_tgt_rx_ring_enable
                0x009b48d8                _htt_tgt_rx_ring_init
                0x009b48f8                _htt_tgt_rx_ring_consumed
                0x009b4910                _htt_tgt_rx_host_buff_refill_comp
                0x009b4994                _htt_tgt_rx_host_buff_refill_req
                0x009b4a8c                _htt_tgt_rx_ring_config
                0x009b4cd0                _htt_tgt_rx_host_idx_read
                0x009b4d18                _htt_tgt_rx_host_idx_program
                0x009b4d3c                htt_tgt_rx_copy_host
                0x009b4dc8                htt_tgt_rx_host_copy_flush
 .text          0x009b4df4      0xe72 mac_core/src/hostif/htt/.output/AR6320/hw.3/lib/libhtt.a(htt_tgt_rx_event.o)
                0x009b4df4                _htt_tgt_rx_ind_in_order_range_finalize
                0x009b4e48                _htt_tgt_rx_event_ind_flush_ie_finalize
                0x009b4ec8                _htt_tgt_rx_event_ind_ie_finalize
                0x009b4f34                _htt_tgt_rx_event_ind_finalize
                0x009b4fb0                _htt_tgt_rx_event_ind_reorder_sync
                0x009b4ff4                _htt_tgt_rx_event_ind_msg_alloc
                0x009b5048                _htt_tgt_rx_ind_flush_ie_add
                0x009b5084                _htt_tgt_rx_ind_payload_add
                0x009b5124                _htt_tgt_rx_ind_finalize_and_send
                0x009b5184                _htt_tgt_rx_ind_ppdu_start
                0x009b52e8                _htt_tgt_rx_ind_ppdu_end
                0x009b53bc                _htt_tgt_rx_event_peer_id_add
                0x009b5438                _htt_tgt_rx_event_peer_id_del
                0x009b54a0                _htt_tgt_rx_event_sec_ind
                0x009b5540                _htt_tgt_rx_event
                0x009b55d4                _htt_tgt_rx_evt_forward
                0x009b5b80                _htt_tgt_rx_frag_ind
                0x009b5c0c                _htt_tgt_rx_offload_deliver_ind
                0x009b5c34                _htt_tgt_rx_register_wdi_ipa_cb
 *fill*         0x009b5c66        0x2 00
 .text          0x009b5c68      0x3aa mac_core/src/hostif/htt/.output/AR6320/hw.3/lib/libhtt.a(htt_tgt_stats.o)
                0x009b5c68                _htt_tgt_stats_reset
                0x009b5ce8                _htt_tgt_stats_upload
                0x009b5fac                _htt_tgt_stats_get
                0x009b5ff4                _htt_tgt_stats_upload_complete
 *fill*         0x009b6012        0x2 00
 .text          0x009b6014      0x838 mac_core/src/hostif/htt/.output/AR6320/hw.3/lib/libhtt.a(htt_tgt_tx.o)
                0x009b6014                _htt_tgt_tx_compl_ind
                0x009b62a8                _htt_tgt_mgmt_tx_compl_ind_complete
                0x009b62c8                _htt_tgt_mgmt_tx_comp_buf_get
                0x009b62f0                _htt_tgt_mgmt_tx_compl_ind
                0x009b6378                _htt_tgt_tx_buf_req
                0x009b63c4                _htt_tgt_tx_input
                0x009b6588                _htt_tgt_tx_aggr_cfg
                0x009b6600                _htt_tgt_tx_aggr_cfg_ex
                0x009b6650                _htt_tgt_tx_mgmt
                0x009b6800                _htt_tgt_tx_mgmt_on_compl_cb
                0x009b6828                _htt_tgt_tx_pending
                0x009b6834                _htt_tgt_tx_enable
 .text          0x009b684c      0x371 mac_core/src/utils/sm/.output/AR6320/hw.3/lib/libsm.a(sm.o)
                                0x375 (size before relaxing)
                0x009b684c                _sm_shared_create
                0x009b68e4                _sm_init
                0x009b690c                _sm_get_curstate
                0x009b6914                _sm_get_next_state
                0x009b691c                _sm_get_prev_state
                0x009b69e4                _sm_dispatch
                0x009b6af8                _sm_transition_to
 *fill*         0x009b6bbd        0x3 00
 .text          0x009b6bc0     0x25a7 protocol/src/coex/.output/AR6320/hw.3/lib/libcoex.a(coex.o)
                               0x25b3 (size before relaxing)
                0x009b6bc0                coex_modem_state_cmd
                0x009b6bd4                coex_chan_avoid_update_cmd
                0x009b6be4                _coex_send_pspoll
                0x009b6c64                _coex_add_ap_response_datapoint
                0x009b6d40                _coex_psp_pre_pspoll_tx_cb
                0x009b6d54                _coex_ps_sta_tx_complete
                0x009b6dcc                _coex_ps_sta_rx_data
                0x009b6e14                _coex_ps_psp_sequence_done
                0x009b6e88                _coex_ps_tim
                0x009b6e9c                _coex_ps_pre_state_transition
                0x009b6eb0                _coex_ps_post_state_transition
                0x009b6ec4                _coex_ps_psp_ready_cb
                0x009b6ed8                _coex_ps_psp_not_ready_cb
                0x009b6eec                _coex_ps_psp_coex_mode_cb
                0x009b6f30                _coex_scheduler_wlan_start_cb
                0x009b6f50                _coex_scheduler_nonwlan_start_cb
                0x009b6f70                _coex_scheduler_prepare_nonwlan_int_start_cb
                0x009b6f84                _coex_nonwlan_base_interval_update_cb
                0x009b6fdc                _coex_psp_get_current_state_cb
                0x009b6fec                _coex_psp_mgr
                0x009b75e0                _coex_expiration_timer_handler
                0x009b760c                _coex_send_cts2s
                0x009b7694                _coex_cts2s_mgr
                0x009b7784                _coex_cts2s_mode_cb
                0x009b77a0                _coex_cts2s_state_cb
                0x009b77b8                _coex_cts2s_update_leading
                0x009b77c8                _coex_cts2s_update_tbd_duration
                0x009b7820                _coex_cts2s_prepare_nonwlan_intval
                0x009b7894                _coex_cts2s_delay_send_timeout
                0x009b78ec                _coex_cts2s_flush_leading_timeout
                0x009b78f4                _coex_avoid_freq_notify
                0x009b7990                _coex_wlan_mgmt_txrx_operation_cb
                0x009b79b8                _coex_debug_print_to_host
                0x009b7a08                _coex_vdev_pause_cb
                0x009b7a20                _coex_vdev_unpause_cb
                0x009b7a38                _coex_pdev_wlan_prw_limit_sar
                0x009b7a54                _coex_vdev_pause
                0x009b7aec                _coex_sleep_enable
                0x009b7b5c                _coex_set_rc_max_nss
                0x009b7b74                _coex_set_tbd
                0x009b7bb0                _coex_force_cts2s_tx_cb
                0x009b7c18                _coex_force_cts2s_res_cb
                0x009b7cb8                _coex_scan_event_cb
                0x009b7df8                _coex_nan_event_cb
                0x009b7ed0                _coex_get_11bg_peers_num
                0x009b7f8c                _coex_vdev_mgr_cb
                0x009b8398                _coex_set_swbmiss
                0x009b83cc                _coex_set_swbmiss_param
                0x009b83d4                _coex_set_enable_cck_rate
                0x009b83f0                coex_swbmiss_handler
                0x009b842c                _coex_smps_set_forced_mode
                0x009b846c                _coex_get_default_chain_mask
                0x009b847c                _coex_start_cri_req
                0x009b850c                _coex_bt_chreq_cb
                0x009b85cc                _coex_beacon_queue_unpause
                0x009b8668                _coex_start_bt_req
                0x009b87d8                _coex_start_bt_req_oneshot
                0x009b8874                _coex_update_bt_req_oneshot
                0x009b88ec                _coex_stop_bt_req
                0x009b8918                _coex_del_bt_req
                0x009b898c                _coex_update_bt_req
                0x009b8abc                _coex_vdev_created
                0x009b8b38                _coex_p2p_noa_event_handler
                0x009b8b88                _coex_delete_noa
                0x009b8ba8                _coex_config_oneshot_noa
                0x009b8bb0                _coex_config_periodic_noa
                0x009b8be8                _coex_atim_win_notification_cb
                0x009b8c4c                _coex_ibss_ps_frame_protect
                0x009b8cd8                _coex_pause_tdls_offchan
                0x009b8cf8                _coex_register_bt_state_handler
                0x009b8d08                _coex_unregister_bt_state_handler
                0x009b8d18                _coex_get_bt_state
                0x009b8d2c                _coex_set_data_rx_reorder_timeout
                0x009b8d4c                _coex_ba_teardown_update
                0x009b8d54                _coex_set_aggr_size
                0x009b8e08                _coex_bt_power_status_handler
                0x009b8e88                _coex_ps_resync_bt_connection
                0x009b8e9c                _coex_dynamic_ocs_delay_timeout_handler
                0x009b8ef0                _coex_dynamic_ocs_mgr
                0x009b906c                _coex_ocs_recompute_schedule
                0x009b9154                _coex_ocs_event_cb
 *fill*         0x009b9167        0x1 00
 .text          0x009b9168      0x169 protocol/src/scan/.output/AR6320/hw.3/lib/libscan.a(wlan_dcs.o)
 *fill*         0x009b92d1        0x3 00
 .text          0x009b92d4      0xdce protocol/src/scan/.output/AR6320/hw.3/lib/libscan.a(wlan_scan_sch.o)
                0x009b986c                wlan_scan_scheduler_preprocess_event
                0x009b98c0                wlan_scan_sch_internal_event_handler
                0x009b99a8                wlan_scan_scheduler_postprocess_event
                0x009b9a5c                _wlan_scan_sch_deliver_event
                0x009b9e48                _wlan_scan_sch_start
                0x009b9e60                _wlan_scan_sch_cancel
                0x009b9e74                _wlan_scan_sch_register_event_handler
                0x009b9ea8                _wlan_scan_sch_unregister_event_handler
                0x009b9ee0                _wlan_scan_sch_bcn_recvd
                0x009b9ee8                _wlan_scan_get_support_ch
                0x009b9fb8                _wlan_scan_sch_dis_active_csa_recvd
                0x009ba024                _wlan_scan_get_ch_dwell_time
                0x009ba064                _wlan_scan_get_ch_is_passive
 *fill*         0x009ba0a2        0x2 00
 .text          0x009ba0a4     0x1427 protocol/src/scan/.output/AR6320/hw.3/lib/libscan.a(wlan_scan_sm.o)
                               0x142f (size before relaxing)
                0x009ba0a4                wlan_scan_sm_debug_print
                0x009ba0ac                wlan_scan_sm_get_dbglog_data
                0x009ba40c                wlan_scan_chreq_cb
                0x009bac30                install_scan_var_stub
                0x009bb3d8                wlan_scan_probe_timeout
                0x009bb3f8                wlan_scan_activity_timeout
                0x009bb418                wlan_scan_dwell_time_timeout
                0x009bb438                wlan_scan_rest_time_timeout
                0x009bb458                wlan_scan_local_probe_timeout
                0x009bb478                _wlan_scan_sm_start
                0x009bb498                _wlan_scan_sm_cancel
 *fill*         0x009bb4cb        0x1 00
 .text          0x009bb4cc      0x833 protocol/src/scan/.output/AR6320/hw.3/lib/libscan.a(wlan_scan.o)
                0x009bb4cc                wlan_scan_autochan_event_handler
                0x009bb55c                wlan_scan_age_out_bcn_found
                0x009bb5e0                wlan_scan_age_out_radar_detected
                0x009bb670                wlan_scan_timeout_handler
                0x009bb6c4                _wlan_scan_is_2G_passive_included
                0x009bb828                _wlan_scan_start
                0x009bbb6c                _wlan_scan_cancel
                0x009bbbec                _wlan_scan_set_chan_list
                0x009bbc6c                _wlan_scan_bcn_recvd
 *fill*         0x009bbcff        0x1 00
 .text          0x009bbd00      0x7ae protocol/src/roam/.output/AR6320/hw.3/lib/libroam.a(wlan_roam.o)
                0x009bbd00                _wlan_vdev_roam_init
                0x009bbde4                _wlan_vdev_roam_free
                0x009bbe3c                _wlan_vdev_roam_set_param
                0x009bc2a8                _wlan_vdev_roam_get_param
                0x009bc2d8                _wlan_vdev_roam_invoke_roam
 *fill*         0x009bc4ae        0x2 00
 .text          0x009bc4b0     0x1b5a protocol/src/roam/.output/AR6320/hw.3/lib/libroam.a(wlan_roam_internal.o)
                0x009bc4b0                _wlan_vdev_roam_scan_timer_ctrl
                0x009bc520                _wlan_vdev_roam_update_rssi_thresholds
                0x009bc730                wlan_vdev_roam_rssi_event_handler
                0x009bcacc                _wlan_roam_swbmiss_evt_handler
                0x009bccbc                _wlan_roam_event_to_host
                0x009bcd30                _wlan_roam_scan_start
                0x009bd110                _wlan_vdev_roam_start
                0x009bd1cc                _wlan_vdev_roam_stop
                0x009bd2cc                _wlan_vdev_roam_scan_periodic_fn
                0x009bd338                _wlan_roam_vdev_evt_handler
                0x009bd36c                _wlan_roam_convert_wmi_sec_params
                0x009bd3a8                _wlan_roam_convert_wmi_auth_params
                0x009bd43c                _wlan_roam_parse_rsn_ie
                0x009bd650                _wlan_roam_parse_wpa_ie
                0x009bd7c0                _wlan_roam_match_rsn_params
                0x009bd884                _wlan_roam_scan_bcnprb_hdlr
                0x009bdc24                _wlan_roam_scan_evt_handler
                0x009bdf70                _wlan_roam_vdev_setup_rssi_events
 *fill*         0x009be00a        0x2 00
 .text          0x009be00c      0x15f protocol/src/roam/.output/AR6320/hw.3/lib/libroam.a(wlan_roam_wmi.o)
 *fill*         0x009be16b        0x1 00
 .text          0x009be16c      0x612 protocol/src/pps/.output/AR6320/hw.3/lib/libpps.a(wlan_pps.o)
                0x009be16c                _can_ebt_enable
                0x009be1e4                _wlan_pps_update_ebt
                0x009be2d8                _wlan_pps_enable_ebt_tim_clr
                0x009be30c                _wlan_pps_enable_ebt_dtim_clr
                0x009be340                _wlan_pps_enable_5g_ebt
                0x009be384                _wlan_pps_set_ebt_resync_timeout
                0x009be398                _wlan_pps_enable_paid_match
                0x009be3a0                _wlan_pps_enable_gid_bitmap_match
                0x009be3a8                _wlan_pps_enable_gid_nsts_zero
                0x009be3b0                _wlan_pps_enable_eof_pad_delim
                0x009be3b8                _wlan_pps_enable_mac_mismatch
                0x009be3c0                _wlan_pps_enable_delim_crc_fail
                0x009be3c8                _wlan_pps_enable_rssi_check
                0x009be3d0                _wlan_pps_vdev_calc_paid
                0x009be3d8                _wlan_pps_vdev_set_membership_usrpos
                0x009be3e0                _wlan_pps_ebt_calc_pause_timeout
                0x009be420                _wlan_pps_ebt_pause_tmr_fn
                0x009be44c                _wlan_pps_swbmiss_evt_handler
                0x009be4a4                _wlan_pps_vdev_evt_handler
                0x009be4fc                _wlan_pps_wal_vdev_evt_handler
                0x009be53c                _wlan_pps_wal_pdev_evt_handler
                0x009be58c                _wlan_pps_scan_evt_handler
                0x009be5b8                _wlan_pps_vdev_disable_ebt_for_quiet
                0x009be5cc                _wlan_pps_vdev_enable_pkt_pwr_save
                0x009be65c                _wlan_pps_vdev_init
                0x009be700                _wlan_pps_vdev_free
 *fill*         0x009be77e        0x2 00
 .text          0x009be780     0x1559 protocol/src/stats/.output/AR6320/hw.3/lib/libstats.a(wlan_stats.o)
                               0x1599 (size before relaxing)
                0x009be780                _wlan_stats_count_awake_period
                0x009be7b8                _wlan_stats_count_sleep_period
                0x009be838                wlan_stats_reset_stat_num
                0x009be850                wlan_stats_process_vdev_rate
                0x009be968                send_mib_counters_to_host
                0x009be9c0                wlan_stats_processor
                0x009beda0                wlan_stats_tmr_fn
                0x009bee1c                _wlan_chan_stats_init
                0x009bee3c                _wlan_chan_stats_free
                0x009bee60                _wlan_chan_stats_start_clr_cnt_sampling
                0x009beeb0                _wlan_chan_stats_end_clr_cnt_sampling
                0x009bef84                _wlan_chan_stats_get_busy_chan_running_avg
                0x009bef9c                _wlan_chan_stats_sampling_status
                0x009befb4                _wlan_chan_stats_sampling_stop
                0x009befd0                wlan_radio_stats_start_awake_period
                0x009befe4                wlan_radio_stats_get_awake_period
                0x009bf010                get_num_radios
                0x009bf018                get_num_peer_events
                0x009bf038                get_num_peer_in_event
                0x009bf044                wmi_iface_link_stats_event_complete
                0x009bf04c                get_active_peer_num
                0x009bf098                wlan_get_max_iface_event_length
                0x009bf0a0                _wlan_iface_link_stats_process
                0x009bf1a4                wmi_peer_link_stats_event_complete
                0x009bf1ac                wlan_get_max_peer_event_length
                0x009bf1b4                _wlan_peer_link_stats_process
                0x009bf374                wlan_tx_stats_vdev_peer_event_handler
                0x009bf4d0                _wlan_start_link_stats_process
                0x009bf560                wlan_vdev_clear_peer_stats
                0x009bf5fc                wlan_vdev_clear_radio_stats
                0x009bf70c                _wlan_clear_link_stats_process
                0x009bf750                wlan_chan_get_cca_busy_time
                0x009bf768                wmi_radio_link_stats_event_complete
                0x009bf770                wlan_get_radio_tx_rx_time
                0x009bf9ac                _wlan_radio_stats_scan_evt_handler
                0x009bfa70                wlan_get_max_radio_event_length
                0x009bfa78                _wlan_radio_link_stats_process
                0x009bfb84                wlan_link_stats_init
                0x009bfc24                _wlan_stats_wmi_request
                0x009bfc64                _wlan_stats_set_wmi_param
 *fill*         0x009bfcd9        0x3 00
 .text          0x009bfcdc      0x54e protocol/src/stats/.output/AR6320/hw.3/lib/libstats.a(wlan_estimate_linkspeed.o)
                                0x55e (size before relaxing)
                0x009bff9c                _wlan_est_linkspeed_indicate_home_chan_update
                0x009c0008                _wlan_est_linkspeed_register
                0x009c001c                _wlan_est_linkspeed_init
                0x009c0078                _wlan_est_linkspeed_vdev_en_dis
                0x009c0154                _wlan_est_linkspeed__process_pre_send
 *fill*         0x009c022a        0x2 00
 .text          0x009c022c      0x815 mac_core/src/soc/pcielp/.output/AR6320/hw.3/lib/libpcielp.a(pcielp_core.o)
                0x009c022c                pcielp_disable_ac_timer
                0x009c0278                pcielp_enable_ac_timer
                0x009c02bc                pcielp_ac_timer_handler
                0x009c031c                wmac_tx_pending
                0x009c038c                pcielp_inactivity_timer_handler
                0x009c03b8                pcielp_ignore_presend_event
                0x009c03ec                pcielp_setup_hwq_to_ac_map
                0x009c0448                pcielp_notify_presend_handler
                0x009c0528                pcielp_notify_suspend_handler
                0x009c0554                pcielp_notify_event_handler
                0x009c05e8                pcielp_get_feature_state
                0x009c062c                pcielp_notify_feature_state
                0x009c0654                pcielp_send_feature_event
                0x009c0674                pcielp_register_feature
                0x009c0690                pcielp_request_feature_state
                0x009c06b4                pcielp_sm_debug_print
                0x009c06bc                pcielp_sm_get_dbglog_data
                0x009c06cc                pcielp_sm_state_generic_event
                0x009c07d0                pcielp_sm_state_tx_entry
                0x009c07f4                pcielp_sm_state_tx_exit
                0x009c0824                pcielp_sm_state_tx_event
                0x009c08a8                pcielp_sm_state_rx_entry
                0x009c08b4                pcielp_sm_state_rx_exit
                0x009c08bc                pcielp_sm_state_rx_event
                0x009c08fc                pcielp_sm_state_sleep_entry
                0x009c0908                pcielp_sm_state_sleep_exit
                0x009c0910                pcielp_sm_state_sleep_event
                0x009c0950                pcielp_sm_state_suspend_entry
                0x009c095c                pcielp_sm_state_suspend_exit
                0x009c0964                pcielp_sm_state_suspend_event
                0x009c0990                pcielp_core_state_cb
                0x009c0998                pcielp_core_event_cb
                0x009c09a0                pcielp_core_set_param
                0x009c09d0                pcielp_core_get_param
                0x009c09f4                _pcielp_set_param
                0x009c0a18                _pcielp_get_param
 *fill*         0x009c0a41        0x3 00
 .text          0x009c0a44      0x354 mac_core/src/soc/pcielp/.output/AR6320/hw.3/lib/libpcielp.a(pcielp_ltr.o)
                                0x357 (size before relaxing)
                0x009c0a44                pcielp_ltr_cfg_to_latency
                0x009c0a60                pcielp_ltr_latency_to_cfg
                0x009c0b10                pcielp_ltr_get_ltr_s
                0x009c0b34                pcielp_ltr_get_ltr_l
                0x009c0b54                pcielp_ltr_switch
                0x009c0b68                pcielp_ltr_request_ltrmsg
                0x009c0be0                pcielp_ltr_state_cb
                0x009c0c54                pcielp_ltr_event_cb
                0x009c0c88                pcielp_ltr_set_param
                0x009c0d14                pcielp_ltr_get_param
 *fill*         0x009c0d98        0x0 00
 .text          0x009c0d98       0x8b mac_core/src/soc/pcielp/.output/AR6320/hw.3/lib/libpcielp.a(pcielp_dsleep.o)
                                 0x8f (size before relaxing)
                0x009c0d98                pcielp_dsleep_state_cb
                0x009c0da0                pcielp_dsleep_event_cb
                0x009c0da8                pcielp_dsleep_set_param
                0x009c0e0c                pcielp_dsleep_get_param
 *fill*         0x009c0e23        0x1 00
 .text          0x009c0e24      0x183 mac_core/src/soc/pcielp/.output/AR6320/hw.3/lib/libpcielp.a(pcielp_l1ss.o)
                0x009c0e24                pcielp_poll_l0
                0x009c0e78                pcielp_l1ss_config_hw
                0x009c0ec0                pcielp_l1ss_config
                0x009c0f0c                pcielp_l1ss_state_cb
                0x009c0f5c                pcielp_l1ss_event_cb
                0x009c0f64                pcielp_l1ss_set_param
                0x009c0f90                pcielp_l1ss_get_param
 *fill*         0x009c0fa7        0x1 00
 .text          0x009c0fa8      0x18c mac_core/src/pktlog/.output/AR6320/hw.3/lib/libpktlog.a(pktlog.o)
                0x009c10b4                _pktlog_enable
                0x009c1118                _pktlog_disable
 .text          0x009c1134       0xf6 protocol/src/tbd/.output/AR6320/hw.3/lib/libtbd.a(tbd.o)
                0x009c1134                _tbd_register_tbd_callback
                0x009c1184                _tbd_deregister_tbd_callback
                0x009c11bc                _tbd_get_tbd_value
 *fill*         0x009c122a        0x2 00
 .text          0x009c122c      0xc0d protocol/src/p2p/.output/AR6320/hw.3/lib/libp2p.a(p2p_main.o)
                0x009c122c                _p2p_set_noa_rehandle
                0x009c1248                _p2p_handle_NOA
                0x009c1310                _p2p_get_noa_info
                0x009c1448                _p2p_go_determine_noa_start_time
                0x009c154c                _p2p_beacon_action_rx_frame_handler
                0x009c1608                _p2p_go_tbttoffset_swba_handler
                0x009c165c                _p2p_go_notify_periodic_noa
                0x009c1750                _wmi_p2p_cmd_hdlr
                0x009c17a0                _p2p_dev_init
                0x009c1898                _p2p_dev_deinit
                0x009c192c                _wlan_p2p_add_noa
                0x009c1a28                _wlan_p2p_del_noa
                0x009c1a4c                _wlan_p2p_get_noa_ie
                0x009c1b8c                _p2p_adjust_noa_start_time
                0x009c1bb8                _p2p_deliver_event
                0x009c1bf4                _p2p_register_event_handler
                0x009c1c54                _p2p_unregister_event_handler
                0x009c1cb0                _p2p_find_cur_one_shot_noa_end_time
                0x009c1cf8                _wlan_p2p_send_noa_action
                0x009c1d40                _p2p_local_send_noa_action
                0x009c1d7c                _p2p_send_action_frame_complete_handler
                0x009c1da4                _wlan_p2p_generate_noa_action
                0x009c1e0c                _p2p_client_recal_noa
 *fill*         0x009c1e39        0x3 00
 .text          0x009c1e3c      0x161 protocol/src/p2p/.output/AR6320/hw.3/lib/libp2p.a(p2p_parse.o)
                0x009c1e3c                _p2p_get_noa_ie
                0x009c1f38                _p2p_gather_p2pnoa_ie
 *fill*         0x009c1f9d        0x3 00
 .text          0x009c1fa0      0xd88 protocol/src/p2p/.output/AR6320/hw.3/lib/libp2p.a(p2p_schedules.o)
                0x009c1fa0                _p2p_go_schedule_tsf_timeout
                0x009c1ff0                _p2p_noa_expiry_delta
                0x009c200c                _p2p_notify_GO_state_change
                0x009c2198                _p2p_no_more_events
                0x009c2270                _p2p_find_next_event
                0x009c23c0                _p2p_find_earliest_next_event
                0x009c241c                _p2p_get_GO_wake_state
                0x009c2474                _p2p_find_all_next_events
                0x009c25c8                _p2p_calc_schedules
                0x009c27b0                _p2p_process_schedule
                0x009c28c8                _p2p_sort_schedule
                0x009c2950                _p2p_setup_schedule_timer
                0x009c29a8                _p2p_getTSF_Offset
                0x009c29d8                _p2p_update_start_time
                0x009c2a50                _p2p_clear_schedules
                0x009c2a7c                _p2p_update_schedules
                0x009c2c38                _p2p_find_noa_next_state_change_time
                0x009c2cc4                _p2p_find_noa_min_presence_dur
                0x009c2cf8                _p2p_update_rc_time_limit
 .text          0x009c2d28     0x117d protocol/src/p2p/.output/AR6320/hw.3/lib/libp2p.a(p2p_go_ps.o)
                0x009c2d28                p2p_ps_sm_debug_print
                0x009c2d30                _p2p_notify_sta_sleep
                0x009c2d78                _p2p_notify_beacon_send_comp
                0x009c2df4                _p2p_notify_tbtt
                0x009c2e28                _p2p_resync_oppps
                0x009c2e68                _p2p_go_one_shot_noa_is_present
                0x009c2e7c                _p2p_vdev_pause_cb
                0x009c2e88                _p2p_set_power_state
                0x009c2ec8                _p2p_go_scheduler_set_oppps
                0x009c2f58                _p2p_ps_set_oppps
                0x009c2fe0                _p2p_ps_set_noa
                0x009c3158                p2p_ps_sm_get_dbglog_data
                0x009c36e8                _p2p_wrap_over_start
                0x009c3734                _p2p_go_update_noa
                0x009c3774                _p2p_go_decide_curr_pri
                0x009c3804                _p2p_go_find_earliest_begin
                0x009c3850                _p2p_go_find_latest_end
                0x009c3908                _p2p_get_max_timeout
                0x009c3a4c                _p2p_go_find_next_timeout
                0x009c3ac4                _p2p_go_schedule
                0x009c3c40                _p2p_go_timeout
                0x009c3c60                _p2p_add_noa_desc
                0x009c3d58                _p2p_del_noa_desc
                0x009c3de8                _p2p_ps_sm_create
                0x009c3e14                _p2p_ps_sm_init
                0x009c3e50                _p2p_go_noa_wmi_event
 *fill*         0x009c3ea5        0x3 00
 .text          0x009c3ea8      0x148 mac_core/src/utils/buf_chunk/.output/AR6320/hw.3/lib/libbufchunk.a(buf_chunk_api.o)
                                0x14c (size before relaxing)
                0x009c3ea8                _buf_chunk_copy_out_data
                0x009c3ef0                _buf_chunk_copy_in_data
                0x009c3f90                _buf_chunk_free
                0x009c3fe0                _buf_chunk_destroy
 .text          0x009c3ff0      0x709 protocol/src/txbf/.output/AR6320/hw.3/lib/libtxbf.a(wlan_txbf.o)
                                0x725 (size before relaxing)
                0x009c3ff0                _wlan_send_uploadh_to_host
                0x009c4060                _wmi_send_uploadh_event
                0x009c40dc                wmi_capture_h_ind_complete
                0x009c40e4                _wlan_txbf_capture_h_handler
                0x009c4138                _wlan_txbfee_update_nc_index
                0x009c4194                wlan_txbf_wal_pdev_evt_handler
                0x009c4234                _wlan_txbf_setup
                0x009c43c4                _wlan_txbfee_parse_ndpa
                0x009c4430                _wlan_txbfee_parse_brp
                0x009c4474                _wlan_txbfee_parse_gid
                0x009c4594                _wlan_txbfee_stats_publish
                0x009c45d0                _wlan_txbfee_stats_reset
                0x009c46e8                wlan_txbf_cap_register
 *fill*         0x009c46f9        0x3 00
 .text          0x009c46fc      0xd38 protocol/src/tdls/.output/AR6320/hw.3/lib/libtdls.a(wlan_tdls.o)
                                0xd4c (size before relaxing)
                0x009c46fc                tdls_offchan_get_info
                0x009c475c                wlan_tdls_offchan_info_store
                0x009c47cc                wlan_tdls_offchan_clear_info
                0x009c4828                wlan_tdls_wmi_peer_update_cmd
                0x009c4b18                wlan_tdls_wmi_set_state_cmd
                0x009c4f0c                wlan_tdls_wmi_set_offchan_mode_cmd
                0x009c50fc                wlan_tdls_wal_event_handler
                0x009c51e4                _wlan_tdls_suspend_resume_offchannel
                0x009c5334                _wlan_tdls_create_instance
                0x009c53e4                _wlan_tdls_delete_instance
 .text          0x009c5434     0x3446 protocol/src/tdls/.output/AR6320/hw.3/lib/libtdls.a(wlan_tdls_peer.o)
                               0x3462 (size before relaxing)
                0x009c5434                wlan_tdls_vdev_notif_handler
                0x009c5480                wlan_tdls_unit_test
                0x009c55a8                wlan_tdls_peer_get_index
                0x009c562c                wlan_tdls_get_band_center_freq1
                0x009c59d4                wlan_tdls_print_peer_params
                0x009c5ac4                wlan_tdls_restore_ratectrl_params
                0x009c5d28                wlan_tdls_peer_connect
                0x009c62dc                wlan_tdls_peer_teardown
                0x009c632c                wlan_tdls_create_offchan
                0x009c64c0                wlan_tdls_deconfigure_offchan
                0x009c6534                wlan_tdls_delete_offchan
                0x009c6654                wlan_tdls_link_pause
                0x009c6994                wlan_tdls_link_unpause
                0x009c6c58                wlan_tdls_link_ispaused
                0x009c6c80                wlan_tdls_peer_resmgr_link_setup
                0x009c6cb0                wlan_tdls_peer_capability_update
                0x009c6f48                wlan_tdls_bw_to_phymode
                0x009c6fc0                wlan_tdls_peer_offchannel_configure
                0x009c722c                wlan_tdls_chan_switch_req_completion
                0x009c7260                wlan_tdls_send_chan_switch_req_frame
                0x009c7340                wlan_tdls_chan_switch_resp_completion
                0x009c7400                wlan_tdls_send_chan_switch_resp_frame
                0x009c757c                wlan_tdls_rx_chan_switch_req_frame
                0x009c7ae0                wlan_tdls_rx_chan_switch_resp_frame
                0x009c7ce4                wlan_tdls_offchan_link_pause
                0x009c7ed4                wlan_tdls_offchan_link_unpause
                0x009c8114                wlan_tdls_offchan_link_ispaused
                0x009c8130                wlan_tdls_peer_offchan_resmgr_link_setup
                0x009c8160                wlan_tdls_homechan_ocs_hdlr
                0x009c8184                wlan_tdls_offchan_ocs_hdlr
                0x009c81a8                wlan_tdls_requeue_offchan_timer_handler
                0x009c81fc                wlan_tdls_unpause_traffic_timer_handler
                0x009c8288                wlan_tdls_pause_traffic_timer_handler
                0x009c8408                wlan_tdls_chan_switch_rx_complete_timer_handler
                0x009c8498                wlan_tdls_offchan_req_receive_timeout_handler
                0x009c868c                wlan_tdls_offchan_txrx_timer_handler
                0x009c874c                wlan_tdls_scan_evt_handler
 *fill*         0x009c887a        0x2 00
 .text          0x009c887c      0x5aa protocol/src/tdls/.output/AR6320/hw.3/lib/libtdls.a(wlan_tdls_uapsd.o)
                                0x5ad (size before relaxing)
                0x009c887c                wlan_tdls_pti_tx_completion
                0x009c8884                wlan_tdls_uapsd_send_pti_frame
                0x009c8a58                wlan_tdls_ptr_recv_notif_handler
                0x009c8a90                wlan_tdls_send_pti_frame_to_peer
                0x009c8b08                wlan_tdls_cancel_ptr_recv_timer
                0x009c8b9c                wlan_tdls_sleep_sta_ps_event_handler
                0x009c8d30                wlan_tdls_uapsd_buf_sta_handle
                0x009c8d98                wlan_tdls_uapsd_sleep_sta_handle
                0x009c8e00                wlan_tdls_enter_exit_buf_sta_role
 *fill*         0x009c8e26        0x2 00
 .text          0x009c8e28      0x230 protocol/src/tcpip/.output/AR6320/hw.3/lib/libtcpip.a(wlan_ipv6.o)
                0x009c8e28                _wlan_ipprot_checksum
                0x009c8e88                _wlan_ipv6_parse_ipv6_hdr
                0x009c8f60                _wlan_ipv6_parse_ra_packet
 .text          0x009c9058      0x111 mac_core/src/misc/extend_alloc/.output/AR6320/hw.3/lib/libextendalloc.a(extend_allocate.o)
                0x009c9058                _extend_allocram_init_done
                0x009c9130                _extend_allocram_get_switched_irams
 *fill*         0x009c9169        0x3 00
 .text          0x009c916c       0xed protocol/src/thermal_mgr/.output/AR6320/hw.3/lib/libthermalmgr.a(wlan_thermal_mgr.o)
                0x009c916c                wlan_thermal_event_to_host
                0x009c91ac                wlan_thermal_mgmt_wmi_cmd
                0x009c91fc                wlan_thermal_param_update
 *fill*         0x009c9259        0x3 00
 .text          0x009c925c        0x8 mac_core/src/wal/AR/init/.output/AR6320/hw.3/lib/ar_wal_init.a(ar_wal_init.o)
                                  0xb (size before relaxing)
 *fill*         0x009c9264        0x0 00
 .text          0x009c9264       0x23 mac_core/src/wal/whal/init/.output/AR6320/hw.3/lib/libwhal_init.a(whal_init.o)
                0x009c9264                whal_attach_pre_init
 *fill*         0x009c9287        0x1 00
 .text          0x009c9288      0x15c mac_core/src/hostif/wdi_ipa/.output/AR6320/hw.3/lib/libwdi_ipa.a(wdi_ipa.o)
                0x009c9288                _wdi_ipa_init
                0x009c92d0                _wdi_ipa_cfg_msg_cb
                0x009c92ec                _wdi_ipa_dbg_stats
                0x009c9330                _wdi_ipa_op_req_msg_cb
                0x009c9370                _wdi_ipa_op_response_send_msg
 .text          0x009c93e4      0x8f1 mac_core/src/hostif/wdi_ipa/.output/AR6320/hw.3/lib/libwdi_ipa.a(wdi_ipa_rx.o)
                                0x8f5 (size before relaxing)
                0x009c93e4                _wdi_ipa_rx_init
                0x009c94d4                _wdi_ipa_rx_cfg
                0x009c9508                _wdi_ipa_rx_msg_alloc
                0x009c95b8                _wdi_ipa_rx_msg_realloc
                0x009c95e4                _wdi_ipa_rx_ind_msg_set
                0x009c9618                _wdi_ipa_rx_msg_avail_space
                0x009c9630                _wdi_ipa_rx_msg_to_ipa
                0x009c981c                _wdi_ipa_rx_dma_comp_cb
                0x009c98a0                _wdi_ipa_rx_ind_pending_flush
                0x009c98d8                _wdi_ipa_rx_refill_req
                0x009c9a78                _wdi_ipa_rx_dma_refill_cb
                0x009c9ad8                _wdi_ipa_rx_rd_idx_update_cb
                0x009c9afc                _wdi_ipa_rx_suspend
                0x009c9b20                _wdi_ipa_rx_resume
                0x009c9b5c                _wdi_ipa_rx_is_suspend
                0x009c9b74                _wdi_ipa_rx_get_stats
 *fill*         0x009c9cd5        0x3 00
 .text          0x009c9cd8      0x820 mac_core/src/hostif/wdi_ipa/.output/AR6320/hw.3/lib/libwdi_ipa.a(wdi_ipa_tx.o)
                                0x824 (size before relaxing)
                0x009c9cd8                _wdi_ipa_tx_init
                0x009c9e58                _wdi_ipa_tx_cfg
                0x009c9e7c                _wdi_ipa_tx_register_cbs
                0x009c9eac                _wdi_ipa_tx_ce_recv_cb
                0x009c9fe0                _wdi_ipa_tx_comp_buf_req
                0x009ca018                _wdi_ipa_tx_comp_ind
                0x009ca210                _wdi_ipa_tx_dma_comp_cb
                0x009ca2c8                _wdi_ipa_tx_comp_pending_flush
                0x009ca304                _wdi_ipa_tx_suspend
                0x009ca374                _wdi_ipa_tx_resume_comp_cb
                0x009ca394                _wdi_ipa_tx_resume
                0x009ca408                _wdi_ipa_tx_get_stats
 .text          0x009ca4f8      0xba0 mac_core/src/hostif/hif/hif_dbguart/.output/AR6320/hw.3/lib/lib_hif_dbguart.a(hif_dbguart.o)
                                0xbb0 (size before relaxing)
                0x009ca4f8                _dump_registers
                0x009ca500                _hif_duart_process_fatal
                0x009ca574                _hif_duart_hdlc_crc_calc
                0x009ca5ac                _hif_duart_hdlc_frame_and_escape
                0x009ca6d8                _hif_duart_send_byte
                0x009ca714                _hif_duart_power_state_machine
                0x009ca87c                _hif_duart_wake_ack_timer_callback
                0x009ca8dc                _hif_duart_rx_idle_callback
                0x009ca8fc                duart_populate_pending_rx_buffer
                0x009ca93c                _hif_duart_frame_receive_state_machine
                0x009cabdc                _hif_duart_frame_transmit_state_machine
                0x009cad70                _hif_duart_deferred_tx_callback
                0x009cad80                _hif_duart_deferred_rx_callback
                0x009cae34                hif_duart_init
                0x009caf10                hif_duart_start
                0x009cafe0                hif_duart_shutdown
                0x009cb004                hif_duart_register_callback
                0x009cb024                hif_duart_send_buffer
                0x009cb05c                hif_duart_return_recv_buf
                0x009cb078                hif_duart_isr_handler
                0x009cb080                hif_duart_ic_resume
                0x009cb08c                hif_duart_ic_pause
 .text          0x009cb098     0x1484 protocol/src/lpi/.output/AR6320/hw.3/lib/liblpi.a(wlan_lpi.o)
                0x009cb098                _wlan_lpi_scan_evt_handler
 .text          0x009cc51c      0x258 mac_core/src/misc/codeswap/.output/AR6320/hw.3/lib/libcodeswap.a(codeswap.o)
                0x009cc51c                codeswap_nonres_fn
                0x009cc558                codeswap_timer_handler
                0x009cc580                _codeswap_free_space
                0x009cc5d0                codeswap_pullin_fn
                0x009cc6e4                _codeswap_memmgr_init
                0x009cc730                codeswap_init
 .text          0x009cc774       0xcb mac_core/src/misc/codeswap/.output/AR6320/hw.3/lib/libcodeswap.a(codeswap_dmamgr.o)
                0x009cc774                _codeswap_dmamgr_issue_dma
                0x009cc7d0                _codeswap_dmamgr_fetch_code
 *fill*         0x009cc83f        0x1 00
 .text          0x009cc840     0x155c protocol/src/blockack/.output/AR6320/hw.3/lib/libblockack.a(wlan_blockack.o)
                               0x1574 (size before relaxing)
                0x009cc840                _wlan_ba_event_peer_rx
                0x009ccad8                _wlan_ba_event_peer_pre_send
                0x009ccb28                _wlan_ba_set_addba_request_timeout
                0x009ccb38                _wlan_ba_event_peer_block_complete
                0x009ccb9c                _wlan_ba_event_addba_timeout
                0x009ccc14                _wlan_ba_event_vdev_peer_add
                0x009ccc74                _wlan_ba_event_vdev_peer_delete
                0x009ccccc                _wlan_ba_event_vdev_notif_handler
                0x009ccd40                _wlan_ba_create_vdev_instance
                0x009ccd58                _wlan_ba_delete_vdev_instance
                0x009ccd70                _wlan_ba_event_local_frame_tx_completion
                0x009cd040                _wlan_ba_tx_sm_get_ctxt
                0x009cd05c                _wlan_ba_tx_sm_alloc_ctxt
                0x009cd0a4                _wlan_ba_tx_sm_free_ctxt
                0x009cd110                _wlan_ba_tx_sm
                0x009cd5b0                _wlan_ba_rx_sm
                0x009cd7e0                _wlan_ba_send_addba_req
                0x009cd8dc                _wlan_ba_send_addba_rsp
                0x009cda24                _wlan_ba_send_delba
                0x009cda74                _wlan_ba_teardown_peer_tid
                0x009cdac8                _wlan_ba_teardown_peer_ba
                0x009cdb28                wlan_ba_teardown_ba_due_to_mcc
                0x009cdbfc                wlan_ba_wmi_unified_disptach_cmds
 .text          0x009cdd9c     0x1c4c mac_core/src/wal/whal/reset/.output/AR6320/hw.3/lib/ar6000_cal.a(ar6320_cal.o)
                               0x1d73 (size before relaxing)
                0x009cdd9c                whalIsAntennaShared
                0x009cf930                ar6320ForceTxOff
                0x009cf978                ar6320RestoreTxOn
 *fill*         0x009cf9e8        0x0 00
 .text          0x009cf9e8     0x36f6 mac_core/src/wal/whal/reset/.output/AR6320/hw.3/lib/ar6000_cal.a(ar6320_rxdc_cal.o)
                               0x3826 (size before relaxing)
                0x009d0098                rshift_plus_half
                0x009d041c                ar6000TimeElapsed
                0x009d0ce8                XPowerY
                0x009d210c                ar6000RxDcDTIMRestore
                0x009d30cc                ar6000InitRxDcCalStruct
 *fill*         0x009d30de        0x2 00
 .text          0x009d30e0     0x472b mac_core/src/wal/whal/reset/.output/AR6320/hw.3/lib/ar6000_cal.a(ar6320_iq_cal.o)
                               0x4a4b (size before relaxing)
                0x009d3dac                my_round
                0x009d77fc                ar6000InitIQCalStruct
 *fill*         0x009d780b        0x1 00
 .text          0x009d780c      0xdd7 mac_core/src/wal/whal/reset/.output/AR6320/hw.3/lib/ar6000_cal.a(ar6320_pef_cal.o)
                                0xe5b (size before relaxing)
                0x009d780c                patch_my_div
                0x009d8138                ar6000PefCheckPefCalResult
                0x009d842c                ar6000PefAssignRefTbl
                0x009d8448                ar6000PefGetConfig
                0x009d84cc                ar6000PefCalRestore
                0x009d853c                ar6000PefEnableTbl
                0x009d85d4                ar6000InitPefCalStruct
 *fill*         0x009d85e3        0x1 00
 .text          0x009d85e4       0x8f protocol/src/unit_test/.output/AR6320/hw.3/lib/libunittest.a(unit_test.o)
                0x009d85e4                _unit_test_cmd
 *fill*         0x009d8673        0x1 00
 .text          0x009d8674      0x39e protocol/src/frameparse/.output/AR6320/hw.3/lib/libframeparse.a(wlan_frameparse.o)
                0x009d8674                _wlan_frmparse_ht_cap
                0x009d8724                _wlan_frmparse_ht_oper
                0x009d8790                _wlan_frmparse_vht_oper
                0x009d8804                _wlan_frmparse_vht_cap
                0x009d8964                _wlan_get_phymode_freq
 *fill*         0x009d8a12        0x2 00
 .text          0x009d8a14      0x352 protocol/src/nan/.output/AR6320/hw.3/lib/libnanwlan.a(wlan_nan.o)
                0x009d8a14                _NAN_GetContext
                0x009d8a1c                _NAN_GetPublishContext
                0x009d8a28                _NAN_GetSubscribeContext
                0x009d8a34                _NAN_GetMatchContext
                0x009d8a40                _NAN_GetMacContext
                0x009d8a4c                _NAN_GetSyncContext
                0x009d8a58                _NAN_GetAttrContext
                0x009d8aa0                _NAN_WmiEvtHdlr
                0x009d8b08                _NAN_Register
                0x009d8b30                _NAN_Deinit
                0x009d8ba0                NAN_GetStaMacAddress
                0x009d8bd4                NAN_GetNanMacAddress
                0x009d8bfc                NAN_CreateNanVdev
                0x009d8c5c                NAN_GetNanVdev
                0x009d8c68                NAN_DeleteNanVdev
                0x009d8c94                _wlan_nan_event_notify
                0x009d8ce0                _wlan_nan_register_event_notify
                0x009d8d1c                _wlan_nan_unregister_event_notify
 *fill*         0x009d8d66        0x2 00
 .text          0x009d8d68      0xe4b protocol/src/nan/.output/AR6320/hw.3/lib/libnanwlan.a(wlan_nan_sync.o)
                                0xe73 (size before relaxing)
                0x009d8d68                NANSYNC_GetTsfOffset
                0x009d8d78                NANSYNC_GetTsf
                0x009d8d98                NANSYNC_SetTsf
                0x009d8df4                NAN_UpdateAnchorMasterRecord
                0x009d8fd0                NAN_BecomeAnchorMaster
                0x009d9130                NAN_ChangeRole
                0x009d9274                NANSYNC_ProcessTimeouts
                0x009d93fc                NANSYNC_SendSyncBeacons
                0x009d9438                NANSYNC_ProcessPreDw
                0x009d9474                NANSYNC_ProcessDwStart
                0x009d9494                NANSYNC_ProcessDwTbtt
                0x009d94ec                NANSYNC_CheckDebugFlags
                0x009d9568                NANSYNC_ProcessDwEnd
                0x009d968c                NANSYNC_DoDiscBcnTbtt
                0x009d9710                NANSYNC_BcnTxComplete
                0x009d9730                NANSYNC_SetVsaTx
                0x009d974c                NANSYNC_Clear
                0x009d9764                NANSYNC_Init
                0x009d97cc                NANSYNC_Deinit
                0x009d97d8                NANSYNC_FillDynamicStats
                0x009d9890                NANSYNC_GetStats
                0x009d98a4                NANSYNC_ClearStats
                0x009d98c4                NANSYNC_ApplyBeaconTsf
                0x009d99a8                NANSYNC_Start
                0x009d9a60                NANSYNC_Stop
                0x009d9aa8                NANSYNC_SetClusterId
                0x009d9ac0                NANSYNC_SetNanScan
                0x009d9b28                NANSYNC_NanScanComplete
                0x009d9b5c                NANSYNC_Enable
                0x009d9b90                NANSYNC_Disable
 *fill*         0x009d9bb3        0x1 00
 .text          0x009d9bb4     0x20c4 protocol/src/nan/.output/AR6320/hw.3/lib/libnanwlan.a(wlan_nan_mac.o)
                               0x20f4 (size before relaxing)
                0x009d9c2c                _NANMAC_Init
                0x009d9d48                _NANMAC_Deinit
                0x009d9e68                _NANMAC_Enable
                0x009d9ecc                _NANMAC_Disable
                0x009d9f94                _NANMAC_ReadConfig
                0x009d9fbc                _NANMAC_ResetConfigDefaults
                0x009da06c                _NANMAC_ApplyNewConfig
                0x009da3e0                _NANMAC_GetSidBeacon
                0x009da3f0                _NANMAC_GetBandConfigFlags
                0x009da400                _NANMAC_GetRssiCloseProximity
                0x009da418                _NANMAC_GetRssiClose
                0x009da430                _NANMAC_GetRssiMiddle
                0x009da448                _NANMAC_GetClusterIdLow
                0x009da458                _NANMAC_GetClusterIdHigh
                0x009da468                _NANMAC_GetHopCountLimit
                0x009da478                _NANMAC_GetHopCountForce
                0x009da488                _NANMAC_GetRandomUpdateTime
                0x009da498                _NANMAC_GetRandomFactor
                0x009da4a8                _NANMAC_GetMasterPreference
                0x009da4b8                _NANMAC_GetRssiAvgWindow
                0x009da4c8                _NANMAC_GetClusterAttrInSdf
                0x009da4d8                _NANMAC_GetScanDwellTime
                0x009da514                _NANMAC_GetScanInterval
                0x009da54c                _NANMAC_GetDebugFlags
                0x009da55c                _NANMAC_GetWarmUpTimer
                0x009da588                _NANMAC_GetAmrExpireTimer
                0x009da5b0                _NANMAC_GetTwSize
                0x009da5e0                _NANMAC_GetDeviceAddress
                0x009da5f0                _NANMAC_TransmitEnqueueAttribute
                0x009da630                _NANMAC_TransmitRemoveAttribute
                0x009dac90                _NANMAC_SdfTxComplete
                0x009dad10                _NANMAC_ReceiveBeaconFrame
                0x009daf54                _NANMAC_ReceiveServiceDiscoveryFrame
                0x009db208                NANMAC_IsTxSdfEnabled
                0x009db224                NANMAC_PrepareForDw
                0x009db27c                NANMAC_IncreaseTW
                0x009db2cc                NANMAC_DecreaseTW
                0x009db310                NANMAC_UpdatePreDwTw
                0x009db364                _NANMAC_ProcessPreDw
                0x009db418                _NANMAC_ProcessDwStart
                0x009db4d4                _NANMAC_ProcessDwEnd
                0x009db574                _NANMAC_ProcessFawStart
                0x009db770                _NANMAC_ProcessFawEnd
                0x009db7ac                _NANMAC_InDw
                0x009db7bc                _NANMAC_SetTca
                0x009db800                _NANMAC_ClearTca
                0x009db830                _NANMAC_PrepareForNextDw
                0x009db8d0                _NANMAC_ReportEvent
                0x009db8e4                _NANMAC_ScanTriggered
                0x009db8f4                _NANMAC_SetNanScan
                0x009db904                _NANMAC_SetClusterId
                0x009db96c                _NANMAC_GetStats
                0x009db97c                _NANMAC_ClearStats
                0x009db9a0                _NANMAC_GetDwStats
                0x009db9b0                _NANMAC_ClearDwStats
                0x009db9cc                _NANMAC_GetDwTwInfo
 .text          0x009dbc78     0x134d protocol/src/nan/.output/AR6320/hw.3/lib/libnanwlan.a(wlan_nan_publish.o)
                               0x1355 (size before relaxing)
                0x009dbd54                _NANPUB_Init
                0x009dbdcc                _NANPUB_Deinit
                0x009dbe24                _NANPUB_Enable
                0x009dbe34                _NANPUB_Disable
                0x009dbf10                _NANPUB_PublishServiceReqHdlr
                0x009dc604                _NANPUB_PublishServiceCancelReqHdlr
                0x009dc7e0                _NANPUB_PublishMatch
                0x009dcb74                _NANPUB_PublishFollowup
                0x009dccbc                _NANPUB_PrepareForNextDw
                0x009dce3c                _NANPUB_GetStats
                0x009dce4c                _NANPUB_ClearStats
                0x009dce78                _NANPUB_PublishCount
                0x009dce88                _NANPUB_SolicitedPublishCount
                0x009dcec4                _NANPUB_UnsolicitedPublishCount
                0x009dcf00                _NANPUB_GetPublishServiceIds
                0x009dcf4c                _NANPUB_ServiceIdMatch
                0x009dcf8c                _NANPUB_GetServiceId
 *fill*         0x009dcfc5        0x3 00
 .text          0x009dcfc8     0x14c4 protocol/src/nan/.output/AR6320/hw.3/lib/libnanwlan.a(wlan_nan_subscribe.o)
                               0x14d0 (size before relaxing)
                0x009dd0a4                _NANSUB_Init
                0x009dd128                _NANSUB_Deinit
                0x009dd188                _NANSUB_Enable
                0x009dd198                _NANSUB_Disable
                0x009dd270                _NANSUB_SubscribeServiceReqHdlr
                0x009ddadc                _NANSUB_SubscribeServiceCancelReqHdlr
                0x009ddce8                _NANSUB_SubscribeMatch
                0x009de0cc                _NANSUB_SubscribeFollowup
                0x009de1ec                _NANSUB_PrepareForNextDw
                0x009de350                _NANSUB_GetStats
                0x009de360                _NANSUB_ClearStats
                0x009de390                _NANSUB_SubscribeCount
                0x009de3a0                _NANSUB_PassiveSubscribeCount
                0x009de3d8                _NANSUB_ActiveSubscribeCount
                0x009de410                _NANSUB_ServiceIdMatch
                0x009de450                _NANSUB_GetServiceId
 .text          0x009de48c     0x2a43 protocol/src/nan/.output/AR6320/hw.3/lib/libnanwlan.a(wlan_nan_ctrl.o)
                               0x2a47 (size before relaxing)
                0x009de48c                _NANCTRL_GetTransactionId
                0x009de49c                NANCTRL_GetStats
                0x009de4a8                NANCTRL_ClearStats
                0x009de4c4                _NANCTRL_PrepareForNextDw
                0x009de520                _NANCTRL_ReceiveAttribute
                0x009de590                _NANCTRL_SendErrorRsp
                0x009de614                _NANCTRL_SendFollowupInd
                0x009de724                _NANCTRL_SendEventInd
                0x009de7fc                _NANCTRL_SendTcaInd
                0x009de8d8                _NANCTRL_SendBcnSdfPayloadInd
                0x009deaf0                _NANCTRL_Init
                0x009deb9c                _NANCTRL_Deinit
                0x009dec14                _NANCTRL_NanReqHdlr
 *fill*         0x009e0ecf        0x1 00
 .text          0x009e0ed0      0xa0f protocol/src/nan/.output/AR6320/hw.3/lib/libnanwlan.a(wlan_nan_de_if.o)
                0x009e0ed0                nan_rand
                0x009e0ef4                wlan_nan_de_filter_bcn
                0x009e0f14                wlan_nan_de_if_init
                0x009e0ff0                wlan_nan_de_if_create
                0x009e102c                wlan_nan_de_if_delete
                0x009e106c                wlan_nan_de_if_set_cluster_id
                0x009e10b4                wlan_nan_if_register_tx_handler
                0x009e10e8                wlan_nan_if_unregister_tx_handler
                0x009e1110                wlan_nan_de_if_setup_cb_handlers
                0x009e1150                wlan_nan_schedule_channel_req
                0x009e12ac                wlan_nan_update_channel_req
                0x009e1348                wlan_nan_remove_channel_req
                0x009e13a8                _wlan_nan_de_if_tx_completion
                0x009e1498                wlan_nan_de_if_sdf_send
                0x009e15a8                wlan_nan_de_if_bcn_send
                0x009e1630                wlan_nan_de_if_get_frame_buf
                0x009e16dc                wlan_nan_de_if_free_buf
                0x009e170c                wlan_nan_ocs_hdlr
                0x009e176c                nan_ctrl_pm_arb_init
                0x009e178c                nan_ctrl_pm_arb_delete
                0x009e17a8                nan_ctrl_pm_arb_req
                0x009e17cc                nan_de_get_abf_from_buf
                0x009e1804                wlan_nan_get_tsf32
                0x009e182c                wlan_nan_get_tsf64
                0x009e186c                wlan_nan_de_set_backoff_params
                0x009e1884                wlan_nan_de_send_dummy_frame
 *fill*         0x009e18df        0x1 00
 .text          0x009e18e0      0x28d protocol/src/nan/.output/AR6320/hw.3/lib/libnanwlan.a(wlan_nan_rx.o)
                0x009e18e0                wlan_nan_if_init_rx
                0x009e1924                wlan_nan_if_rx_filter_fixup
                0x009e1970                _wlan_nan_if_internal_rx_sdf_handler
                0x009e1a0c                _wlan_nan_if_internal_rx_bcn_handler
                0x009e1a8c                wlan_nan_if_register_rx_handler
                0x009e1b1c                wlan_nan_if_unregister_rx_handler
 *fill*         0x009e1b6d        0x3 00
 .text          0x009e1b70      0xce5 protocol/src/nan/.output/AR6320/hw.3/lib/libnanwlan.a(wlan_nan_match.o)
                                0xcf1 (size before relaxing)
                0x009e1b70                _NANMATCH_Init
                0x009e1bf0                _NANMATCH_Deinit
                0x009e1c3c                _NANMATCH_MatchAlloc
                0x009e1c70                _NANMATCH_NumMatches
                0x009e1cc0                _NANMATCH_MatchReset
                0x009e1cfc                _NANMATCH_GetTxRequestorId
                0x009e1d7c                _NANMATCH_RepeatMatchCheck
                0x009e1e90                _NANMATCH_AddMatch
                0x009e1ec4                _NANMATCH_RemoveMatch
                0x009e1ef8                _NANMATCH_FollowupMatchCheck
                0x009e1f58                _NANMATCH_UpdateUnmatchTimeout
                0x009e1fcc                _NANMATCH_MatchExpired
                0x009e200c                _NANMATCH_SendMatchInd
                0x009e27ac                _NANMATCH_SendUnmatchInd
 *fill*         0x009e2855        0x3 00
 .text          0x009e2858      0x1c6 protocol/src/nan/.output/AR6320/hw.3/lib/libnanwlan.a(wconn_util_list.o)
                0x009e2858                _WCONN_Util_DList_Init
                0x009e2864                _WCONN_Util_DList_Insert
                0x009e2894                _WCONN_Util_DList_Enqueue
                0x009e28ac                _WCONN_Util_DList_Remove
                0x009e28dc                _WCONN_Util_DList_Dequeue
                0x009e28fc                _WCONN_Util_DList_Find
                0x009e2918                _WCONN_Util_SList_Init
                0x009e2924                _WCONN_Util_SList_Insert
                0x009e295c                _WCONN_Util_SList_Enqueue
                0x009e2970                _WCONN_Util_SList_Remove
                0x009e29b0                _WCONN_Util_SList_Dequeue
                0x009e29d4                _WCONN_Util_SList_Find
                0x009e29f0                _WCONN_Util_SList_PeekNode
 *fill*         0x009e2a1e        0x2 00
 .text          0x009e2a20     0x18fc protocol/src/nan/.output/AR6320/hw.3/lib/libnanwlan.a(wlan_nan_attr.o)
                               0x1900 (size before relaxing)
                0x009e2a20                _NANATTR_Init
                0x009e2b34                _NANATTR_Deinit
                0x009e2c1c                _NANATTR_AllocServiceDescriptorAttribute
                0x009e2c54                _NANATTR_FreeServiceDescriptorAttribute
                0x009e2c84                _NANATTR_GetStats
                0x009e2c94                _NANATTR_IsAttrIdSdf
                0x009e2cb4                _NANATTR_GetConnCapAttribute
                0x009e2ccc                _NANATTR_SetConnCapAttribute
                0x009e2d34                _NANATTR_ClearConnCapAttribute
                0x009e2d54                _NANATTR_ConvertNtuBitmapTo16tu
                0x009e2ddc                _NANATTR_GetWlanInfraAttribute
                0x009e2df4                _NANATTR_SetWlanInfraAttribute
                0x009e2ee0                _NANATTR_ClearWlanInfraAttribute
                0x009e2f18                _NANATTR_WlanInfraAttrGetMapCtrlOffset
                0x009e2f70                _NANATTR_WlanInfraAttrGetAvailIntBitmapOffset
                0x009e2fa0                _NANATTR_WlanInfraAttrGetDeviceRoleOffset
                0x009e3000                _NANATTR_GetP2pOperationAttribute
                0x009e301c                _NANATTR_SetP2pOperationAttribute
                0x009e30d0                _NANATTR_ClearP2pOperationAttribute
                0x009e3100                _NANATTR_GetIbssAttribute
                0x009e311c                _NANATTR_SetIbssAttribute
                0x009e31c8                _NANATTR_ClearIbssAttribute
                0x009e31f8                _NANATTR_GetMeshAttribute
                0x009e3210                _NANATTR_SetMeshAttribute
                0x009e32cc                _NANATTR_ClearMeshAttribute
                0x009e3304                _NANATTR_MeshAttrGetMeshIdOffset
                0x009e3378                _NANATTR_GetFurtherNanSdAttribute
                0x009e3390                _NANATTR_SetFurtherNanSdAttribute
                0x009e3420                _NANATTR_ClearFurtherNanSdAttribute
                0x009e3458                _NANATTR_GetRangingAttribute
                0x009e3474                _NANATTR_SetRangingAttribute
                0x009e3524                _NANATTR_ClearRangingAttribute
                0x009e3554                _NANATTR_FamOpClassValid
                0x009e3594                _NANATTR_FamChannelValid
                0x009e360c                _NANATTR_GetFurtherAvailabilityMapAttribute
                0x009e3628                _NANATTR_GetFurtherAvailabilityMapAttributeLen
                0x009e3638                _NANATTR_SetFurtherAvailabilityMapAttribute
                0x009e371c                _NANATTR_ClearFurtherAvailabilityMapAttribute
                0x009e373c                _NANATTR_GetCountryCodeAttribute
                0x009e3758                _NANATTR_SetCountryCodeAttribute
                0x009e37a8                _NANATTR_ClearCountryCodeAttribute
                0x009e37c8                _NANATTR_UpdateSuppSdAttributes
                0x009e389c                _NANATTR_GetPostDiscAttributesBitmap
                0x009e38d4                _NANATTR_GetPostDiscAttributesLength
                0x009e3910                _NANATTR_GetPostDiscAttributesCount
                0x009e3940                _NANATTR_GetPostDiscAttribute
                0x009e3964                _NANATTR_ClearPostDiscAttribute
                0x009e39ac                _NANATTR_ClearPostDiscAttributes
                0x009e39f4                _NANATTR_ValidatePostDiscBitmap
                0x009e3a80                _NANATTR_GetVendorSpecificAttribute
                0x009e3a98                _NANATTR_SetVendorSpecificAttribute
                0x009e3b14                _NANATTR_ClearVendorSpecificAttribute
                0x009e3b48                _NANATTR_ServiceNameValid
                0x009e3b9c                _NANATTR_ServiceNameSanitize
                0x009e3bd0                _NANATTR_ServiceIdCreate
                0x009e3c58                _NANATTR_MatchFilterValid
                0x009e3c88                _NANATTR_BuildServiceDescriptorAttribute
                0x009e3ddc                _NANATTR_ServiceDescriptorAttributeValid
                0x009e3e50                _NANATTR_ServiceIdMatch
                0x009e3ee4                _NANATTR_MatchFilterMatch
                0x009e3f3c                _NANATTR_ServiceInfoMatch
                0x009e3f94                _NANATTR_InRange
                0x009e3fd0                _NANATTR_SrfSetEntry
                0x009e40a4                _NANATTR_SrfClearEntry
                0x009e4144                _NANATTR_SrfSendResponse
                0x009e41f4                _NANATTR_SdAttrGetMatchFilterOffset
                0x009e4244                _NANATTR_SdAttrGetServiceRspOffset
                0x009e42a8                _NANATTR_SdAttrGetServiceInfoOffset
 .text          0x009e431c      0x4bf protocol/src/nan/.output/AR6320/hw.3/lib/libnanwlan.a(wlan_nan_bloom_filter.o)
                                0x4c7 (size before relaxing)
                0x009e4380                _NAN_BloomFilterModuleInit
                0x009e43b0                _NAN_BloomFilterModuleDeinit
                0x009e43c0                _NAN_BloomFilterInit
                0x009e4440                _NAN_BloomFilterValid
                0x009e4498                _NAN_BloomFilterReset
                0x009e4520                _NAN_BloomFilterSetEntry
                0x009e45b8                _NAN_BloomFilterClearEntry
                0x009e4644                _NAN_BloomFilterCheckEntry
                0x009e469c                _NAN_BloomFilterUpdateCounters
                0x009e4758                _NAN_BloomFilterEstimateSize
 *fill*         0x009e47db        0x1 00
 .text          0x009e47dc       0x26 protocol/src/nan/.output/AR6320/hw.3/lib/libnanwlan.a(wlan_nan_crc.o)
                0x009e47dc                _NAN_Crc32
 *fill*         0x009e4802        0x2 00
 .text          0x009e4804      0x150 protocol/src/nan/.output/AR6320/hw.3/lib/libnanwlan.a(wlan_nan_log.o)
                0x009e4804                _NANLOG_MsgLog
                0x009e48bc                _NANLOG_OtaFrameLog
 .text          0x009e4954       0x20 protocol/src/nan/.output/AR6320/hw.3/lib/libnanwlan.a(wlan_nan_time.o)
                0x009e4954                _NANTIME_TtlExpired
 .text          0x009e4974       0xd3 protocol/src/nan/.output/AR6320/hw.3/lib/libnanwlan.a(wlan_nan_tlv.o)
                0x009e4974                _NANTLV_WriteTlv
                0x009e49e0                _NANTLV_ReadTlv
 *fill*         0x009e4a47        0x1 00
 .text          0x009e4a48       0xa9 protocol/src/nan/.output/AR6320/hw.3/lib/libnanwlan.a(wlan_nan_util.o)
                0x009e4a48                NAN_ComputeMasterRank
                0x009e4a7c                NAN_ParseMasterRank
                0x009e4abc                NAN_MasterRankGetRandomFactor
                0x009e4ac4                NAN_MasterRankGetMasterPref
                0x009e4acc                NAN_AreRanksSameDevice
 *fill*         0x009e4af1        0x3 00
 .text          0x009e4af4      0x27a protocol/src/nan/.output/AR6320/hw.3/lib/libnanwlan.a(wlan_nan_beacon_ie.o)
                                0x27e (size before relaxing)
                0x009e4af4                NANBCN_UpdateMasterIndicationAttr
                0x009e4b0c                NANBCN_UpdateClusterAttr
                0x009e4b48                NANBCN_UpdateServiceIdAttr
                0x009e4b88                NANBCN_UpdateVendorSpecificAttr
                0x009e4bd8                NANBCN_UpdateBeaconAttributes
                0x009e4c3c                NANBCN_ParseIe
 *fill*         0x009e4d6e        0x2 00
 .text          0x009e4d70      0xc41 protocol/src/nan/.output/AR6320/hw.3/lib/libnanwlan.a(wlan_nan_beacon_rx.o)
                                0xc55 (size before relaxing)
                0x009e4f90                NANBCN_InitAvgRssi
                0x009e4fac                NANBCN_UpdateAvgRssi
                0x009e4ff8                NANBCN_GetAvgRssi
                0x009e5028                NANBCN_DumpAvgRssi
                0x009e50d0                NANBCN_Dump
                0x009e51e8                NANBCN_DwEndDump
                0x009e5214                NANBCN_DwEndStateCheck
                0x009e56cc                NANBCN_BeaconProcess
 *fill*         0x009e59b1        0x3 00
 .text          0x009e59b4      0x2c7 protocol/src/nan/.output/AR6320/hw.3/lib/libnanwlan.a(wlan_nan_beacon_tx.o)
                                0x2cf (size before relaxing)
                0x009e59b4                NANBCN_PrepareBeacon
                0x009e5b58                NANBCN_UpdateSyncBeacon
                0x009e5b98                NANBCN_CancelSyncBeacon
                0x009e5be0                NANBCN_SendBeacon
                0x009e5c74                NANBCN_Init
 *fill*         0x009e5c7b        0x1 00
 .text          0x009e5c7c      0x62c protocol/src/nan/.output/AR6320/hw.3/lib/libnanwlan.a(wlan_nan_cluster_sm.o)
                                0x64c (size before relaxing)
                0x009e5c7c                WLANNAN_ClusterSM_GetEventName
                0x009e60d0                WLANNAN_ClusterSM_DebugPrint
                0x009e60d8                WLANNAN_ClusterSM_GetDebugLogData
                0x009e60e0                WLANNAN_ClusterSM_Init
                0x009e613c                WLANNAN_ClusterSM_Deinit
                0x009e616c                WLANNAN_ClusterSM_Start
                0x009e6198                WLANNAN_ClusterSM_Stop
                0x009e61cc                WLANNAN_ClusterSM_ScanComplete
                0x009e6200                WLANNAN_ClusterSM_BeaconRcvd
                0x009e6234                WLANNAN_ClusterSM_Merge
                0x009e6268                WLANNAN_ClusterSM_IsStarted
                0x009e6288                WLANNAN_ClusterSM_IsActive
 .text          0x009e62a8      0x300 protocol/src/nan/.output/AR6320/hw.3/lib/libnanwlan.a(wlan_nan_scan.o)
                0x009e62a8                NANScan_EventHandler
                0x009e6380                NANScan_UpdateScanParam
                0x009e647c                NANScan_RegisterCb
                0x009e648c                NANScan_UnRegisterCb
                0x009e649c                NANScan_Init
                0x009e64dc                NANScan_Deinit
                0x009e6510                NANScan_StartReq
                0x009e655c                NANScan_StopReq
 .text          0x009e65a8      0xf29 protocol/src/nan/.output/AR6320/hw.3/lib/libnanwlan.a(wlan_nan_sched.o)
                                0xf6d (size before relaxing)
                0x009e65a8                NANSCHED_Init
                0x009e65dc                NANSCHED_RxBcnHandler
                0x009e6634                NANSCHED_RxSdfHandler
                0x009e6694                NANSCHED_TxBcnCompletionHandler
                0x009e66e4                NANSCHED_TxSdfCompletionHandler
                0x009e672c                NANSCHED_Enable
                0x009e6858                NANSCHED_Disable
                0x009e6874                NANSCHED_HandlePreDw
                0x009e68c0                NANSCHED_HandleDwStart
                0x009e6904                NANSCHED_HandleDwTbtt
                0x009e6914                NANSCHED_HandleDwEnd
                0x009e6948                NANSCHED_TsfTimeoutDwStart
                0x009e699c                NANSCHED_TsfTimeoutDwTbtt
                0x009e69f0                NANSCHED_PreDwSanityChecks
                0x009e6a2c                NANSCHED_DwChannelGrant
                0x009e6c34                NANSCHED_DwChannelEnd
                0x009e6cf0                NANSCHED_DiscBcnChannelGrant
                0x009e6da8                NANSCHED_DiscBcnChannelEnd
                0x009e6dc8                NANSCHED_FawChannelGrant
                0x009e6e38                NANSCHED_FawChannelEnd
                0x009e6e78                NANSCHED_ChannelHandler
                0x009e6fa0                NANSCHED_DoChannelReq
                0x009e7170                NANSCHED_StartDw
                0x009e71c4                NANSCHED_StopDw
                0x009e7250                NANSCHED_StartDiscBcn
                0x009e7280                NANSCHED_StopDiscBcn
                0x009e72d4                NANSCHED_StartFaw
                0x009e7304                NANSCHED_StopFaw
                0x009e7358                NANSCHED_Start
                0x009e7374                NANSCHED_Stop
                0x009e73a0                NANSCHED_ConfigureFaw
                0x009e745c                NANSCHED_CancelFaw
                0x009e7468                NANSCHED_GetNanAvailabilityMap
                0x009e74c4                NANSCHED_ValidateFamBitmap
 *fill*         0x009e74d1        0x3 00
 .text          0x009e74d4      0xd88 protocol/src/nan/.output/AR6320/hw.3/lib/libnanwlan.a(sha2.o)
                0x009e74d4                SHA256_Init
                0x009e7500                SHA256_Transform
                0x009e8030                SHA256_Update
                0x009e8110                SHA256_Final
                0x009e8224                SHA256_End
                0x009e8240                SHA256_Data
 .text          0x009e825c      0x3b6 protocol/src/extscan/.output/AR6320/hw.3/lib/libextscan.a(wlan_extscan_main.o)
                                0x3e2 (size before relaxing)
                0x009e825c                extscan_compress_mac_addr
                0x009e8280                extscan_match_scan_entry_key
                0x009e82bc                extscan_send_start_stop_event
                0x009e8340                extscan_input_parameter_error
                0x009e83dc                extscan_cache_probe_rsp_beacon_handler
                0x009e8514                extscan_main_set_capabilities
                0x009e8554                extscan_main_get_capabilities
                0x009e85cc                extscan_end_of_scan_processing
                0x009e85f8                extscan_main_deinit
                0x009e8608                extscan_main_get_scan_sch_handle
 *fill*         0x009e8612        0x2 00
 .text          0x009e8614      0x9a7 protocol/src/extscan/.output/AR6320/hw.3/lib/libextscan.a(wlan_extscan_wlan_change.o)
                                0x9b3 (size before relaxing)
                0x009e8ae8                extscan_wlan_change_process_table
                0x009e8c24                extscan_wlan_change_update_table
                0x009e8d0c                extscan_wlan_change_init
                0x009e8d1c                extscan_wlan_change_deinit
                0x009e8dd4                extscan_wlan_change_configure
                0x009e8f58                extscan_wlan_change_get_results
                0x009e8f6c                extscan_wlan_change_populate_capabilities_array
                0x009e8fb4                extscan_wlan_change_get_num_tables
 *fill*         0x009e8fbb        0x1 00
 .text          0x009e8fbc      0x50b protocol/src/extscan/.output/AR6320/hw.3/lib/libextscan.a(wlan_extscan_wmi.o)
                                0x513 (size before relaxing)
 *fill*         0x009e94c7        0x1 00
 .text          0x009e94c8      0xd5b protocol/src/extscan/.output/AR6320/hw.3/lib/libextscan.a(wlan_extscan_bssid.o)
                                0xd77 (size before relaxing)
                0x009e9be4                extscan_bssid_rssi_add_entry
                0x009e9de4                extscan_rssi_bssid_process_table
                0x009e9e24                extscan_bssid_init
                0x009e9e34                extscan_rssi_init
                0x009e9e44                extscan_bssid_rssi_reset_tables
                0x009e9e5c                extscan_bssid_rssi_deinit
                0x009e9e74                extscan_bssid_rssi_restart_tables
                0x009ea190                extscan_get_bssid_rssi_results
                0x009ea1e8                extscan_bssid_rssi_populate_capabilities_array
                0x009ea21c                extscan_bssid_rssi_get_num_tables
 *fill*         0x009ea223        0x1 00
 .text          0x009ea224      0x963 protocol/src/extscan/.output/AR6320/hw.3/lib/libextscan.a(wlan_extscan_bucket.o)
                                0x973 (size before relaxing)
                0x009ea224                extscan_bucket_get_request_id
                0x009ea230                extscan_bucket_get_requestor_id
                0x009ea23c                extscan_bucket_get_vdev_id
                0x009ea248                extscan_bucket_get_forwarding_flags
                0x009ea5c0                extscan_bucket_stop_current_scans
                0x009ea9d8                extscan_bucket_start_operation
                0x009eaaf4                extscan_bucket_stop_operation
                0x009eab58                extscan_bucket_init
                0x009eab80                extscan_bucket_get_max_buckets
 *fill*         0x009eab87        0x1 00
 .text          0x009eab88      0x44b protocol/src/extscan/.output/AR6320/hw.3/lib/libextscan.a(wlan_extscan_hotlist.o)
                                0x453 (size before relaxing)
                0x009ead1c                extscan_hotlist_update_table
                0x009eadc4                extscan_hotlist_init
                0x009eadd4                extscan_hotlist_deinit
                0x009eae30                extscan_hotlist_configure
                0x009eaf94                extscan_hotlist_populate_capabilities_array
                0x009eafcc                extscan_hotlist_get_num_tables
 *fill*         0x009eafd3        0x1 00
 .text          0x009eafd4      0xdb0 mac_core/src/wal/AR/rtt/.output/AR6320/hw.3/lib/ar_wal_rtt.a(wal_rtt.o)
                0x009eafd4                _wal_rtt_get_dyn_bw
                0x009eb014                _wal_rtt_ctxt_init
                0x009eb078                _wal_report_type2_buffer_init
                0x009eb0d0                _wal_report_type2_buffer_clean
                0x009eb114                _wal_report_type2_per_peer_report_buff_init
                0x009eb1bc                _wal_report_type2_buffer_len
                0x009eb1f0                _wal_rtt_ctxt_clean
                0x009eb224                _wal_rtt_resp_hw_recover
                0x009eb238                _wal_rtt_get_tx_rate
                0x009eb240                _wal_rtt_get_rx_rate
                0x009eb248                _wal_rtt_local_frame_send_with_rate
                0x009eb298                _wal_fac_handler
                0x009eb550                _wal_rtt_obtain_stronger_rssi
                0x009eb5a8                _wal_report_type2_collect_report_info
                0x009eb870                _wal_rtt_null_ack_hdl
                0x009eb8fc                _wal_rtt_tmr_start_ack_hdl
                0x009eb928                _wal_rtt_tmr_stop_ack_hdl
                0x009eb930                _wal_rtt_tm_ack_hdl
                0x009eba00                _wal_rtt_mac_match
                0x009eba30                _wal_rtt_tmr_rx_hdl
                0x009ebad0                _wal_rtt_tm_rx_hdl
 .text          0x009ebd84      0x276 mac_core/patch/AR6320/v3/.output/AR6320/hw.3/lib/lib_maccore_patches.a(ar_wal_connection_pause_patch.o)
                0x009ebd84                patch_ar_connection_pause_state_pause_send_n_event
                0x009ebe18                patch_ar_connection_pause_state_pause_send_n_exit
                0x009ebea4                patch_ar_connection_pause_state_block_entry
                0x009ebf18                patch_ar_wal_connection_pause_dev_event_handler
                0x009ebf60                patch_ar_wal_connection_pause_block_enable
                0x009ebfac                patch_ar_wal_connection_pause_block_disable
 *fill*         0x009ebffa        0x2 00
 .text          0x009ebffc      0x651 mac_core/patch/AR6320/v3/.output/AR6320/hw.3/lib/lib_maccore_patches.a(ar_wal_phy_dev_patch.o)
                                0x655 (size before relaxing)
                0x009ebffc                patch_wal_dev_reset
                0x009ec150                read_register
                0x009ec158                dump_bb_mac_reg
                0x009ec2f0                patch_wal_phy_dev_set_power_state
                0x009ec3e8                patch_wal_phy_dev_fast_wake_request
                0x009ec404                patch_wal_phy_dev_fast_wake_release
                0x009ec420                wal_get_pdev_filter
                0x009ec428                wal_get_pdev_paused
                0x009ec434                patch_wal_pdev_suspend
                0x009ec540                patch_wal_pdev_resume
                0x009ec588                patch_wal_pdev_get_cycle_counters
                0x009ec5ac                patch_wal_pdev_get_my_rx_counter
                0x009ec5bc                patch_wal_set_pdev_param
                0x009ec5f8                patch_wal_pdev_get_sifburst_flag
                0x009ec604                patch_wal_rx_remote_ring_buffer_stats_publish
                0x009ec634                patch_wal_rx_remote_ring_buffer_stats_reset
                0x009ec63c                wal_get_rssi_comb
 *fill*         0x009ec64d        0x3 00
 .text          0x009ec650      0x46a mac_core/patch/AR6320/v3/.output/AR6320/hw.3/lib/lib_maccore_patches.a(cmnos_retention_patch.o)
                                0x4ae (size before relaxing)
                0x009ec650                patch_athos_interrupt_handler
                0x009ec6fc                patch_cmnos_retention_save_isr
                0x009ec828                ltecoex_timer_handler
                0x009ec838                ltecoex_wakeup_handler
                0x009ec85c                patch_cmnos_retention_restore_isr
                0x009eca10                patch_cmnos_retention_pwr_vol_iso_en
                0x009eca18                patch_cmnos_retention_hyst_en
 *fill*         0x009ecaba        0x2 00
 .text          0x009ecabc      0xd3a mac_core/patch/AR6320/v3/.output/AR6320/hw.3/lib/lib_maccore_patches.a(ar_wal_tx_de_patch.o)
                0x009ecabc                _tx_de_cache_match
                0x009ecb30                _tx_de_register_coex_cb
                0x009ecb3c                _tx_de_unregister_coex_cb
                0x009ecb48                patch_tx_de_input
                0x009ed6d8                patch_tx_de_eapol_peer_send_complete
                0x009ed7dc                patch_wal_tx_de_setup_dscp_mapping
 *fill*         0x009ed7f6        0x2 00
 .text          0x009ed7f8      0x7e9 mac_core/patch/AR6320/v3/.output/AR6320/hw.3/lib/lib_maccore_patches.a(ar_wal_local_frames_wifi_ip01_patch.o)
                0x009ed7f8                patch_local_frame_handle_completion
                0x009ed914                patch_local_frame_send_with_rate
                0x009edc30                patch_mgmt_frame_send_with_rate
                0x009edf10                patch_local_frame_set_pm
                0x009edf74                patch_local_data_frame_send_with_rate
 *fill*         0x009edfe1        0x3 00
 .text          0x009edfe4      0x289 mac_core/patch/AR6320/v3/.output/AR6320/hw.3/lib/lib_maccore_patches.a(pool_mgr_patch.o)
                                0x28d (size before relaxing)
                0x009edfe4                _pool_mem_iter_init
                0x009edff0                _pool_mem_iter_next
                0x009ee14c                _pool_init_ex
                0x009ee24c                patch_pool_mgr
 *fill*         0x009ee26d        0x3 00
 .text          0x009ee270     0x35bc mac_core/patch/AR6320/v3/.output/AR6320/hw.3/lib/lib_maccore_patches.a(ar_wal_rx_patch.o)
                               0x35c0 (size before relaxing)
                0x009ee270                patch_rx_process_recv_status
                0x009efd14                patch_rx_ring_msdu_pop
                0x009eff88                patch_rx_suspend
                0x009effdc                patch_rx_resume_ll
                0x009f00cc                rx_block_resume
                0x009f00ec                patch_rx_ring_reque_buffers
                0x009f0128                _rx_data_reorder_flush
                0x009f0154                _rx_local_buf_lwm
                0x009f0168                patch_rx_attach
                0x009f0278                patch_rx_setup_ring_for_offload
                0x009f0438                patch_rx_restore_ring_from_offload
                0x009f0588                patch_rx_ring_msdu_discard
                0x009f05c4                patch_rx_ring_amsdu_discard
                0x009f0870                patch_rx_free_msdu
                0x009f0898                patch_rx_free_mpdu
                0x009f08c4                patch_rx_is_local_ring_offloaded
                0x009f08d8                patch_rx_ring_h_cv_info_pop
                0x009f0994                patch_rx_ring_setup
                0x009f0be8                patch_rx_ring_refill_timeout
                0x009f0bf4                patch_rx_ring_req_refill
                0x009f0e18                patch_rx_ring_refill_comp_cb
                0x009f0f50                patch_rx_init_status_ring_ll
                0x009f1044                patch_rx_ring_install_refill_cbs
                0x009f10c8                patch_rx_ring_amsdu_pop
                0x009f1128                patch_rx_ring_phy_err_pop
                0x009f11f8                patch_rx_ring_mgmt_ctrl_null_pop
                0x009f1258                patch_rx_get_ppdu_rate_and_phy_mode
                0x009f1424                patch_rx_ppdu_start_field
                0x009f14ac                patch_rx_ppdu_end_field
                0x009f1500                patch_rx_completion_hdlr
                0x009f156c                patch_rx_ring_buf_consumed
                0x009f1590                patch_rx_offload_get_pn
                0x009f1658                patch_rx_set_phy_err_filter
                0x009f168c                patch_rx_install_capture_h_ind
                0x009f169c                patch_rx_pop_remote_buffer
                0x009f17cc                rx_suspend_wmac_only
                0x009f17fc                wal_rx_assfail_handler
                0x009f180c                wal_get_ext_hdr
                0x009f1818                patch_rx_ring_intf_mac_init_wlanbuf_fn
 .text          0x009f182c      0xad6 mac_core/patch/AR6320/v3/.output/AR6320/hw.3/lib/lib_maccore_patches.a(ar_wal_rx_offload_patch.o)
                0x009f185c                patch_rx_offload_attach
                0x009f18fc                patch_rx_offload_ap_fwd_check
                0x009f1904                patch_rx_offload_sta_fwd_check
                0x009f1c38                patch_rx_offload_fwd_check
                0x009f1efc                patch_rx_offload_igmp_mld_check
                0x009f1f04                patch_rx_offload_register_callback
                0x009f1f38                patch_rx_offload_deregister_callback
                0x009f1f90                patch_rx_offload_set_default_callbacks_state
                0x009f1fa8                patch_rx_offload_execute_callbacks
                0x009f20b8                patch_rx_offload_sta_callback
                0x009f2198                patch_rx_offload_ibss_callback
                0x009f21ac                patch_rx_offload_ap_callback
                0x009f22c8                _rx_offload_hsoffload_callback
 *fill*         0x009f2302        0x2 00
 .text          0x009f2304       0x72 mac_core/patch/AR6320/v3/.output/AR6320/hw.3/lib/lib_maccore_patches.a(ar_wal_rx_common_patch.o)
                0x009f2304                patch_rx_ring_register_buf_handler
                0x009f2328                patch_rx_install_data_ind
                0x009f2338                patch_rx_install_data_buf_consumed_ind
                0x009f2348                patch_rx_install_data_fw_desc_buf_get
                0x009f2358                patch_rx_install_non_data_ind
                0x009f2368                patch_rx_install_data_reorder_flush
 *fill*         0x009f2376        0x2 00
 .text          0x009f2378      0xae9 mac_core/patch/AR6320/v3/.output/AR6320/hw.3/lib/lib_maccore_patches.a(ar_wal_vdev_patch.o)
                                0xaf1 (size before relaxing)
                0x009f2378                patch_wal_set_chan_paprd_status
                0x009f239c                _wal_vdev_ibss_tsf_oor_handler
                0x009f23e8                patch_wal_vdev_up
                0x009f2468                patch_ar_wal_vdev_mgmt_rx
                0x009f26cc                patch_wal_vdev_get_snr
                0x009f2774                patch_wal_vdev_detach
                0x009f2790                wal_vdev_get_tx_stats
                0x009f27d4                patch_wal_vdev_attach
                0x009f289c                patch_wal_vdev_get_nexttbtt
                0x009f28dc                wal_vdev_clear_iface_stats
                0x009f2984                wal_vdev_start_iface_stats
                0x009f29a4                wal_vdev_beacon_rx
                0x009f29c0                wal_vdev_get_mgmt_action_rx_tx
                0x009f29ec                wal_vdev_get_mgmt_rx
                0x009f2a0c                wal_vdev_get_rssi
                0x009f2a44                wal_vdev_get_iface_tx_rx_apmdus
                0x009f2a78                wal_vdev_get_iface_tx_retries_short_long
                0x009f2aac                wal_vdev_get_iface_contention_stats
                0x009f2b08                wal_vdev_get_iface_tx_stats
                0x009f2b50                wal_vdev_get_iface_rx_stats
                0x009f2b74                wal_vdev_get_iface_mcast_stats
                0x009f2ba8                wal_vdev_get_radio_tx_rx_time
                0x009f2bd8                patch_wal_vdev_get_hw_qdepth
                0x009f2c00                patch_wal_vdev_get_qdepth
                0x009f2c28                wal_vdev_inc_rx_htt_mpdu_err
                0x009f2c48                patch_wal_vdev_down
                0x009f2cd8                patch_wal_vdev_reconfig
                0x009f2d2c                patch_wal_vdev_start
                0x009f2db4                patch_wal_vdev_set_tsf_sync_type
                0x009f2dcc                _wal_vdev_set_11g_erp_enable
                0x009f2de0                _wal_vdev_get_11g_erp_enable
                0x009f2df8                patch_wal_vdev_set_param
 *fill*         0x009f2e61        0x3 00
 .text          0x009f2e64      0x708 mac_core/patch/AR6320/v3/.output/AR6320/hw.3/lib/lib_maccore_patches.a(ar_tx_q_enque_patch.o)
                0x009f2e64                patch_tx_q_enque_fn
                0x009f347c                patch_tx_q_enque_discard
 .text          0x009f356c      0x84c mac_core/patch/AR6320/v3/.output/AR6320/hw.3/lib/lib_maccore_patches.a(tx_sched_patch.o)
                0x009f35cc                patch_tx_sched_register_tbd_callback
                0x009f35dc                patch_tx_sched_init
                0x009f3684                patch_tx_sched_destroy
                0x009f36c0                patch_tx_sch_evt_proc_register
                0x009f371c                patch_tx_sch_evt_proc_unregister
                0x009f3760                patch_tx_sch_evt_proc_insert
                0x009f3794                patch_tx_sched_dispatch_conn_immed
                0x009f3808                patch_tx_sched_self_trig_timeout
                0x009f3864                patch_tx_sch_run_sched
                0x009f38e4                patch_tx_sched_algo
                0x009f3a60                patch_tx_dispatch_tid
                0x009f3b64                patch_tx_sch_evt_proc_txdone
                0x009f3bb4                patch_tx_sch_evt_proc_tickle
                0x009f3ca0                patch_tx_sched_get_typesubtype
                0x009f3cf0                patch_tx_sched_get_filter_value
                0x009f3d80                patch_tx_sch_evt_proc_remove
 .text          0x009f3db8     0x3ebb mac_core/patch/AR6320/v3/.output/AR6320/hw.3/lib/lib_maccore_patches.a(ar_wal_tx_send_patch.o)
                               0x3ecb (size before relaxing)
                0x009f3db8                get_wal_tx_hwq_ext
                0x009f3de4                patch_tx_send_start_pn
                0x009f3e80                patch_tx_send_ppdu_stat_alloc
                0x009f3eb8                patch_tx_send_ppdu_stat_free
                0x009f3efc                patch_tx_send_update_win_completion
                0x009f408c                _wal_set_ifOutOfSync
                0x009f411c                patch_tx_send_deliver_comp_pending_descs_ext
                0x009f43ec                patch_tx_send_handle_completion
                0x009f4628                patch_tx_send_completion_hdlr
                0x009f4d74                patch_wal_tx_send_update_wmm_params
                0x009f4e54                patch_tx_send_get_hw_queue_num
                0x009f4f74                patch_tx_send_txq_setup
                0x009f50d8                patch_tx_send_construct_ppdu
                0x009f53bc                raw_tx_send_start_pn
                0x009f544c                patch_tx_send_post_ppdu
                0x009f5fbc                patch_tx_send_proc_ppdu_done
                0x009f6944                patch_tx_send_adjust_burst_txop
                0x009f6a24                patch_tx_send_comp_pending_flush
                0x009f6a48                patch_tx_send_check_tx_ppdu_fail_threshold
                0x009f6c80                patch_tx_send_release_all_mpdus
                0x009f6df8                patch_tx_send_proc_mpdu_swdone
                0x009f6f40                patch_tx_send_remove_swdone_mpdus
                0x009f7214                patch_tx_send_init_tid_txstate
                0x009f7364                patch_tx_send_find_last_msdu
                0x009f73b4                _tx_send_install_txcomp_buf_req_ext
                0x009f73e0                _tx_send_install_txcomp_indicate_ext
                0x009f7438                _txbf_war_rx_souding_disable
                0x009f7468                _txbf_war_rx_souding_enable
                0x009f7494                patch_tx_send_abort_tx
                0x009f758c                patch_tx_send_resume_bottom
                0x009f75a8                patch_tx_send_resume_top
                0x009f761c                patch_tx_send_burst_disable
                0x009f7670                patch_tx_send_flush_tid
                0x009f77b4                patch_tx_send_config_ba_state
                0x009f7808                patch_tx_send_queue_to_hw
                0x009f78e0                patch_tx_send_merge_reque_mpdus_retry_tid
 *fill*         0x009f7c73        0x1 00
 .text          0x009f7c74      0x20b mac_core/patch/AR6320/v3/.output/AR6320/hw.3/lib/lib_maccore_patches.a(ar_wal_chain_mgmt_patch.o)
                                0x213 (size before relaxing)
                0x009f7c74                patch_wal_chm_set_hw_chainmasks
                0x009f7d84                patch_wal_chm_get_hw_chainmasks
                0x009f7dc4                patch_wal_smps_disable
                0x009f7de8                patch_wal_smps_enable_hw_ctrl
                0x009f7e14                patch_wal_smps_swsel_chainmask
                0x009f7e40                patch_wal_chm_set_tx_cck_chain_masks
 *fill*         0x009f7e7f        0x1 00
 .text          0x009f7e80     0x1bf5 mac_core/patch/AR6320/v3/.output/AR6320/hw.3/lib/lib_maccore_patches.a(ar_wal_peer_patch.o)
                               0x1c09 (size before relaxing)
                0x009f7e80                wal_peer_check_need_ptk_4_way
                0x009f7e8c                wal_peer_check_begin_4_way_handshake
                0x009f7e9c                wal_peer_check_ptk_m4_sent
                0x009f7ea8                wal_peer_set_ptk_m4_sent
                0x009f7eb8                patch_ar_wal_peer_wmmac_events_callback_block
                0x009f7f60                patch_ar_wal_wmmac_update
                0x009f7fcc                patch_ar_wal_wmmac_update_used_time
                0x009f8038                _ar_wal_peer_wmmac_get_txtime
                0x009f8080                _ar_wal_wmmac_tidq_throttle
                0x009f80bc                patch_ar_wal_peer_wmmac_remap_txq
                0x009f815c                patch_ar_wal_peer_wmmac_remap_qid
                0x009f819c                patch_ar_wal_peer_wmmac_events_callback_complete
                0x009f8270                patch_ar_wal_peer_wmmac_status
                0x009f8344                patch_ar_wal_peer_wmmac_update
                0x009f839c                patch_ar_wal_peer_wmmac_init
                0x009f8414                patch_wal_peer_alloc
                0x009f8b8c                patch_wal_peer_free
                0x009f8cd8                patch_ar_wal_peer_wmmac_deinit
                0x009f8d1c                patch_ar_wal_get_tid
                0x009f8d38                patch_wal_peer_get_param
                0x009f8d88                patch_ar_wal_peer_set_cbf_table
                0x009f8e68                patch_ar_wal_peer_set_nc_idx
                0x009f8f18                patch_ar_wal_peer_alloc_tid
                0x009f9170                patch_wal_peer_set_param
                0x009f94a0                patch_ar_wal_peer_set_hw_filter
                0x009f962c                patch_wal_ast_free_wds_addr
                0x009f969c                ar_wal_get_tid_ext
                0x009f96c0                patch_ar_wal_peer_free_tid
                0x009f972c                patch_ar_wal_peer_tidq_empty
                0x009f98c0                patch_ar_wal_peer_attach
                0x009f991c                wal_peer_check_flush_tids
                0x009f9958                wal_peer_clear_flush_tid_cnt
                0x009f997c                patch_wal_peer_get_mac_addr
                0x009f9a08                patch_ar_wal_peer_update_rxrate
                0x009f9a40                patch_wal_peer_set_key
 *fill*         0x009f9a75        0x3 00
 .text          0x009f9a78      0x94b mac_core/patch/AR6320/v3/.output/AR6320/hw.3/lib/lib_maccore_patches.a(ar600P_txbf_patch.o)
                                0x977 (size before relaxing)
                0x009f9d88                ar6000_paprd_tx_queue_done
                0x009f9db8                ar6000_cbf_tx_aggr_done
                0x009f9dcc                ar6000_cbf_change_channel
                0x009f9de0                ar6000_cbf_dummy_frm_tx_done_check
                0x009f9e2c                ar6000_cbf_txbf_en
                0x009f9e84                ar6000_cbf_paprd_training_en
                0x009f9ecc                ar6000_cbf_check_mac_pcu_hang
                0x009f9f78                patch_ar6000TxbfeeEnableUploadH
                0x009f9fd4                ar6000TxbfRxFilterPhyData
                0x009fa00c                ar6000TxbfeeRxSounding
                0x009fa07c                patch_ar6000TxbfeeSetCBIndex
                0x009fa0a4                patch_ar6000TxbfeeSetNGIndex
                0x009fa0cc                patch_ar6000InitTxbfStruct
                0x009fa144                patch_ar6000TxbfeeReset
                0x009fa2c0                ar6000TxBfPowerModeHandler
                0x009fa31c                patch_ar6000CheckContinuousCBFRead
                0x009fa348                patch_ar6000SetCbfTableReg
 *fill*         0x009fa3c3        0x1 00
 .text          0x009fa3c4       0x91 mac_core/patch/AR6320/v3/.output/AR6320/hw.3/lib/lib_maccore_patches.a(wal_pps_patch.o)
                                 0x95 (size before relaxing)
                0x009fa3c4                patch_wal_pps_ebt_int_handler
                0x009fa448                wal_pps_patch_install
 *fill*         0x009fa455        0x3 00
 .text          0x009fa458      0xd7d mac_core/patch/AR6320/v3/.output/AR6320/hw.3/lib/lib_maccore_patches.a(ar_xmit_wifi_ip01_patch.o)
                                0xdd9 (size before relaxing)
                0x009fac48                ar6000_xmit_txbfee_war_en
                0x009fac54                patch_ar6000AllocateTxQueue
                0x009fad2c                ar6000ReEnableTxq
                0x009fad5c                patch_ar6000ProcTxDesc
                0x009fae98                patch_ar6000ResetTxQueue
                0x009faf04                patch_ar6000SetTxQueueProps
                0x009faf1c                patch_ar6000XmitReset
                0x009fb0b8                patch_ar6000ResetCW
                0x009fb0d8                patch_ar6000ConfigVMF
                0x009fb10c                patch_ar6000SetPcuPSFilter
                0x009fb140                ar6000Xmit_assfail_handler
                0x009fb188                patch_ar6000SetSelfGenChainMasks
 *fill*         0x009fb1d5        0x3 00
 .text          0x009fb1d8      0x582 mac_core/patch/AR6320/v3/.output/AR6320/hw.3/lib/lib_maccore_patches.a(ar_wal_channel_change_patch.o)
                                0x586 (size before relaxing)
                0x009fb1d8                patch_wal_channel_change
                0x009fb704                patch_wal_set_home_channel
                0x009fb720                patch_wal_setup_phy_watchdog
 *fill*         0x009fb75a        0x2 00
 .text          0x009fb75c      0xbe7 mac_core/patch/AR6320/v3/.output/AR6320/hw.3/lib/lib_maccore_patches.a(ar_wal_rc_patch.o)
                0x009fb75c                _wal_rc_bcast_mcast_data_rc_param_setup
                0x009fb8b4                patch_wal_rc_peer_set_non_data_rc
                0x009fb8cc                patch_wal_rc_peer_get_non_data_rc
                0x009fb934                patch_wal_rc_query_rate_info
                0x009fbb08                patch_wal_rc_set_peer_max_msdu_size
                0x009fbb70                patch_wal_rc_dbg_ext_tx_rate_info
                0x009fbc30                patch_wal_rc_dbg_tx_rate_info
                0x009fbcf8                patch_wal_rc_rx_ext_get_phy_header_info
                0x009fbf18                patch_wal_rc_rx_get_phy_header_info
                0x009fc0a8                patch_wal_rc_install_rate_ctrl_query
                0x009fc0b4                patch_wal_rc_install_rate_ctrl_update
                0x009fc0c4                patch_wal_rc_install_rate_ctrl_fetch
                0x009fc0d4                patch_wal_rc_set_max_msdus
                0x009fc114                wal_rc_rx_peer_get_phy_header_info
                0x009fc2d4                patch_wal_rc_get_vdev_tx_chainmask_4_rc
                0x009fc304                _wal_rc_set_cck_chain_mask
                0x009fc338                _wal_rc_get_cck_chain_mask
 *fill*         0x009fc343        0x1 00
 .text          0x009fc344      0xb58 mac_core/patch/AR6320/v3/.output/AR6320/hw.3/lib/lib_maccore_patches.a(dbglog_patch.o)
                                0xb5c (size before relaxing)
                0x009fc344                patch_dbglog_call_debug_logs_cb
                0x009fc37c                patch_dbglog_manage_log_buffer
                0x009fc464                patch_dbglog_add_argument
                0x009fc4c4                patch_dbglog_flushbuf_timer
                0x009fc590                patch_dbglog_suspend
                0x009fc5b4                patch_dbglog_resume
                0x009fc5d4                patch_dbglog_init
                0x009fc758                patch_dbglog_queue_buffer
                0x009fc7c8                patch_dbglog_record_log_buf
                0x009fc874                patch_dbglog_record_log
                0x009fc9fc                _wlan_diag_message
                0x009fcad0                _wlan_diag_report_log_event
                0x009fcbc8                _wlan_diag_config
                0x009fcc8c                patch_dbglog_send_debug_logs
                0x009fcd38                patch_dbglog_config_debug_module
                0x009fce34                dbglog_get_loglvl
                0x009fce60                dbglog_set_loglvl
 .text          0x009fce9c       0x51 mac_core/patch/AR6320/v3/.output/AR6320/hw.3/lib/lib_maccore_patches.a(ar600p_beacon_patch.o)
                                 0x59 (size before relaxing)
                0x009fce9c                patch_ar6000SetTsf
                0x009fced0                patch_ar6000SetStaBeaconTimers
 *fill*         0x009fceed        0x3 00
 .text          0x009fcef0      0x34e mac_core/patch/AR6320/v3/.output/AR6320/hw.3/lib/lib_maccore_patches.a(ar6000_power_patch.o)
                                0x362 (size before relaxing)
                0x009fcef0                patch_ar6000RFLPSynthBypassConfig
                0x009fd018                ar6000RegisterSetPowerModeCb
                0x009fd02c                whalNotifySetPowerModeCb
                0x009fd04c                patch_ar6000SetPowerModeAwake
                0x009fd078                patch_ar6000SetPowerModeSleep
                0x009fd0a4                patch_ar6000SetPowerModeNetworkSleep
                0x009fd0d0                __ar6000HwSetPowerModeAwake
                0x009fd140                __ar6000HwSetPowerModeSleep
                0x009fd170                __ar6000HwSetPowerModeNetworkSleep
                0x009fd1a0                ar6000PowerDsrPre
                0x009fd1d0                ar6000PowerDsrPost
                0x009fd1ec                ar6000HwSetPowerModeAwake
                0x009fd208                ar6000HwSetPowerModeSleep
                0x009fd224                ar6000HwSetPowerModeNetworkSleep
 *fill*         0x009fd23e        0x2 00
 .text          0x009fd240      0x10f mac_core/patch/AR6320/v3/.output/AR6320/hw.3/lib/lib_maccore_patches.a(ar6000_interrupt_patch.o)
                                0x11f (size before relaxing)
                0x009fd240                patch_ar6000EnableInterrupts
                0x009fd294                patch_ar6000DisableInterrupts
                0x009fd328                ar6000_interrupt_patch_install
 *fill*         0x009fd34f        0x1 00
 .text          0x009fd350      0x507 mac_core/patch/AR6320/v3/.output/AR6320/hw.3/lib/lib_maccore_patches.a(cmnos_intrinf_patch.o)
                                0x513 (size before relaxing)
                0x009fd350                patch_cmnos_intr_handle_pending_dsrs
                0x009fd768                patch_cmnos_intr_dsrs_pending
                0x009fd784                continuous_reading_check
                0x009fd7e8                patch_cmnos_error_isr
                0x009fd84c                cmnos_get_intr_level
 *fill*         0x009fd857        0x1 00
 .text          0x009fd858      0x3b1 mac_core/patch/AR6320/v3/.output/AR6320/hw.3/lib/lib_maccore_patches.a(patch_pcie.o)
                                0x3d5 (size before relaxing)
                0x009fd858                pcie_linkdown
                0x009fd888                patch_pcie_reset_handler
                0x009fd95c                patch_pcie_pause
                0x009fd9c0                patch_pcie_resume
                0x009fd9f4                dump_rtc_registers
                0x009fda10                patch_CE_misc_handler
                0x009fdb00                patch_host_wake
                0x009fdb3c                patch_pcie
 *fill*         0x009fdc09        0x3 00
 .text          0x009fdc0c      0x7b3 mac_core/patch/AR6320/v3/.output/AR6320/hw.3/lib/lib_maccore_patches.a(patch_usb.o)
                0x009fdc24                _HIFusb_notify_patch
                0x009fdc2c                _HIFusb_pipe_config_patch
                0x009fdca8                dwc_usb3_enable_device_interrupts_patch
                0x009fdcc4                _dwc_usb3_gadget_suspend_patch
                0x009fdd34                _dwc_usb3_gadget_resume_patch
                0x009fdd54                _dwc_usb3_function_remote_wakeup_patch
                0x009fdd7c                _handle_usb_reset_intr_patch
                0x009fdda0                __dma_insert_buf_patch
                0x009fdf08                usb_vbus_gpio_configure
                0x009fdf4c                usb_vbus_handler
                0x009fdf90                dwc_usb3_grxthrcfg
                0x009fdfc0                dwc_usb3_set_dcfg_nump
                0x009fe0ec                _____dwc_usb3_handle_ep_intr
                0x009fe238                patch_dwc_usb3_handle_event
                0x009fe2f4                patch_dwc_usb3_disable_u1_u2
                0x009fe2fc                patch_usb
                0x009fe3a8                patch_hif_usb
 *fill*         0x009fe3bf        0x1 00
 .text          0x009fe3c0       0x6d mac_core/patch/AR6320/v3/.output/AR6320/hw.3/lib/lib_maccore_patches.a(wal_beacon_patch.o)
                                 0x71 (size before relaxing)
                0x009fe3c0                patch_wal_beacon_vdev_set_beacon_config
                0x009fe3e8                _wal_beacon_queue_reset
                0x009fe3f4                patch_wal_beacon_completion_callback
 *fill*         0x009fe42d        0x3 00
 .text          0x009fe430      0x1a0 mac_core/patch/AR6320/v3/.output/AR6320/hw.3/lib/lib_maccore_patches.a(wal_swba_patch.o)
                0x009fe430                _wal_swba_next_vdev_valid
                0x009fe470                patch_wal_swba_intr_callback
 .text          0x009fe5d0      0x30a mac_core/patch/AR6320/v3/.output/AR6320/hw.3/lib/lib_maccore_patches.a(ar600P_retention_patch.o)
                                0x31a (size before relaxing)
                0x009fe5d0                patch_ar6000RetentionRadioLongshiftSave
                0x009fe614                patch_ar6000RetentionRadioLongshiftRestore
                0x009fe638                patch_ar6000RetentionMACSave
                0x009fe67c                patch_ar6000RetentionShadowBBRegister
                0x009fe6a8                patch_ar6000RetentionShadowMACRegister
                0x009fe6d4                patch_ar6000RetentionShadowAnalogRegister
                0x009fe700                ar6000_dyn_bw_save
                0x009fe74c                ar6000_dyn_bw_restore
                0x009fe7a0                patch_ar6000RetentionBBSave
                0x009fe7c4                ar6000RetentionPostRestore
                0x009fe818                patch_ar6000RetentionMACRestore
                0x009fe8a8                shadow_register
                0x009fe8d0                patch_ar600PRetentionRegWrTrack
 *fill*         0x009fe8da        0x2 00
 .text          0x009fe8dc      0x18f mac_core/patch/AR6320/v3/.output/AR6320/hw.3/lib/lib_maccore_patches.a(patch_hif_ce.o)
                0x009fe8dc                patch_HIF_memcpy_wait_for_completion
                0x009fe900                patch_HIF_CE_memcpy
                0x009fe998                patch_HIF_CE_send_buffer
                0x009fea28                _HIF_CE_memcpy_avail_desc
                0x009fea4c                patch_hif_ce
 *fill*         0x009fea6b        0x1 00
 .text          0x009fea6c      0x2e7 mac_core/patch/AR6320/v3/.output/AR6320/hw.3/lib/lib_maccore_patches.a(patch_whal_coex.o)
                                0x2f7 (size before relaxing)
                0x009fea6c                patch_whal_coex_config_debug_bus
                0x009feb2c                patch_whal_coex_lookup_selfgen_tx_mask
                0x009feba8                patch_whal_coex_get_selfgen_tx_mask
                0x009febe8                patch_whal_coex_set_selfgen_tx_mask
                0x009fec0c                patch_whal_coex_halphy_event
                0x009fec28                patch_whal_coex_register_callback
                0x009fec40                patch_whal_coex_cal_start
                0x009fec58                _whal_coex_cal_start_alt
                0x009fec98                patch_whal_coex_cal_end
                0x009fecc0                _whal_coex_cal_end_alt
                0x009fed04                _whal_coex_set_wal_1ss_tx_selfgen_mask_control
                0x009fed14                patch_whal_coex
 *fill*         0x009fed53        0x1 00
 .text          0x009fed54      0x1da mac_core/patch/AR6320/v3/.output/AR6320/hw.3/lib/lib_maccore_patches.a(patch_whal_mws.o)
                0x009fed54                _whal_mws_enable_WCI2
                0x009fedb4                _whal_mws_tx_grant_config
                0x009feebc                patch_whal_mws_wlan_tpc_limit_set
                0x009fef20                patch_whal_mws_coex
 *fill*         0x009fef2e        0x2 00
 .text          0x009fef30      0x47c mac_core/patch/AR6320/v3/.output/AR6320/hw.3/lib/lib_maccore_patches.a(patch_whal_mci.o)
                0x009fef30                patch_whal_mci_process_bt_cal_req
                0x009fefcc                patch_whal_mci_send_bt_status_query
                0x009ff008                patch_whal_mci_send_msg
                0x009ff13c                patch_whal_mci_wlan_cal_validate_result
                0x009ff248                patch_whal_mci_send_pending_msgs
                0x009ff328                patch_whal_mci_send_req_wake
                0x009ff378                patch_whal_mci
 .text          0x009ff3ac       0xfb mac_core/patch/AR6320/v3/.output/AR6320/hw.3/lib/lib_maccore_patches.a(ar_wal_tx_dm_patch.o)
                0x009ff3ac                patch_tx_dm_bin_desc_alloc
                0x009ff428                _tx_dm_bin_desc_free
 *fill*         0x009ff4a7        0x1 00
 .text          0x009ff4a8      0x4b7 mac_core/patch/AR6320/v3/.output/AR6320/hw.3/lib/lib_maccore_patches.a(patch_copy_engine.o)
                                0x4bf (size before relaxing)
                0x009ff4a8                patch_CE_check_idle
                0x009ff544                patch_CE_per_engine_handler
                0x009ff674                patch_CE_send
                0x009ff86c                patch_partial_CE_per_engine_handler_adjust
                0x009ff8b0                patch_CE_send_cb_register
                0x009ff8d0                patch_CE_recv_cb_register
                0x009ff8f0                patch_CE_watermark_cb_register
                0x009ff910                ce_assfail_handler
 *fill*         0x009ff95f        0x1 00
 .text          0x009ff960      0x2b2 mac_core/patch/AR6320/v3/.output/AR6320/hw.3/lib/lib_maccore_patches.a(wal_concurrency_patch.o)
 *fill*         0x009ffc12        0x2 00
 .text          0x009ffc14      0x3b7 mac_core/patch/AR6320/v3/.output/AR6320/hw.3/lib/lib_maccore_patches.a(ar_wal_tdls_patch.o)
                                0x3bb (size before relaxing)
                0x009ffc14                patch_wal_tdls_set_param
                0x009ffd70                patch_wal_tdls_get_param
                0x009ffdf0                patch_ar_wal_tdls_attach
                0x009ffe20                _ar_wal_tdls_process_rx_frame
                0x009ffec8                patch_ar_wal_tdls_vattach
                0x009fff50                _wal_tdls_wlan_action_notif
 *fill*         0x009fffcb        0x1 00
 .text          0x009fffcc       0xf4 mac_core/patch/AR6320/v3/.output/AR6320/hw.3/lib/lib_maccore_patches.a(cmnos_timer_patch.o)
                0x009fffcc                patch_cmnos_custom_timer_handler
                0x00a00088                patch_timer_hang_check_handle
 .text          0x00a000c0       0x37 mac_core/patch/AR6320/v3/.output/AR6320/hw.3/lib/lib_maccore_patches.a(ar_wal_tx_hcm_patch.o)
                0x00a000c0                patch_tx_hcm_bin_alloc
 *fill*         0x00a000f7        0x1 00
 .text          0x00a000f8      0x7a2 mac_core/patch/AR6320/v3/.output/AR6320/hw.3/lib/lib_maccore_patches.a(ar_wal_tdls_conn_table_patch.o)
                0x00a000f8                patch_ar_wal_tdls_free_conn_table_entry
                0x00a001e4                patch_ar_wal_tdls_clear_table_entry
                0x00a0026c                patch_ar_wal_tdls_update_conn_table_entry
                0x00a00380                patch_ar_wal_tdls_update_conn_table_entry_state
                0x00a004ec                patch_ar_wal_tdls_conn_table_timer
                0x00a007b4                patch_ar_wal_tdls_conn_table_search_index
                0x00a00838                patch_ar_wal_tdls_conn_track_start
                0x00a00858                patch_ar_wal_tdls_conn_table_attach
 *fill*         0x00a0089a        0x2 00
 .text          0x00a0089c      0x133 mac_core/patch/AR6320/v3/.output/AR6320/hw.3/lib/lib_maccore_patches.a(ar600P_recv_patch.o)
                                0x13f (size before relaxing)
                0x00a008f0                patch_ar6000SetRxFilter
                0x00a00918                patch_ar6000GetRxRingFwIndx
                0x00a00958                patch_ar6000DfsCacOnOff
 *fill*         0x00a009cf        0x1 00
 .text          0x00a009d0       0x4f mac_core/patch/AR6320/v3/.output/AR6320/hw.3/lib/lib_maccore_patches.a(patch_gpio.o)
                0x00a00a00                patch_gpio
 *fill*         0x00a00a1f        0x1 00
 .text          0x00a00a20       0xda mac_core/patch/AR6320/v3/.output/AR6320/hw.3/lib/lib_maccore_patches.a(patch_athos_main.o)
                                 0xe6 (size before relaxing)
                0x00a00a20                patch_athos_interrupt_pcie_host
                0x00a00ad0                patch_athos_interrupt_host
                0x00a00aec                athos_main_patch_install
 *fill*         0x00a00afa        0x2 00
 .text          0x00a00afc      0x140 mac_core/patch/AR6320/v3/.output/AR6320/hw.3/lib/lib_maccore_patches.a(cmnos_misc_patch.o)
                0x00a00afc                patch_cmnos_report_failure_to_host
                0x00a00b34                cmnos_fw_corruption_notify
                0x00a00b90                cmnos_assfail_register
                0x00a00ba4                patch_cmnos_assfail
                0x00a00bd8                cmnos_misc_set_report_wait_func
                0x00a00be4                patch_cmnos_dram_sz
                0x00a00c0c                patch_cmnos_misc_module_phase0_install
                0x00a00c2c                patch_cmnos_misc_module_install
 .text          0x00a00c3c      0x21e mac_core/patch/AR6320/v3/.output/AR6320/hw.3/lib/lib_maccore_patches.a(sha1_patch.o)
                0x00a00c3c                patch_sha1_prf
 *fill*         0x00a00e5a        0x2 00
 .text          0x00a00e5c       0x36 mac_core/patch/AR6320/v3/.output/AR6320/hw.3/lib/lib_maccore_patches.a(patch_hif_sdio.o)
                0x00a00e5c                _HIF_SDIO_register_callback_patch
                0x00a00e78                patch_hif_sdio
 *fill*         0x00a00e92        0x2 00
 .text          0x00a00e94      0x16f mac_core/patch/AR6320/v3/.output/AR6320/hw.3/lib/lib_maccore_patches.a(ar_wal_txbf_patch.o)
                0x00a00e94                wal_txbfee_set_gid_userpos
                0x00a00f34                wal_txbfee_restore_gid_usr_tbl
                0x00a00fe8                wal_txbfee_check_continuous_cbf_read
 *fill*         0x00a01003        0x1 00
 .text          0x00a01004       0xbd mac_core/patch/AR6320/v3/.output/AR6320/hw.3/lib/lib_maccore_patches.a(wmi_dbgloghook_patch.o)
                0x00a01004                dbglog_dispatch_WMI_cmd
                0x00a010b0                patch_dbglog_WMI_register
 *fill*         0x00a010c1        0x3 00
 .text          0x00a010c4      0x20b mac_core/patch/AR6320/v3/.output/AR6320/hw.3/lib/lib_maccore_patches.a(cmnos_allocram_patch.o)
                0x00a010c4                cmnos_allocram_ex
                0x00a01194                cmnos_allocram_mem_iter_init
                0x00a011ac                cmnos_allocram_mem_iter_next_memhunk
                0x00a01248                cmnos_allocram_mem_iter_next
 *fill*         0x00a012cf        0x1 00
 .text          0x00a012d0     0x114c protocol/src/extwow/.output/AR6320/hw.3/lib/libextwow.a(wlan_extwow.o)
                0x00a012d0                before
                0x00a012dc                wlan_extwow_sm_debug_print
                0x00a012e4                wlan_extwow_sm_get_dbglog_data
                0x00a012f4                _wlan_extwow_keepalive_sm_keepalive_timeout
                0x00a01314                _wlan_extwow_keepalive_sm_tcp_tx_timeout
                0x00a01334                _wlan_extwow_keepalive_sm_tcp_rx_timeout
                0x00a01354                _wlan_extwow_keepalive_sm_recv_req_ack
                0x00a01374                _wlan_extwow_keepalive_sm_recv_resp
                0x00a01394                _wlan_extwow_keepalive_sm_exit
                0x00a01694                _wlan_extwow_keepalive_callback
                0x00a016bc                _wlan_extwow_tcp_tx_callback
                0x00a016e4                _wlan_extwow_tcp_rx_callback
                0x00a0170c                _wlan_extwow_sm_init
                0x00a0177c                _wlan_extwow_sm_start
                0x00a0179c                _wlan_extwow_gpio_set_direction
                0x00a017c4                _wlan_extwow_gpio_set_value
                0x00a017e0                _wlan_extwow_gpio_init
                0x00a01810                _wlan_extwow_gpio_wakeup_toggle
                0x00a018f0                _wlan_extwow_wakeup_host_by_wow
                0x00a0195c                _wlan_extwow_indoor_wakeup_host
                0x00a01980                _wlan_extwow_outdoor_wakeup_host
                0x00a019a4                _wlan_extwow_enable_cmd
                0x00a01a20                _wlan_extwow_set_app_type1_params_cmd
                0x00a01a90                _wlan_extwow_set_app_type2_params_cmd
                0x00a01b84                _wlan_extwow_register
                0x00a01ba4                _wlan_extwow_check_tcp_tx_abort
                0x00a01bcc                _wlan_extwow_calc_keepalive_interval
                0x00a01bf4                _wlan_extwow_calc_tcp_tx_timeout_interval
                0x00a01c20                _wlan_extwow_calc_tcp_rx_timeout_interval
                0x00a01c30                _wlan_extwow_outdoor_msg_encrypt
                0x00a01c7c                _wlan_extwow_outdoor_msg_decrypt
                0x00a01ccc                _wlan_extwow_outdoor_msg_encode
                0x00a01d48                _wlan_extwow_outdoor_msg_decode
                0x00a01d84                _wlan_extwow_send_ether_pkt
                0x00a01e04                _wlan_extwow_get_tx_pkt
                0x00a01e58                _wlan_extwow_generate_outdoor_msg
                0x00a01ed0                _wlan_extwow_generate_tcp_pkt
                0x00a01f4c                _wlan_extwow_transmit_keepalive_req_pkt
                0x00a01fc4                _wlan_extwow_transmit_tcp_pkt
                0x00a0202c                _wlan_extwow_rx_data_handler
                0x00a0204c                _wlan_extwow_rx_data_process
                0x00a020b0                _wlan_extwow_pattern_match
                0x00a020e0                _wlan_extwow_indoor_rx_data_process
                0x00a02138                _wlan_extwow_outdoor_msg_process
                0x00a02178                _wlan_extwow_outdoor_tcp_process
                0x00a02304                _wlan_extwow_outdoor_rx_data_process
                0x00a023a8                _wlan_extwow_activate
                0x00a023e0                _wlan_extwow_exit
 .text          0x00a0241c      0x5cd halphy/patch/AR6320/v3/.output/AR6320/hw.3/lib/lib_halphy_patches.a(ar6000_nf_cal_patch.o)
                                0x5ed (size before relaxing)
                0x00a0241c                patch_ar6000NfSaveCal
                0x00a025a4                ar6000AGCFilterPowerRestore
                0x00a026b8                ar6000CLPowerSave
                0x00a026c0                ar6000CLPowerRestore
                0x00a02774                ar6000NF_P_LoadCal
                0x00a02888                patch_ar6000NfLoadCal
                0x00a02894                ar6000Nf_P_RestoreMaxpower
                0x00a028ec                patch_ar6000NfStartCal
                0x00a02928                ar6000_nf_save
                0x00a0293c                ar6000_nf_restore
                0x00a02950                patch_ar6000NfInitCal
                0x00a029c0                ar6000_nf_cal_patch_install
 *fill*         0x00a029e9        0x3 00
 .text          0x00a029ec      0x74d halphy/patch/AR6320/v3/.output/AR6320/hw.3/lib/lib_halphy_patches.a(ar6000_ani_patch.o)
                                0x75d (size before relaxing)
                0x00a029ec                patch_ar6000_ani_control
                0x00a02b88                patch_ar6000_ani_set_ofdm_noise_immunity_level
                0x00a02c54                my_ar6000_ani_store_ini_values
                0x00a0307c                patch_ar6000_clear_mib_counters
                0x00a030e4                ar6000_ani_rts_for_noise
                0x00a03110                ar6000_ani_get_info
                0x00a0312c                ar6000_ani_is_enabled
 *fill*         0x00a03139        0x3 00
 .text          0x00a0313c      0x458 halphy/patch/AR6320/v3/.output/AR6320/hw.3/lib/lib_halphy_patches.a(ar6320_ini_patch.o)
                                0x46c (size before relaxing)
                0x00a0313c                patch_ar6320ProgTxFirTable
                0x00a0316c                ar6320Prog5gChanDenpendPatchTables
                0x00a031c4                ar6320ProgAdditionalIniTables
                0x00a032d0                patch_ar6320ProgIniTables
                0x00a034e8                ar6320ProgGainTable_patch
 .text          0x00a03594     0x178c halphy/patch/AR6320/v3/.output/AR6320/hw.3/lib/lib_halphy_patches.a(ar6320_tpc_config_patch.o)
                               0x1804 (size before relaxing)
                0x00a0361c                patch_ar6000GenPlutTable
                0x00a03794                patch_ar6320AlutGeneration
                0x00a03a6c                Enable_ClkGating
                0x00a03aa0                Restore_ClkGating
                0x00a03abc                patch_ar6000ClpcPlutAlutUpdate
                0x00a03f98                patch_ar6320GetPdetPdadc
                0x00a042a8                patch_ar6000SetPowerCalTable
                0x00a048b4                patch_ar6320SetTpcCLPC
                0x00a0496c                patch_ar6320ProgAlut
                0x00a049d8                updateNewDcIndex
                0x00a04a18                patch_ar6320PdetDcCal
 .text          0x00a04d20     0x157b halphy/patch/AR6320/v3/.output/AR6320/hw.3/lib/lib_halphy_patches.a(ar6320_eeprom_patch.o)
                               0x15b3 (size before relaxing)
                0x00a04d20                ar6000GetFwIniVersion
                0x00a04e40                ar6000GetRssiIndBm
                0x00a04ed8                ar6000GetRssiOffsetforSS
                0x00a04fcc                patch_ar6000SortSpurArray
                0x00a05200                ar6000IsVMode2Wire
                0x00a05214                patch_ar6000SpurDeltaPhase
                0x00a056f8                rom_ar6000EepromSetTransmitPower_fixed
                0x00a05b3c                patch_ar6000InitGreenTxEerpomConfig
                0x00a05e24                patch_ar6000GetCurrentTempInDegC
                0x00a05eac                patch_ar6000EnterVmode
                0x00a05f44                ar6000GetTxSpurTPCInitPwrCfg
                0x00a05f70                ar6000SetSARInd
                0x00a05f7c                ar6000CheckHighTempBackoff
                0x00a05fd4                ar6000GetTPCInitPwrCfg
                0x00a06054                patch_ar6000SetCCKspur
                0x00a06098                patch_ar6000SetHomePowerRateTable
                0x00a06108                ar6000EepromPatchSWCOMGpio
                0x00a06110                ar6000EepromEnableRxDiversity
                0x00a06118                ar6000EepromSetRxDiversity
                0x00a06120                patch_ar6000EepromProcessConfigAddr
                0x00a06218                patch_ar6000SetRegulatoryDomain
                0x00a06230                ar6000AdjustOFDMAckPower
 *fill*         0x00a0629b        0x1 00
 .text          0x00a0629c      0x8c7 halphy/patch/AR6320/v3/.output/AR6320/hw.3/lib/lib_halphy_patches.a(ar600P_reset_patch.o)
                                0x906 (size before relaxing)
                0x00a0629c                adjustTxRxMask
                0x00a062f8                validateChainMasks
                0x00a06358                patch_ar6000ApplyChainMasksToHw
                0x00a06440                patch_ar6000CoexSetTxPowerLimit
                0x00a064e8                patch_ar6000WaitReg
                0x00a065f8                ar6000SetSCPCModeFlag
                0x00a067bc                patch_ar6000WriteAssocid
                0x00a0682c                halt_mac_dma
                0x00a068a8                patch_ar6000WlanHwReset
                0x00a06910                patch_ar6000SetHwChainMasks
                0x00a06aa4                patch_ar6000SetChainMasks
                0x00a06abc                patch_ar6000GetChainMasks
                0x00a06adc                ar6000GetChainMasksEx
                0x00a06b08                ar6000SetCTSChannelBW
 *fill*         0x00a06b63        0x1 00
 .text          0x00a06b64     0x20a6 halphy/patch/AR6320/v3/.output/AR6320/hw.3/lib/lib_halphy_patches.a(ar6000_paprd_patch.o)
                               0x20f2 (size before relaxing)
                0x00a06b64                ar6000DPDGetCurTblIdx
                0x00a079bc                ar6000PaprdAllTableCompleted
                0x00a07d48                ar6000PaprdRestrictPower
                0x00a07d8c                ar6000PaprdGetSCPCIndirectionTable
                0x00a07d94                ar6000PaprdGetSCPCStruct
                0x00a07d9c                ar6000PaprdDoPsatSCPCCal
                0x00a07dc0                ar6000PaprdDoSCPCCal
                0x00a07fec                ar6000_dpd_phyerr_war_init
                0x00a080d0                ar6000PaprdXmitDummyFrame
                0x00a08364                patch_ar6000PaprdReset
                0x00a083e4                patch_ar6000PaprdStopTimer
                0x00a08408                patch_ar6000PaprdStartTimer
                0x00a08438                patch_ar6000PaprdCalibrationResetSM
                0x00a0845c                ar6000PaprdRecoverHang
                0x00a084ac                patch_ar6000PaprdCalibrationSM
                0x00a08818                patch_ar6000PaprdDoCalibration
                0x00a088f0                patch_ar6000PaprdConfig
                0x00a08a4c                patch_ar6000PaprdSetPower
                0x00a08a94                ar6000PaprdGetTxDesc
                0x00a08ab0                ar6000PaprdGetTxQ
                0x00a08b98                patch_ar6000PostAwakeProcessPaprd
                0x00a08bbc                patch_ar6000PostSleepProcessPaprd
 *fill*         0x00a08c0a        0x2 00
 .text          0x00a08c0c       0x45 halphy/patch/AR6320/v3/.output/AR6320/hw.3/lib/lib_halphy_patches.a(ar6000_phy_patch.o)
                                 0x49 (size before relaxing)
 *fill*         0x00a08c51        0x3 00
 .text          0x00a08c54      0x1fb /cad/tensilica/chips/peregrine/RE-2013.3-linux/peregrine/xtensa-elf/lib/xcc//libgcc.a(_muldf3.o)
                0x00a08d34                __muldf3
 *fill*         0x00a08e4f        0x1 00
 .text          0x00a08e50       0x5d /cad/tensilica/chips/peregrine/RE-2013.3-linux/peregrine/xtensa-elf/lib/xcc//libgcc.a(_fixunsdfsi.o)
                0x00a08e50                __fixunsdfsi
 *fill*         0x00a08ead        0x3 00
 .text          0x00a08eb0      0x31a /cad/tensilica/chips/peregrine/RE-2013.3-linux/peregrine/xtensa-elf/lib/xcc//libgcc.a(_udivdi3.o)
                                0x35a (size before relaxing)
                0x00a08eb0                __udivdi3
 *fill*         0x00a091ca        0x2 00
 .text          0x00a091cc      0x353 /cad/tensilica/chips/peregrine/RE-2013.3-linux/peregrine/xtensa-elf/lib/xcc//libgcc.a(_umoddi3.o)
                                0x387 (size before relaxing)
                0x00a091cc                __umoddi3
 *fill*         0x00a0951f        0x1 00
 .text          0x00a09520      0x14b protocol/src/tcpip/.output/AR6320/hw.3/lib/libtcpip.a(wlan_pb.o)
                0x00a09520                _wlan_pb_uint32_pack
                0x00a09550                _wlan_pb_int32_pack
                0x00a095bc                _wlan_pb_uint64_pack
                0x00a09640                _wlan_pb_tag_pack
 *fill*         0x00a0966b        0x1 00
 .text          0x00a0966c      0x441 protocol/src/tcpip/.output/AR6320/hw.3/lib/libtcpip.a(wlan_tcpip.o)
                0x00a0966c                _wlan_tcpip_checksum
                0x00a09754                _wlan_tcpip_fill_ipHeader
                0x00a09838                _wlan_tcpip_fill_tcpHeader
                0x00a09950                _wlan_tcpip_fill_udp
                0x00a099fc                _wlan_tcpip_verify_checksum
 *fill*         0x00a09aad        0x3 00
 .text          0x00a09ab0      0x3f8 mac_core/src/misc/serport/.output/AR6320/hw.3/lib/libserport.a(serial_if.o)
                0x00a09ac8                _NotifyIOThresholdEvent
                0x00a09aec                SerP_CancelTimer
                0x00a09b3c                SerP_RXTimerCallback
                0x00a09b50                SerP_TXTimerCallback
                0x00a09b64                _CleanupSerialPort
                0x00a09e78                SERP_module_install
 .text          0x00a09ea8      0x289 mac_core/src/misc/serport/.output/AR6320/hw.3/lib/libserport.a(serial_port.o)
                                0x28d (size before relaxing)
                0x00a09ea8                _SerPFlushBuffer
                0x00a09eb8                _SerPPushBytes
                0x00a09f08                _SerPPopBytes
                0x00a0a118                serport_hw_api_install
 *fill*         0x00a0a131        0x3 00
 .text          0x00a0a134      0x77c mac_core/src/misc/uartserp/.output/AR6320/hw.3/lib/libuartserp.a(uartserp.o)
                                0x790 (size before relaxing)
                0x00a0a134                _StartStopInterruptPolling
                0x00a0a168                _InterruptPollCallback
                0x00a0a1dc                _UartTryTransmit
                0x00a0a240                _UartReceive
                0x00a0a2cc                _UartDevSetBaud
                0x00a0a320                _CatchTxOverFlowError
                0x00a0a330                _CatchRxOverFlowError
                0x00a0a338                _UartDevDsrHandler
                0x00a0a3a4                _UartDevPortPinsEnableDisable
                0x00a0a3f0                _UartDevShutDownUart
                0x00a0a418                _UartDevSetupUart
                0x00a0a4e4                _UartConfigureRxWake
                0x00a0a800                _UartRxPinInterruptHandler
                0x00a0a89c                UARTSERP_HW_module_install
 .text          0x00a0a8b0      0x49a mac_core/src/wal/AR/nan/.output/AR6320/hw.3/lib/ar_wal_nan.a(wal_nan_mac.o)
                                0x4ae (size before relaxing)
                0x00a0a8b0                _wal_nan_mac_cancel_dwcm_tmr
                0x00a0a8dc                _wal_nan_mac_fire_dwcm_tmr
                0x00a0a910                _wal_nan_mac_dwcm_timeout
                0x00a0a994                _wal_nan_mac_dw_timeout
                0x00a0aa00                _wal_nan_mac_frame_lifetime
                0x00a0aa0c                _wal_nan_mac_get_remaining_dw
                0x00a0aa28                _wal_nan_mac_update_dw
                0x00a0ab28                _wal_nan_mac_set_backoff_params
                0x00a0abb0                _wal_nan_mac_get_backoff_params
                0x00a0abf8                _wal_nan_mac_qcu_filter
                0x00a0ac40                _wal_nan_mac_bcn_filter
                0x00a0ac54                _wal_nan_mac_force_rbo
                0x00a0ac9c                _wal_nan_mac_prepare_whal
                0x00a0ad2c                _wal_nan_mac_resume_dwcm_tmr_exec
 .text          0x00a0ad4a        0x0 mac_core/patch/AR6320/v3/.output/AR6320/hw.3/obj/app_start.o
 .text          0x00a0ad4a        0x0 protocol/src/init/.output/AR6320/hw.3/lib/libwlaninit.a(umac_init.o)
 *fill*         0x00a0ad4a        0x0 00
 *fill*         0x00a0ad4a        0x0 00
 *fill*         0x00a0ad4a        0x0 00
 *fill*         0x00a0ad4a        0x0 00
 *fill*         0x00a0ad4a        0x0 00
 *fill*         0x00a0ad4a        0x0 00
 *fill*         0x00a0ad4a        0x0 00
 *fill*         0x00a0ad4a        0x0 00
 *fill*         0x00a0ad4a        0x0 00
 *fill*         0x00a0ad4a        0x0 00
 *fill*         0x00a0ad4a        0x0 00
 *fill*         0x00a0ad4a        0x0 00
 *fill*         0x00a0ad4a        0x0 00
 *fill*         0x00a0ad4a        0x0 00
 *fill*         0x00a0ad4a        0x0 00
 *fill*         0x00a0ad4a        0x0 00
 *fill*         0x00a0ad4a        0x0 00
 *fill*         0x00a0ad4a        0x0 00
 *fill*         0x00a0ad4a        0x0 00
 *fill*         0x00a0ad4a        0x0 00
 *fill*         0x00a0ad4a        0x0 00
 *fill*         0x00a0ad4a        0x0 00
 *fill*         0x00a0ad4a        0x0 00
 *fill*         0x00a0ad4a        0x0 00
 *fill*         0x00a0ad4a        0x0 00
 *fill*         0x00a0ad4a        0x0 00
 *fill*         0x00a0ad4a        0x0 00
 *fill*         0x00a0ad4a        0x0 00
 *fill*         0x00a0ad4a        0x0 00
 *fill*         0x00a0ad4a        0x0 00
 *fill*         0x00a0ad4a        0x2 00
 .text          0x00a0ad4c      0x151 protocol/src/mgmt/.output/AR6320/hw.3/lib/libmgmt.a(wlan_ie_utils.o)
                0x00a0ad4c                _wlan_find_ie
                0x00a0ade0                _wlan_find_vendor_specific_ie
 *fill*         0x00a0ae9d        0x0 00
 *fill*         0x00a0ae9d        0x0 00
 *fill*         0x00a0ae9d        0x0 00
 *fill*         0x00a0ae9d        0x0 00
 *fill*         0x00a0ae9d        0x0 00
 *fill*         0x00a0ae9d        0x0 00
 *fill*         0x00a0ae9d        0x0 00
 *fill*         0x00a0ae9d        0x0 00
 *fill*         0x00a0ae9d        0x0 00
 *fill*         0x00a0ae9d        0x0 00
 *fill*         0x00a0ae9d        0x0 00
 *fill*         0x00a0ae9d        0x0 00
 *fill*         0x00a0ae9d        0x0 00
 *fill*         0x00a0ae9d        0x0 00
 *fill*         0x00a0ae9d        0x0 00
 *fill*         0x00a0ae9d        0x0 00
 *fill*         0x00a0ae9d        0x0 00
 *fill*         0x00a0ae9d        0x0 00
 *fill*         0x00a0ae9d        0x0 00
 *fill*         0x00a0ae9d        0x0 00
 *fill*         0x00a0ae9d        0x0 00
 *fill*         0x00a0ae9d        0x0 00
 *fill*         0x00a0ae9d        0x0 00
 *fill*         0x00a0ae9d        0x0 00
 *fill*         0x00a0ae9d        0x0 00
 *fill*         0x00a0ae9d        0x0 00
 *fill*         0x00a0ae9d        0x0 00
 *fill*         0x00a0ae9d        0x0 00
 *fill*         0x00a0ae9d        0x0 00
 *fill*         0x00a0ae9d        0x0 00
 *fill*         0x00a0ae9d        0x0 00
 *fill*         0x00a0ae9d        0x0 00
 *fill*         0x00a0ae9d        0x0 00
 *fill*         0x00a0ae9d        0x0 00
 *fill*         0x00a0ae9d        0x3 00
 .text          0x00a0aea0        0x7 mac_core/src/soc/pcielp/.output/AR6320/hw.3/lib/libpcielp.a(pcielp_buffering.o)
                0x00a0aea0                pcielp_buffering_init
 *fill*         0x00a0aea7        0x0 00
 *fill*         0x00a0aea7        0x0 00
 *fill*         0x00a0aea7        0x0 00
 *fill*         0x00a0aea7        0x0 00
 .text          0x00a0aea7        0x0 mac_core/src/retention/.output/AR6320/hw.3/lib/libretention.a(wlan_retention.o)
 *fill*         0x00a0aea7        0x0 00
 *fill*         0x00a0aea7        0x0 00
 *fill*         0x00a0aea7        0x0 00
 *fill*         0x00a0aea7        0x0 00
 *fill*         0x00a0aea7        0x0 00
 *fill*         0x00a0aea7        0x0 00
 *fill*         0x00a0aea7        0x0 00
 *fill*         0x00a0aea7        0x0 00
 *fill*         0x00a0aea7        0x0 00
 .text          0x00a0aea7        0x0 mac_core/src/hostif/hif/hif_dbguart/.output/AR6320/hw.3/lib/lib_hif_dbguart.a(hif_dbguart_install.o)
 .text          0x00a0aea7        0x0 protocol/src/offload_mgr/stub/.output/AR6320/hw.3/lib/liboffload_mgr_stub.a(offload_mgr_stub.o)
 .text          0x00a0aea7        0x0 protocol/src/offload_mgr/stub/.output/AR6320/hw.3/lib/liboffload_mgr_stub.a(wlan_wow_stub.o)
 .text          0x00a0aea7        0x0 protocol/src/scan/stub/.output/AR6320/hw.3/lib/libscan_stub.a(wlan_scan_sch_stub.o)
 *fill*         0x00a0aea7        0x0 00
 .text          0x00a0aea7        0x0 protocol/src/init/stub/.output/AR6320/hw.3/lib/libwlaninit_stub.a(wlan_buf_stub.o)
 .text          0x00a0aea7        0x0 protocol/src/init/stub/.output/AR6320/hw.3/lib/libwlaninit_stub.a(wlan_dev_stub.o)
 .text          0x00a0aea7        0x0 protocol/src/init/stub/.output/AR6320/hw.3/lib/libwlaninit_stub.a(wlan_peer_stub.o)
 .text          0x00a0aea7        0x0 mac_core/src/data_txrx/stub/.output/AR6320/hw.3/lib/libdatatxrx_stub.a(ieee80211_hdr_stub.o)
 .text          0x00a0aea7        0x0 protocol/src/vdev_mgr/stub/.output/AR6320/hw.3/lib/libvdevmgr_stub.a(wlan_vdev_stub.o)
 .text          0x00a0aea7        0x0 protocol/src/mgmt_txrx/stub/.output/AR6320/hw.3/lib/libmgmttxrx_stub.a(wlan_mgmt_local_txrx_stub.o)
 .text          0x00a0aea7        0x0 protocol/src/mgmt_txrx/stub/.output/AR6320/hw.3/lib/libmgmttxrx_stub.a(ieee_mgmt_rx_stub.o)
 .text          0x00a0aea7        0x0 protocol/src/mgmt/stub/.output/AR6320/hw.3/lib/libmgmt_stub.a(wlan_beacon_stub.o)
 .text          0x00a0aea7        0x0 protocol/src/mgmt/stub/.output/AR6320/hw.3/lib/libmgmt_stub.a(wlan_ie_utils_stub.o)
 .text          0x00a0aea7        0x0 protocol/src/p2p/stub/.output/AR6320/hw.3/lib/libp2p_stub.a(p2p_stub.o)
 *fill*         0x00a0aea7        0x0 00
 *fill*         0x00a0aea7        0x0 00
 *fill*         0x00a0aea7        0x0 00
 *fill*         0x00a0aea7        0x0 00
 *fill*         0x00a0aea7        0x0 00
 *fill*         0x00a0aea7        0x0 00
 *fill*         0x00a0aea7        0x0 00
 *fill*         0x00a0aea7        0x0 00
 *fill*         0x00a0aea7        0x0 00
 *fill*         0x00a0aea7        0x0 00
 *fill*         0x00a0aea7        0x0 00
 *fill*         0x00a0aea7        0x0 00
 *fill*         0x00a0aea7        0x0 00
 *fill*         0x00a0aea7        0x0 00
 *fill*         0x00a0aea7        0x0 00
 *fill*         0x00a0aea7        0x0 00
 *fill*         0x00a0aea7        0x0 00
 *fill*         0x00a0aea7        0x0 00
 *fill*         0x00a0aea7        0x0 00
 *fill*         0x00a0aea7        0x0 00
 *fill*         0x00a0aea7        0x0 00
 *fill*         0x00a0aea7        0x0 00
 *fill*         0x00a0aea7        0x0 00
 *fill*         0x00a0aea7        0x0 00
 *fill*         0x00a0aea7        0x0 00
 *fill*         0x00a0aea7        0x0 00
 *fill*         0x00a0aea7        0x0 00
 *fill*         0x00a0aea7        0x0 00
 .text          0x00a0aea7        0x0 mac_core/patch/AR6320/v3/.output/AR6320/hw.3/lib/lib_maccore_patches.a(install_patches.o)
 .text          0x00a0aea7        0x0 mac_core/patch/AR6320/v3/.output/AR6320/hw.3/lib/lib_maccore_patches.a(whal_install_patches.o)
 .text          0x00a0aea7        0x0 mac_core/patch/AR6320/v3/.output/AR6320/hw.3/lib/lib_maccore_patches.a(wal_install_patches.o)
 *fill*         0x00a0aea7        0x0 00
 *fill*         0x00a0aea7        0x0 00
 *fill*         0x00a0aea7        0x0 00
 *fill*         0x00a0aea7        0x0 00
 *fill*         0x00a0aea7        0x0 00
 *fill*         0x00a0aea7        0x0 00
 *fill*         0x00a0aea7        0x0 00
 *fill*         0x00a0aea7        0x0 00
 *fill*         0x00a0aea7        0x0 00
 *fill*         0x00a0aea7        0x0 00
 *fill*         0x00a0aea7        0x0 00
 *fill*         0x00a0aea7        0x0 00
 *fill*         0x00a0aea7        0x0 00
 *fill*         0x00a0aea7        0x0 00
 *fill*         0x00a0aea7        0x0 00
 *fill*         0x00a0aea7        0x0 00
 .text          0x00a0aea7        0x0 mac_core/patch/AR6320/v3/.output/AR6320/hw.3/lib/lib_maccore_patches.a(wal_rtt_patch.o)
 .text          0x00a0aea7        0x0 mac_core/patch/AR6320/v3/.output/AR6320/hw.3/lib/lib_maccore_patches.a(whal_rtt_patch.o)
 *fill*         0x00a0aea7        0x0 00
 *fill*         0x00a0aea7        0x0 00
 *fill*         0x00a0aea7        0x0 00
 *fill*         0x00a0aea7        0x0 00
 *fill*         0x00a0aea7        0x0 00
 *fill*         0x00a0aea7        0x0 00
 *fill*         0x00a0aea7        0x0 00
 *fill*         0x00a0aea7        0x0 00
 .text          0x00a0aea7        0x0 mac_core/patch/AR6320/v3/.output/AR6320/hw.3/lib/lib_maccore_patches.a(ar_wal_rmc_patch.o)
 *fill*         0x00a0aea7        0x1 00
 .text          0x00a0aea8       0x35 mac_core/patch/AR6320/v3/.output/AR6320/hw.3/lib/lib_maccore_patches.a(whal_rgc_patch.o)
                0x00a0aea8                patch_whal_rgc_supported
                0x00a0aeb0                patch_whal_rgc_enable
                0x00a0aeb8                patch_whal_rgc_set_match
                0x00a0aec0                patch_whal_rgc_clear_match
                0x00a0aec8                patch_whal_rgc_cache_hit
                0x00a0aed0                patch_whal_rgc_cache_flush
                0x00a0aed8                whal_rgc_patch_install
 *fill*         0x00a0aedd        0x0 00
 *fill*         0x00a0aedd        0x0 00
 *fill*         0x00a0aedd        0x0 00
 *fill*         0x00a0aedd        0x0 00
 *fill*         0x00a0aedd        0x0 00
 *fill*         0x00a0aedd        0x0 00
 *fill*         0x00a0aedd        0x0 00
 *fill*         0x00a0aedd        0x0 00
 *fill*         0x00a0aedd        0x0 00
 *fill*         0x00a0aedd        0x0 00
 *fill*         0x00a0aedd        0x0 00
 .text          0x00a0aedd        0x0 mac_core/patch/AR6320/v3/.output/AR6320/hw.3/lib/lib_maccore_patches.a(os_install_wlan_extra_memory_patches.o)
 *fill*         0x00a0aedd        0x0 00
 *fill*         0x00a0aedd        0x0 00
 *fill*         0x00a0aedd        0x3 00
 .text          0x00a0aee0       0x21 mac_core/patch/AR6320/v3/.output/AR6320/hw.3/lib/lib_maccore_patches.a(qheap_patch.o)
                0x00a0aee0                qheap_is_valid
                0x00a0aefc                patch_qheap
 *fill*         0x00a0af01        0x0 00
 *fill*         0x00a0af01        0x0 00
 *fill*         0x00a0af01        0x0 00
 *fill*         0x00a0af01        0x0 00
 *fill*         0x00a0af01        0x0 00
 .text          0x00a0af01        0x0 halphy/patch/AR6320/v3/.output/AR6320/hw.3/lib/lib_halphy_patches.a(halphy_install_patches.o)
 *fill*         0x00a0af01        0x0 00
 *fill*         0x00a0af01        0x0 00
 *fill*         0x00a0af01        0x0 00
 *fill*         0x00a0af01        0x0 00
 *fill*         0x00a0af01        0x0 00
 *fill*         0x00a0af01        0x3 00
 .text          0x00a0af04       0x68 /cad/tensilica/chips/peregrine/RE-2013.3-linux/peregrine/xtensa-elf/lib/xcc//libgcc.a(_divsi3.o)
                0x00a0af04                __divsi3
 .text          0x00a0af6c       0x49 /cad/tensilica/chips/peregrine/RE-2013.3-linux/peregrine/xtensa-elf/lib/xcc//libgcc.a(_modsi3.o)
                0x00a0af6c                __modsi3
 *fill*         0x00a0afb5        0x3 00
 .text          0x00a0afb8       0x50 /cad/tensilica/chips/peregrine/RE-2013.3-linux/peregrine/xtensa-elf/lib/xcc//libgcc.a(_udivsi3.o)
                0x00a0afb8                __udivsi3
 .text          0x00a0b008       0x3d /cad/tensilica/chips/peregrine/RE-2013.3-linux/peregrine/xtensa-elf/lib/xcc//libgcc.a(_umodsi3.o)
                0x00a0b008                __umodsi3
 *fill*         0x00a0b045        0x3 00
 .text          0x00a0b048       0x18 /cad/tensilica/chips/peregrine/RE-2013.3-linux/peregrine/xtensa-elf/lib/xcc//libgcc.a(_ashldi3.o)
                0x00a0b048                __ashldi3
 .text          0x00a0b060       0x19 /cad/tensilica/chips/peregrine/RE-2013.3-linux/peregrine/xtensa-elf/lib/xcc//libgcc.a(_ashrdi3.o)
                0x00a0b060                __ashrdi3
 *fill*         0x00a0b079        0x3 00
 .text          0x00a0b07c       0x18 /cad/tensilica/chips/peregrine/RE-2013.3-linux/peregrine/xtensa-elf/lib/xcc//libgcc.a(_lshrdi3.o)
                0x00a0b07c                __lshrdi3
 *fill*         0x00a0b094        0x0 00
 *fill*         0x00a0b094        0x0 00
 .text          0x00a0b094       0x3d /cad/tensilica/chips/peregrine/RE-2013.3-linux/peregrine/xtensa-elf/lib/xcc//libgcc.a(_floatsidf.o)
                0x00a0b094                __floatunsidf
                0x00a0b0a0                __floatsidf
 *fill*         0x00a0b0d1        0x3 00
 .text          0x00a0b0d4       0x17 /cad/tensilica/chips/peregrine/RE-2013.3-linux/peregrine/xtensa-elf/lib/xcc//libgcc.a(_muldi3.o)
                0x00a0b0d4                __muldi3
 *fill*         0x00a0b0eb        0x0 00
 *fill*         0x00a0b0eb        0x0 00
 *fill*         0x00a0b0eb        0x1 00
 .text          0x00a0b0ec       0x60 /cad/tensilica/chips/peregrine/RE-2013.3-linux/peregrine/xtensa-elf/lib/xcc//libgcc.a(lib2funcs.o)
                0x00a0b0ec                __xtensa_libgcc_window_spill
                0x00a0b0f8                __xtensa_nonlocal_goto
                0x00a0b144                __xtensa_sync_caches
 *fill*         0x00a0b14c        0x0 00
 *fill*         0x00a0b14c        0x0 00
 *fill*         0x00a0b14c        0x0 00
 *(.fini.literal)
 *(.fini)
 *(.gnu.version)
                0x00a0b14c                _text_end = ABSOLUTE (.)
                0x00a0b14c                _etext = .
                0x00a0b14c                . = ALIGN (0x4)
 *fill*         0x00a0b14c        0x0 00
 *(.unpatchable.rodata)
 *fill*         0x00a0b14c        0x4 00
 .unpatchable.rodata
                0x00a0b150       0x92 mac_core/patch/AR6320/v3/.output/AR6320/hw.3/obj/app_start.o
 *fill*         0x00a0b1e2        0xe 00
 .unpatchable.rodata
                0x00a0b1f0       0x5e protocol/src/init/.output/AR6320/hw.3/lib/libwlaninit.a(wlan_init.o)
 *fill*         0x00a0b24e        0x2 00
 .unpatchable.rodata
                0x00a0b250       0xbb protocol/src/init/.output/AR6320/hw.3/lib/libwlaninit.a(wlan_peer.o)
 *fill*         0x00a0b30b        0x5 00
 .unpatchable.rodata
                0x00a0b310       0x8b protocol/src/init/.output/AR6320/hw.3/lib/libwlaninit.a(wlan_buf.o)
 *fill*         0x00a0b39b        0x5 00
 .unpatchable.rodata
                0x00a0b3a0       0xd1 protocol/src/init/.output/AR6320/hw.3/lib/libwlaninit.a(wlan_dev.o)
 *fill*         0x00a0b471        0xf 00
 .unpatchable.rodata
                0x00a0b480       0x23 mac_core/src/mac_core_init/.output/AR6320/hw.3/lib/libmaccoreinit.a(mac_core_init.o)
 *fill*         0x00a0b4a3        0xd 00
 .unpatchable.rodata
                0x00a0b4b0       0x20 mac_core/src/wal/AR/coex/.output/AR6320/hw.3/lib/wal_coex.a(wal_btcoex.o)
 .unpatchable.rodata
                0x00a0b4d0       0x5f mac_core/src/wal/whal/ini/.output/AR6320/hw.3/lib/libwhalini.a(whalini.o)
 *fill*         0x00a0b52f        0x1 00
 .unpatchable.rodata
                0x00a0b530       0x5d mac_core/src/data_txrx/.output/AR6320/hw.3/lib/libdatatxrx.a(data_rx.o)
 *fill*         0x00a0b58d        0x3 00
 .unpatchable.rodata
                0x00a0b590       0xf0 mac_core/src/data_txrx/.output/AR6320/hw.3/lib/libdatatxrx.a(data_rx_peer.o)
 .unpatchable.rodata
                0x00a0b680       0x7f mac_core/src/data_txrx/.output/AR6320/hw.3/lib/libdatatxrx.a(data_rx_pn.o)
 *fill*         0x00a0b6ff        0x1 00
 .unpatchable.rodata
                0x00a0b700       0x55 mac_core/src/data_txrx/.output/AR6320/hw.3/lib/libdatatxrx.a(data_rx_reorder.o)
 *fill*         0x00a0b755        0xb 00
 .unpatchable.rodata
                0x00a0b760      0x107 protocol/src/mgmt_txrx/.output/AR6320/hw.3/lib/libmgmttxrx.a(wlan_mgmt_txrx.o)
 *fill*         0x00a0b867        0x9 00
 .unpatchable.rodata
                0x00a0b870       0x20 protocol/src/vdev_mgr/.output/AR6320/hw.3/lib/libvdevmgr.a(wlan_vdev.o)
 .unpatchable.rodata
                0x00a0b890       0x17 protocol/src/vdev_mgr/.output/AR6320/hw.3/lib/libvdevmgr.a(wlan_vdev_misc.o)
 *fill*         0x00a0b8a7        0x9 00
 .unpatchable.rodata
                0x00a0b8b0       0x38 protocol/src/key_mgmt/.output/AR6320/hw.3/lib/libkeymgmt.a(wlan_key_mgmt.o)
 *fill*         0x00a0b8e8        0x8 00
 .unpatchable.rodata
                0x00a0b8f0       0x58 mac_core/src/ratectrl/.output/AR6320/hw.3/lib/libratectrl_11ac.a(ratectrl_11ac.o)
 *fill*         0x00a0b948        0x8 00
 .unpatchable.rodata
                0x00a0b950       0x30 protocol/src/wmi/.output/AR6320/hw.3/lib/libumacwmi.a(wlan_wmi_events.o)
 .unpatchable.rodata
                0x00a0b980       0x10 protocol/src/wmi/.output/AR6320/hw.3/lib/libumacwmi.a(umac_wmi.o)
 .unpatchable.rodata
                0x00a0b990      0x165 protocol/src/offload_mgr/.output/AR6320/hw.3/lib/liboffload_mgr.a(beacon_filter.o)
 *fill*         0x00a0baf5        0xb 00
 .unpatchable.rodata
                0x00a0bb00       0x7b protocol/src/offload_mgr/.output/AR6320/hw.3/lib/liboffload_mgr.a(offload_mgr.o)
 *fill*         0x00a0bb7b        0x5 00
 .unpatchable.rodata
                0x00a0bb80       0x49 protocol/src/offload_mgr/.output/AR6320/hw.3/lib/liboffload_mgr.a(wlan_gtk_offload.o)
 *fill*         0x00a0bbc9        0x7 00
 .unpatchable.rodata
                0x00a0bbd0       0xc9 protocol/src/offload_mgr/.output/AR6320/hw.3/lib/liboffload_mgr.a(wlan_wow.o)
 *fill*         0x00a0bc99        0x7 00
 .unpatchable.rodata
                0x00a0bca0       0x10 protocol/src/mgmt/.output/AR6320/hw.3/lib/libmgmt.a(wlan_wnm.o)
 .unpatchable.rodata
                0x00a0bcb0       0xc8 mac_core/src/hostif/htc/.output/AR6320/hw.3/lib/libhtc.a(htc.o)
 *fill*         0x00a0bd78        0x8 00
 .unpatchable.rodata
                0x00a0bd80       0x6f mac_core/src/hostif/htt/.output/AR6320/hw.3/lib/libhtt.a(htt_tgt_hif_svc.o)
 *fill*         0x00a0bdef        0x1 00
 .unpatchable.rodata
                0x00a0bdf0      0x15e mac_core/src/hostif/htt/.output/AR6320/hw.3/lib/libhtt.a(htt_tgt_tx.o)
 *fill*         0x00a0bf4e        0x2 00
 .unpatchable.rodata
                0x00a0bf50       0x1b protocol/src/coex/.output/AR6320/hw.3/lib/libcoex.a(coex.o)
 *fill*         0x00a0bf6b        0x5 00
 .unpatchable.rodata
                0x00a0bf70       0x2f protocol/src/scan/.output/AR6320/hw.3/lib/libscan.a(wlan_scan_sm.o)
 *fill*         0x00a0bf9f        0x1 00
 .unpatchable.rodata
                0x00a0bfa0       0x12 protocol/src/roam/.output/AR6320/hw.3/lib/libroam.a(wlan_roam_internal.o)
 *fill*         0x00a0bfb2        0xe 00
 .unpatchable.rodata
                0x00a0bfc0       0x19 protocol/src/stats/.output/AR6320/hw.3/lib/libstats.a(wlan_stats.o)
 *fill*         0x00a0bfd9        0x7 00
 .unpatchable.rodata
                0x00a0bfe0       0x6c protocol/src/txbf/.output/AR6320/hw.3/lib/libtxbf.a(wlan_txbf.o)
 *fill*         0x00a0c04c        0x4 00
 .unpatchable.rodata
                0x00a0c050       0x50 protocol/src/tcpip/.output/AR6320/hw.3/lib/libtcpip.a(wlan_ipv6.o)
 .unpatchable.rodata
                0x00a0c0a0       0x4b protocol/src/offload/.output/AR6320/hw.3/lib/liboffload.a(wlan_arp_ns_offload.o)
 *fill*         0x00a0c0eb        0x5 00
 .unpatchable.rodata
                0x00a0c0f0        0xd protocol/src/offload/.output/AR6320/hw.3/lib/liboffload.a(wlan_beacon_tx_offload.o)
 *fill*         0x00a0c0fd        0x3 00
 .unpatchable.rodata
                0x00a0c100      0x2c6 protocol/src/offload/.output/AR6320/hw.3/lib/liboffload.a(wlan_network_list_offload.o)
 *fill*         0x00a0c3c6        0xa 00
 .unpatchable.rodata
                0x00a0c3d0       0xf1 mac_core/src/wal/whal/reset/.output/AR6320/hw.3/lib/ar6000_cal.a(ar6320_rxdc_cal.o)
 *fill*         0x00a0c4c1        0xf 00
 .unpatchable.rodata
                0x00a0c4d0       0x19 mac_core/src/wal/whal/reset/.output/AR6320/hw.3/lib/ar6000_cal.a(ar6320_pef_cal.o)
 *fill*         0x00a0c4e9        0x7 00
 .unpatchable.rodata
                0x00a0c4f0       0x97 protocol/src/nan/.output/AR6320/hw.3/lib/libnanwlan.a(wlan_nan_de_if.o)
 *fill*         0x00a0c587        0x9 00
 .unpatchable.rodata
                0x00a0c590      0x100 protocol/src/nan/.output/AR6320/hw.3/lib/libnanwlan.a(sha2.o)
 .unpatchable.rodata
                0x00a0c690       0x22 mac_core/patch/AR6320/v3/.output/AR6320/hw.3/lib/lib_maccore_patches.a(ar_wal_phy_dev_patch.o)
 *fill*         0x00a0c6b2        0xe 00
 .unpatchable.rodata
                0x00a0c6c0       0x89 mac_core/patch/AR6320/v3/.output/AR6320/hw.3/lib/lib_maccore_patches.a(ar_wal_rx_patch.o)
 *fill*         0x00a0c749        0x7 00
 .unpatchable.rodata
                0x00a0c750       0xa5 mac_core/patch/AR6320/v3/.output/AR6320/hw.3/lib/lib_maccore_patches.a(ar_wal_peer_patch.o)
 *fill*         0x00a0c7f5        0xb 00
 .unpatchable.rodata
                0x00a0c800       0x17 mac_core/patch/AR6320/v3/.output/AR6320/hw.3/lib/lib_maccore_patches.a(wal_pps_patch.o)
 *fill*         0x00a0c817        0x9 00
 .unpatchable.rodata
                0x00a0c820       0x33 mac_core/patch/AR6320/v3/.output/AR6320/hw.3/lib/lib_maccore_patches.a(cmnos_intrinf_patch.o)
 *fill*         0x00a0c853        0xd 00
 .unpatchable.rodata
                0x00a0c860       0xcb mac_core/patch/AR6320/v3/.output/AR6320/hw.3/lib/lib_maccore_patches.a(patch_pcie.o)
 *fill*         0x00a0c92b        0x5 00
 .unpatchable.rodata
                0x00a0c930       0xa3 mac_core/patch/AR6320/v3/.output/AR6320/hw.3/lib/lib_maccore_patches.a(patch_usb.o)
 *fill*         0x00a0c9d3        0xd 00
 .unpatchable.rodata
                0x00a0c9e0       0xc4 mac_core/patch/AR6320/v3/.output/AR6320/hw.3/lib/lib_maccore_patches.a(patch_copy_engine.o)
 *fill*         0x00a0caa4        0xc 00
 .unpatchable.rodata
                0x00a0cab0        0xe mac_core/patch/AR6320/v3/.output/AR6320/hw.3/lib/lib_maccore_patches.a(cmnos_misc_patch.o)
 *fill*         0x00a0cabe        0x2 00
 .unpatchable.rodata
                0x00a0cac0       0x28 mac_core/patch/AR6320/v3/.output/AR6320/hw.3/lib/lib_maccore_patches.a(wmi_dbgloghook_patch.o)
 *fill*         0x00a0cae8        0x8 00
 .unpatchable.rodata
                0x00a0caf0       0x5c protocol/src/extwow/.output/AR6320/hw.3/lib/libextwow.a(wlan_extwow.o)
 *fill*         0x00a0cb4c        0x4 00
 .unpatchable.rodata
                0x00a0cb50     0x2a60 halphy/patch/AR6320/v3/.output/AR6320/hw.3/lib/lib_halphy_patches.a(ar6320_ini_patch.o)
 .unpatchable.rodata
                0x00a0f5b0       0x42 halphy/patch/AR6320/v3/.output/AR6320/hw.3/lib/lib_halphy_patches.a(ar6320_eeprom_patch.o)
 *fill*         0x00a0f5f2        0xe 00
 .unpatchable.rodata
                0x00a0f600        0x2 halphy/patch/AR6320/v3/.output/AR6320/hw.3/lib/lib_halphy_patches.a(ar6000_paprd_patch.o)
                0x00a0f604                . = ALIGN (0x4)
 *fill*         0x00a0f602        0x2 00
 *(.iram_rwdata)
                0x00a0f604                . = ALIGN (0x4)
                0x00a0f604                _eiram_data = .

.debug
 *(.debug)

.line
 *(.line)

.debug_srcinfo
 *(.debug_srcinfo)

.debug_sfnames
 *(.debug_sfnames)

.comment        0x00000000     0x4e2b
 .comment       0x00000000       0x47 mac_core/patch/AR6320/v3/.output/AR6320/hw.3/obj/app_start.o
                                 0x48 (size before relaxing)
 .comment       0x00000047       0x47 protocol/src/init/.output/AR6320/hw.3/lib/libwlaninit.a(wlan_init.o)
                                 0x48 (size before relaxing)
 .comment       0x0000008e       0x47 protocol/src/init/.output/AR6320/hw.3/lib/libwlaninit.a(wlan_peer.o)
                                 0x48 (size before relaxing)
 .comment       0x000000d5       0x47 protocol/src/init/.output/AR6320/hw.3/lib/libwlaninit.a(umac_init.o)
                                 0x48 (size before relaxing)
 .comment       0x0000011c       0x46 protocol/src/init/.output/AR6320/hw.3/lib/libwlaninit.a(wlan_bss.o)
                                 0x47 (size before relaxing)
 .comment       0x00000162       0x46 protocol/src/init/.output/AR6320/hw.3/lib/libwlaninit.a(wlan_buf.o)
                                 0x47 (size before relaxing)
 .comment       0x000001a8       0x46 protocol/src/init/.output/AR6320/hw.3/lib/libwlaninit.a(wlan_dev.o)
                                 0x47 (size before relaxing)
 .comment       0x000001ee       0x4b mac_core/src/mac_core_init/.output/AR6320/hw.3/lib/libmaccoreinit.a(mac_core_init.o)
                                 0x4c (size before relaxing)
 .comment       0x00000239       0x41 protocol/src/cfg/.output/AR6320/hw.3/lib/libcfg.a(cfg.o)
                                 0x42 (size before relaxing)
 .comment       0x0000027a       0x46 mac_core/src/wal/AR/coex/.output/AR6320/hw.3/lib/wal_coex.a(wal_coex.o)
                                 0x47 (size before relaxing)
 .comment       0x000002c0       0x48 mac_core/src/wal/AR/coex/.output/AR6320/hw.3/lib/wal_coex.a(wal_btcoex.o)
                                 0x49 (size before relaxing)
 .comment       0x00000308       0x49 mac_core/src/wal/AR/coex/.output/AR6320/hw.3/lib/wal_coex.a(wal_mwscoex.o)
                                 0x4a (size before relaxing)
 .comment       0x00000351       0x4d mac_core/src/wal/AR/coex/.output/AR6320/hw.3/lib/wal_coex.a(wal_mwscoex_crc.o)
                                 0x4e (size before relaxing)
 .comment       0x0000039e       0x49 mac_core/src/wal/AR/coex/.output/AR6320/hw.3/lib/wal_coex.a(qmi_idl_lib.o)
                                 0x4a (size before relaxing)
 .comment       0x000003e7       0x4e mac_core/src/wal/AR/coex/.output/AR6320/hw.3/lib/wal_coex.a(qmi_idl_accessor.o)
                                 0x4f (size before relaxing)
 .comment       0x00000435       0x55 mac_core/src/wal/AR/coex/.output/AR6320/hw.3/lib/wal_coex.a(coexistence_service_v02.o)
                                 0x56 (size before relaxing)
 .comment       0x0000048a       0x45 mac_core/src/wal/whal/ini/.output/AR6320/hw.3/lib/libwhalini.a(whalini.o)
                                 0x46 (size before relaxing)
 .comment       0x000004cf       0x47 mac_core/src/data_txrx/.output/AR6320/hw.3/lib/libdatatxrx.a(data_txrx.o)
                                 0x48 (size before relaxing)
 .comment       0x00000516       0x4b mac_core/src/data_txrx/.output/AR6320/hw.3/lib/libdatatxrx.a(ieee80211_hdr.o)
                                 0x4c (size before relaxing)
 .comment       0x00000561       0x45 mac_core/src/data_txrx/.output/AR6320/hw.3/lib/libdatatxrx.a(data_rx.o)
                                 0x46 (size before relaxing)
 .comment       0x000005a6       0x4a mac_core/src/data_txrx/.output/AR6320/hw.3/lib/libdatatxrx.a(data_rx_peer.o)
                                 0x4b (size before relaxing)
 .comment       0x000005f0       0x48 mac_core/src/data_txrx/.output/AR6320/hw.3/lib/libdatatxrx.a(data_rx_pn.o)
                                 0x49 (size before relaxing)
 .comment       0x00000638       0x4d mac_core/src/data_txrx/.output/AR6320/hw.3/lib/libdatatxrx.a(data_rx_reorder.o)
                                 0x4e (size before relaxing)
 .comment       0x00000685       0x4a protocol/src/mgmt_txrx/.output/AR6320/hw.3/lib/libmgmttxrx.a(ieee_mgmt_rx.o)
                                 0x4b (size before relaxing)
 .comment       0x000006cf       0x52 protocol/src/mgmt_txrx/.output/AR6320/hw.3/lib/libmgmttxrx.a(wlan_mgmt_local_txrx.o)
                                 0x53 (size before relaxing)
 .comment       0x00000721       0x4c protocol/src/mgmt_txrx/.output/AR6320/hw.3/lib/libmgmttxrx.a(wlan_mgmt_txrx.o)
                                 0x4d (size before relaxing)
 .comment       0x0000076d       0x47 protocol/src/vdev_mgr/.output/AR6320/hw.3/lib/libvdevmgr.a(wlan_vdev.o)
                                 0x48 (size before relaxing)
 .comment       0x000007b4       0x51 protocol/src/vdev_mgr/.output/AR6320/hw.3/lib/libvdevmgr.a(wlan_vdev_keepalive.o)
                                 0x52 (size before relaxing)
 .comment       0x00000805       0x4c protocol/src/vdev_mgr/.output/AR6320/hw.3/lib/libvdevmgr.a(wlan_vdev_misc.o)
                                 0x4d (size before relaxing)
 .comment       0x00000851       0x4d protocol/src/vdev_mgr/.output/AR6320/hw.3/lib/libvdevmgr.a(wlan_vdev_pause.o)
                                 0x4e (size before relaxing)
 .comment       0x0000089e       0x50 protocol/src/vdev_mgr/.output/AR6320/hw.3/lib/libvdevmgr.a(wlan_vdev_schedule.o)
                                 0x51 (size before relaxing)
 .comment       0x000008ee       0x4b protocol/src/key_mgmt/.output/AR6320/hw.3/lib/libkeymgmt.a(wlan_key_mgmt.o)
                                 0x4c (size before relaxing)
 .comment       0x00000939       0x4b mac_core/src/ratectrl/.output/AR6320/hw.3/lib/libratectrl_11ac.a(ratectrl_11ac.o)
                                 0x4c (size before relaxing)
 .comment       0x00000984       0x4e mac_core/src/ratectrl/.output/AR6320/hw.3/lib/libratectrl_11ac.a(ratectrl_11ac_if.o)
                                 0x4f (size before relaxing)
 .comment       0x000009d2       0x51 mac_core/src/ratectrl/.output/AR6320/hw.3/lib/libratectrl_11ac.a(ratectrl_peer_state.o)
                                 0x52 (size before relaxing)
 .comment       0x00000a23       0x46 protocol/src/rtt/.output/AR6320/hw.3/lib/librtt.a(wlan_rtt.o)
                                 0x47 (size before relaxing)
 .comment       0x00000a69       0x54 protocol/src/phyerr/.output/AR6320/hw.3/lib/libphyerr.a(wlan_dfs_phyerr_filter.o)
                                 0x55 (size before relaxing)
 .comment       0x00000abd       0x49 protocol/src/phyerr/.output/AR6320/hw.3/lib/libphyerr.a(wlan_phyerr.o)
                                 0x4a (size before relaxing)
 .comment       0x00000b06       0x49 protocol/src/rfkill/.output/AR6320/hw.3/lib/librfkill.a(wlan_rfkill.o)
                                 0x4a (size before relaxing)
 .comment       0x00000b4f       0x4d protocol/src/wmi/.output/AR6320/hw.3/lib/libumacwmi.a(umac_wmi_events.o)
                                 0x4e (size before relaxing)
 .comment       0x00000b9c       0x46 protocol/src/wmi/.output/AR6320/hw.3/lib/libumacwmi.a(wlan_wmi.o)
                                 0x47 (size before relaxing)
 .comment       0x00000be2       0x4d protocol/src/wmi/.output/AR6320/hw.3/lib/libumacwmi.a(wlan_wmi_events.o)
                                 0x4e (size before relaxing)
 .comment       0x00000c2f       0x4a protocol/src/wmi/.output/AR6320/hw.3/lib/libumacwmi.a(wmi_gpiohook.o)
                                 0x4b (size before relaxing)
 .comment       0x00000c79       0x4c protocol/src/wmi/.output/AR6320/hw.3/lib/libumacwmi.a(wmi_tlv_helper.o)
                                 0x4d (size before relaxing)
 .comment       0x00000cc5       0x46 protocol/src/wmi/.output/AR6320/hw.3/lib/libumacwmi.a(umac_wmi.o)
                                 0x47 (size before relaxing)
 .comment       0x00000d0b       0x4b protocol/src/offload_mgr/.output/AR6320/hw.3/lib/liboffload_mgr.a(beacon_filter.o)
                                 0x4c (size before relaxing)
 .comment       0x00000d56       0x4e protocol/src/offload_mgr/.output/AR6320/hw.3/lib/liboffload_mgr.a(csa_offload_main.o)
                                 0x4f (size before relaxing)
 .comment       0x00000da4       0x49 protocol/src/offload_mgr/.output/AR6320/hw.3/lib/liboffload_mgr.a(offload_mgr.o)
                                 0x4a (size before relaxing)
 .comment       0x00000ded       0x48 protocol/src/offload_mgr/.output/AR6320/hw.3/lib/liboffload_mgr.a(wlan_d0wow.o)
                                 0x49 (size before relaxing)
 .comment       0x00000e35       0x4e protocol/src/offload_mgr/.output/AR6320/hw.3/lib/liboffload_mgr.a(wlan_gtk_offload.o)
                                 0x4f (size before relaxing)
 .comment       0x00000e83       0x46 protocol/src/offload_mgr/.output/AR6320/hw.3/lib/liboffload_mgr.a(wlan_wow.o)
                                 0x47 (size before relaxing)
 .comment       0x00000ec9       0x49 protocol/src/mgmt/.output/AR6320/hw.3/lib/libmgmt.a(wlan_beacon.o)
                                 0x4a (size before relaxing)
 .comment       0x00000f12       0x4e protocol/src/mgmt/.output/AR6320/hw.3/lib/libmgmt.a(wlan_early_rx_sm.o)
                                 0x4f (size before relaxing)
 .comment       0x00000f60       0x4b protocol/src/mgmt/.output/AR6320/hw.3/lib/libmgmt.a(wlan_ie_utils.o)
                                 0x4c (size before relaxing)
 .comment       0x00000fab       0x46 protocol/src/mgmt/.output/AR6320/hw.3/lib/libmgmt.a(wlan_wnm.o)
                                 0x47 (size before relaxing)
 .comment       0x00000ff1       0x4d protocol/src/power/.output/AR6320/hw.3/lib/libpower.a(wlan_pm_arbiter.o)
                                 0x4e (size before relaxing)
 .comment       0x0000103e       0x4c protocol/src/power/.output/AR6320/hw.3/lib/libpower.a(wlan_powersave.o)
                                 0x4d (size before relaxing)
 .comment       0x0000108a       0x4f protocol/src/power/.output/AR6320/hw.3/lib/libpower.a(wlan_powersave_ap.o)
                                 0x50 (size before relaxing)
 .comment       0x000010d9       0x51 protocol/src/power/.output/AR6320/hw.3/lib/libpower.a(wlan_powersave_ibss.o)
                                 0x52 (size before relaxing)
 .comment       0x0000112a       0x57 protocol/src/power/.output/AR6320/hw.3/lib/libpower.a(wlan_powersave_ibss_nw_sm.o)
                                 0x58 (size before relaxing)
 .comment       0x00001181       0x5c protocol/src/power/.output/AR6320/hw.3/lib/libpower.a(wlan_powersave_ibss_peer_ps_sm.o)
                                 0x5d (size before relaxing)
 .comment       0x000011dd       0x5c protocol/src/power/.output/AR6320/hw.3/lib/libpower.a(wlan_powersave_ibss_self_ps_sm.o)
                                 0x5d (size before relaxing)
 .comment       0x00001239       0x50 protocol/src/power/.output/AR6320/hw.3/lib/libpower.a(wlan_powersave_sta.o)
                                 0x51 (size before relaxing)
 .comment       0x00001289       0x53 protocol/src/power/.output/AR6320/hw.3/lib/libpower.a(wlan_powersave_sta_sm.o)
                                 0x54 (size before relaxing)
 .comment       0x000012dc       0x51 protocol/src/power/.output/AR6320/hw.3/lib/libpower.a(wlan_powersave_tdls.o)
                                 0x52 (size before relaxing)
 .comment       0x0000132d       0x49 protocol/src/power/.output/AR6320/hw.3/lib/libpower.a(wlan_qpower.o)
                                 0x4a (size before relaxing)
 .comment       0x00001376       0x47 protocol/src/power/smps/.output/AR6320/hw.3/lib/libsmps.a(wlan_smps.o)
                                 0x48 (size before relaxing)
 .comment       0x000013bd       0x4a protocol/src/power/smps/.output/AR6320/hw.3/lib/libsmps.a(wlan_smps_sm.o)
                                 0x4b (size before relaxing)
 .comment       0x00001407       0x49 protocol/src/resmgr/.output/AR6320/hw.3/lib/libresmgr.a(channel_mgr.o)
                                 0x4a (size before relaxing)
 .comment       0x00001450       0x44 protocol/src/resmgr/.output/AR6320/hw.3/lib/libresmgr.a(resmgr.o)
                                 0x45 (size before relaxing)
 .comment       0x00001494       0x4c protocol/src/resmgr/.output/AR6320/hw.3/lib/libresmgr.a(resmgr_dyn_sch.o)
                                 0x4d (size before relaxing)
 .comment       0x000014e0       0x48 protocol/src/resmgr/.output/AR6320/hw.3/lib/libresmgr.a(resmgr_ocs.o)
                                 0x49 (size before relaxing)
 .comment       0x00001528       0x4d protocol/src/resmgr/.output/AR6320/hw.3/lib/libresmgr.a(virtual_channel.o)
                                 0x4e (size before relaxing)
 .comment       0x00001575       0x55 protocol/src/resmgr/.output/AR6320/hw.3/lib/libresmgr.a(virtual_channel_arbiter.o)
                                 0x56 (size before relaxing)
 .comment       0x000015ca       0x41 mac_core/src/hostif/htc/.output/AR6320/hw.3/lib/libhtc.a(htc.o)
                                 0x42 (size before relaxing)
 .comment       0x0000160b       0x4d mac_core/src/hostif/htt/.output/AR6320/hw.3/lib/libhtt.a(htt_tgt_hif_svc.o)
                                 0x4e (size before relaxing)
 .comment       0x00001658       0x48 mac_core/src/hostif/htt/.output/AR6320/hw.3/lib/libhtt.a(htt_tgt_rx.o)
                                 0x49 (size before relaxing)
 .comment       0x000016a0       0x4e mac_core/src/hostif/htt/.output/AR6320/hw.3/lib/libhtt.a(htt_tgt_rx_event.o)
                                 0x4f (size before relaxing)
 .comment       0x000016ee       0x4b mac_core/src/hostif/htt/.output/AR6320/hw.3/lib/libhtt.a(htt_tgt_stats.o)
                                 0x4c (size before relaxing)
 .comment       0x00001739       0x48 mac_core/src/hostif/htt/.output/AR6320/hw.3/lib/libhtt.a(htt_tgt_tx.o)
                                 0x49 (size before relaxing)
 .comment       0x00001781       0x40 mac_core/src/utils/sm/.output/AR6320/hw.3/lib/libsm.a(sm.o)
                                 0x41 (size before relaxing)
 .comment       0x000017c1       0x42 protocol/src/coex/.output/AR6320/hw.3/lib/libcoex.a(coex.o)
                                 0x43 (size before relaxing)
 .comment       0x00001803       0x45 mac_core/src/hostif/wmisvc/.output/AR6320/hw.3/lib/libwmisvc.a(wmi_svc.o)
                                 0x46 (size before relaxing)
 .comment       0x00001848       0x46 protocol/src/scan/.output/AR6320/hw.3/lib/libscan.a(wlan_dcs.o)
                                 0x47 (size before relaxing)
 .comment       0x0000188e       0x4b protocol/src/scan/.output/AR6320/hw.3/lib/libscan.a(wlan_scan_sch.o)
                                 0x4c (size before relaxing)
 .comment       0x000018d9       0x4a protocol/src/scan/.output/AR6320/hw.3/lib/libscan.a(wlan_scan_sm.o)
                                 0x4b (size before relaxing)
 .comment       0x00001923       0x47 protocol/src/scan/.output/AR6320/hw.3/lib/libscan.a(wlan_scan.o)
                                 0x48 (size before relaxing)
 .comment       0x0000196a       0x47 protocol/src/roam/.output/AR6320/hw.3/lib/libroam.a(wlan_roam.o)
                                 0x48 (size before relaxing)
 .comment       0x000019b1       0x50 protocol/src/roam/.output/AR6320/hw.3/lib/libroam.a(wlan_roam_internal.o)
                                 0x51 (size before relaxing)
 .comment       0x00001a01       0x4b protocol/src/roam/.output/AR6320/hw.3/lib/libroam.a(wlan_roam_wmi.o)
                                 0x4c (size before relaxing)
 .comment       0x00001a4c       0x46 protocol/src/pps/.output/AR6320/hw.3/lib/libpps.a(wlan_pps.o)
                                 0x47 (size before relaxing)
 .comment       0x00001a92       0x48 protocol/src/stats/.output/AR6320/hw.3/lib/libstats.a(wlan_stats.o)
                                 0x49 (size before relaxing)
 .comment       0x00001ada       0x55 protocol/src/stats/.output/AR6320/hw.3/lib/libstats.a(wlan_estimate_linkspeed.o)
                                 0x56 (size before relaxing)
 .comment       0x00001b2f       0x49 mac_core/src/soc/pcielp/.output/AR6320/hw.3/lib/libpcielp.a(pcielp_core.o)
                                 0x4a (size before relaxing)
 .comment       0x00001b78       0x48 mac_core/src/soc/pcielp/.output/AR6320/hw.3/lib/libpcielp.a(pcielp_ltr.o)
                                 0x49 (size before relaxing)
 .comment       0x00001bc0       0x4b mac_core/src/soc/pcielp/.output/AR6320/hw.3/lib/libpcielp.a(pcielp_dsleep.o)
                                 0x4c (size before relaxing)
 .comment       0x00001c0b       0x49 mac_core/src/soc/pcielp/.output/AR6320/hw.3/lib/libpcielp.a(pcielp_l1ss.o)
                                 0x4a (size before relaxing)
 .comment       0x00001c54       0x4e mac_core/src/soc/pcielp/.output/AR6320/hw.3/lib/libpcielp.a(pcielp_buffering.o)
                                 0x4f (size before relaxing)
 .comment       0x00001ca2       0x44 mac_core/src/pktlog/.output/AR6320/hw.3/lib/libpktlog.a(pktlog.o)
                                 0x45 (size before relaxing)
 .comment       0x00001ce6       0x41 protocol/src/tbd/.output/AR6320/hw.3/lib/libtbd.a(tbd.o)
                                 0x42 (size before relaxing)
 .comment       0x00001d27       0x46 protocol/src/p2p/.output/AR6320/hw.3/lib/libp2p.a(p2p_main.o)
                                 0x47 (size before relaxing)
 .comment       0x00001d6d       0x47 protocol/src/p2p/.output/AR6320/hw.3/lib/libp2p.a(p2p_parse.o)
                                 0x48 (size before relaxing)
 .comment       0x00001db4       0x4b protocol/src/p2p/.output/AR6320/hw.3/lib/libp2p.a(p2p_schedules.o)
                                 0x4c (size before relaxing)
 .comment       0x00001dff       0x47 protocol/src/p2p/.output/AR6320/hw.3/lib/libp2p.a(p2p_go_ps.o)
                                 0x48 (size before relaxing)
 .comment       0x00001e46       0x4a protocol/src/chatter/.output/AR6320/hw.3/lib/libchatter.a(wlan_chatter.o)
                                 0x4b (size before relaxing)
 .comment       0x00001e90       0x4d protocol/src/chatter/.output/AR6320/hw.3/lib/libchatter.a(wlan_coalescing.o)
                                 0x4e (size before relaxing)
 .comment       0x00001edd       0x4c mac_core/src/retention/.output/AR6320/hw.3/lib/libretention.a(wlan_retention.o)
                                 0x4d (size before relaxing)
 .comment       0x00001f29       0x4b mac_core/src/utils/buf_chunk/.output/AR6320/hw.3/lib/libbufchunk.a(buf_chunk_api.o)
                                 0x4c (size before relaxing)
 .comment       0x00001f74       0x47 protocol/src/txbf/.output/AR6320/hw.3/lib/libtxbf.a(wlan_txbf.o)
                                 0x48 (size before relaxing)
 .comment       0x00001fbb       0x47 protocol/src/tdls/.output/AR6320/hw.3/lib/libtdls.a(wlan_tdls.o)
                                 0x48 (size before relaxing)
 .comment       0x00002002       0x4c protocol/src/tdls/.output/AR6320/hw.3/lib/libtdls.a(wlan_tdls_peer.o)
                                 0x4d (size before relaxing)
 .comment       0x0000204e       0x4d protocol/src/tdls/.output/AR6320/hw.3/lib/libtdls.a(wlan_tdls_uapsd.o)
                                 0x4e (size before relaxing)
 .comment       0x0000209b       0x47 protocol/src/tcpip/.output/AR6320/hw.3/lib/libtcpip.a(wlan_ipv6.o)
                                 0x48 (size before relaxing)
 .comment       0x000020e2       0x4d mac_core/src/misc/extend_alloc/.output/AR6320/hw.3/lib/libextendalloc.a(extend_allocate.o)
                                 0x4e (size before relaxing)
 .comment       0x0000212f       0x4e protocol/src/thermal_mgr/.output/AR6320/hw.3/lib/libthermalmgr.a(wlan_thermal_mgr.o)
                                 0x4f (size before relaxing)
 .comment       0x0000217d       0x49 mac_core/src/wal/AR/init/.output/AR6320/hw.3/lib/ar_wal_init.a(ar_wal_init.o)
                                 0x4a (size before relaxing)
 .comment       0x000021c6       0x47 mac_core/src/wal/whal/init/.output/AR6320/hw.3/lib/libwhal_init.a(whal_init.o)
                                 0x48 (size before relaxing)
 .comment       0x0000220d       0x45 mac_core/src/hostif/wdi_ipa/.output/AR6320/hw.3/lib/libwdi_ipa.a(wdi_ipa.o)
                                 0x46 (size before relaxing)
 .comment       0x00002252       0x48 mac_core/src/hostif/wdi_ipa/.output/AR6320/hw.3/lib/libwdi_ipa.a(wdi_ipa_rx.o)
                                 0x49 (size before relaxing)
 .comment       0x0000229a       0x48 mac_core/src/hostif/wdi_ipa/.output/AR6320/hw.3/lib/libwdi_ipa.a(wdi_ipa_tx.o)
                                 0x49 (size before relaxing)
 .comment       0x000022e2       0x51 mac_core/src/hostif/hif/hif_dbguart/.output/AR6320/hw.3/lib/lib_hif_dbguart.a(hif_dbguart_install.o)
                                 0x52 (size before relaxing)
 .comment       0x00002333       0x49 mac_core/src/hostif/hif/hif_dbguart/.output/AR6320/hw.3/lib/lib_hif_dbguart.a(hif_dbguart.o)
                                 0x4a (size before relaxing)
 .comment       0x0000237c       0x46 protocol/src/lpi/.output/AR6320/hw.3/lib/liblpi.a(wlan_lpi.o)
                                 0x47 (size before relaxing)
 .comment       0x000023c2       0x4a protocol/src/profile/.output/AR6320/hw.3/lib/libwlanprofile.a(wlan_profile.o)
                                 0x4b (size before relaxing)
 .comment       0x0000240c       0x51 protocol/src/offload/.output/AR6320/hw.3/lib/liboffload.a(wlan_arp_ns_offload.o)
                                 0x52 (size before relaxing)
 .comment       0x0000245d       0x54 protocol/src/offload/.output/AR6320/hw.3/lib/liboffload.a(wlan_beacon_tx_offload.o)
                                 0x55 (size before relaxing)
 .comment       0x000024b1       0x57 protocol/src/offload/.output/AR6320/hw.3/lib/liboffload.a(wlan_network_list_offload.o)
                                 0x58 (size before relaxing)
 .comment       0x00002508       0x52 protocol/src/offload/.output/AR6320/hw.3/lib/liboffload.a(wlan_swbmiss_offload.o)
                                 0x53 (size before relaxing)
 .comment       0x0000255a       0x4b protocol/src/framegen/.output/AR6320/hw.3/lib/libframegen.a(wlan_framegen.o)
                                 0x4c (size before relaxing)
 .comment       0x000025a5       0x4e protocol/src/offload_mgr/stub/.output/AR6320/hw.3/lib/liboffload_mgr_stub.a(offload_mgr_stub.o)
                                 0x4f (size before relaxing)
 .comment       0x000025f3       0x4b protocol/src/offload_mgr/stub/.output/AR6320/hw.3/lib/liboffload_mgr_stub.a(wlan_wow_stub.o)
                                 0x4c (size before relaxing)
 .comment       0x0000263e       0x46 mac_core/src/misc/codeswap/.output/AR6320/hw.3/lib/libcodeswap.a(codeswap.o)
                                 0x47 (size before relaxing)
 .comment       0x00002684       0x4d mac_core/src/misc/codeswap/.output/AR6320/hw.3/lib/libcodeswap.a(codeswap_dmamgr.o)
                                 0x4e (size before relaxing)
 .comment       0x000026d1       0x50 protocol/src/scan/stub/.output/AR6320/hw.3/lib/libscan_stub.a(wlan_scan_sch_stub.o)
                                 0x51 (size before relaxing)
 .comment       0x00002721       0x4b protocol/src/blockack/.output/AR6320/hw.3/lib/libblockack.a(wlan_blockack.o)
                                 0x4c (size before relaxing)
 .comment       0x0000276c       0x4b protocol/src/init/stub/.output/AR6320/hw.3/lib/libwlaninit_stub.a(wlan_buf_stub.o)
                                 0x4c (size before relaxing)
 .comment       0x000027b7       0x4b protocol/src/init/stub/.output/AR6320/hw.3/lib/libwlaninit_stub.a(wlan_dev_stub.o)
                                 0x4c (size before relaxing)
 .comment       0x00002802       0x4c protocol/src/init/stub/.output/AR6320/hw.3/lib/libwlaninit_stub.a(wlan_peer_stub.o)
                                 0x4d (size before relaxing)
 .comment       0x0000284e       0x50 mac_core/src/data_txrx/stub/.output/AR6320/hw.3/lib/libdatatxrx_stub.a(ieee80211_hdr_stub.o)
                                 0x51 (size before relaxing)
 .comment       0x0000289e       0x4c protocol/src/vdev_mgr/stub/.output/AR6320/hw.3/lib/libvdevmgr_stub.a(wlan_vdev_stub.o)
                                 0x4d (size before relaxing)
 .comment       0x000028ea       0x57 protocol/src/mgmt_txrx/stub/.output/AR6320/hw.3/lib/libmgmttxrx_stub.a(wlan_mgmt_local_txrx_stub.o)
                                 0x58 (size before relaxing)
 .comment       0x00002941       0x4f protocol/src/mgmt_txrx/stub/.output/AR6320/hw.3/lib/libmgmttxrx_stub.a(ieee_mgmt_rx_stub.o)
                                 0x50 (size before relaxing)
 .comment       0x00002990       0x4e protocol/src/mgmt/stub/.output/AR6320/hw.3/lib/libmgmt_stub.a(wlan_beacon_stub.o)
                                 0x4f (size before relaxing)
 .comment       0x000029de       0x50 protocol/src/mgmt/stub/.output/AR6320/hw.3/lib/libmgmt_stub.a(wlan_ie_utils_stub.o)
                                 0x51 (size before relaxing)
 .comment       0x00002a2e       0x46 protocol/src/p2p/stub/.output/AR6320/hw.3/lib/libp2p_stub.a(p2p_stub.o)
                                 0x47 (size before relaxing)
 .comment       0x00002a74       0x48 mac_core/src/wal/whal/reset/.output/AR6320/hw.3/lib/ar6000_cal.a(ar6320_cal.o)
                                 0x49 (size before relaxing)
 .comment       0x00002abc       0x4d mac_core/src/wal/whal/reset/.output/AR6320/hw.3/lib/ar6000_cal.a(ar6320_rxdc_cal.o)
                                 0x4e (size before relaxing)
 .comment       0x00002b09       0x4b mac_core/src/wal/whal/reset/.output/AR6320/hw.3/lib/ar6000_cal.a(ar6320_iq_cal.o)
                                 0x4c (size before relaxing)
 .comment       0x00002b54       0x4c mac_core/src/wal/whal/reset/.output/AR6320/hw.3/lib/ar6000_cal.a(ar6320_pef_cal.o)
                                 0x4d (size before relaxing)
 .comment       0x00002ba0       0x47 protocol/src/unit_test/.output/AR6320/hw.3/lib/libunittest.a(unit_test.o)
                                 0x48 (size before relaxing)
 .comment       0x00002be7       0x4d protocol/src/frameparse/.output/AR6320/hw.3/lib/libframeparse.a(wlan_frameparse.o)
                                 0x4e (size before relaxing)
 .comment       0x00002c34       0x46 protocol/src/nan/.output/AR6320/hw.3/lib/libnanwlan.a(wlan_nan.o)
                                 0x47 (size before relaxing)
 .comment       0x00002c7a       0x4b protocol/src/nan/.output/AR6320/hw.3/lib/libnanwlan.a(wlan_nan_sync.o)
                                 0x4c (size before relaxing)
 .comment       0x00002cc5       0x4a protocol/src/nan/.output/AR6320/hw.3/lib/libnanwlan.a(wlan_nan_mac.o)
                                 0x4b (size before relaxing)
 .comment       0x00002d0f       0x4e protocol/src/nan/.output/AR6320/hw.3/lib/libnanwlan.a(wlan_nan_publish.o)
                                 0x4f (size before relaxing)
 .comment       0x00002d5d       0x50 protocol/src/nan/.output/AR6320/hw.3/lib/libnanwlan.a(wlan_nan_subscribe.o)
                                 0x51 (size before relaxing)
 .comment       0x00002dad       0x4b protocol/src/nan/.output/AR6320/hw.3/lib/libnanwlan.a(wlan_nan_ctrl.o)
                                 0x4c (size before relaxing)
 .comment       0x00002df8       0x4c protocol/src/nan/.output/AR6320/hw.3/lib/libnanwlan.a(wlan_nan_de_if.o)
                                 0x4d (size before relaxing)
 .comment       0x00002e44       0x49 protocol/src/nan/.output/AR6320/hw.3/lib/libnanwlan.a(wlan_nan_rx.o)
                                 0x4a (size before relaxing)
 .comment       0x00002e8d       0x4c protocol/src/nan/.output/AR6320/hw.3/lib/libnanwlan.a(wlan_nan_match.o)
                                 0x4d (size before relaxing)
 .comment       0x00002ed9       0x4d protocol/src/nan/.output/AR6320/hw.3/lib/libnanwlan.a(wconn_util_list.o)
                                 0x4e (size before relaxing)
 .comment       0x00002f26       0x4b protocol/src/nan/.output/AR6320/hw.3/lib/libnanwlan.a(wlan_nan_attr.o)
                                 0x4c (size before relaxing)
 .comment       0x00002f71       0x53 protocol/src/nan/.output/AR6320/hw.3/lib/libnanwlan.a(wlan_nan_bloom_filter.o)
                                 0x54 (size before relaxing)
 .comment       0x00002fc4       0x4a protocol/src/nan/.output/AR6320/hw.3/lib/libnanwlan.a(wlan_nan_crc.o)
                                 0x4b (size before relaxing)
 .comment       0x0000300e       0x4a protocol/src/nan/.output/AR6320/hw.3/lib/libnanwlan.a(wlan_nan_log.o)
                                 0x4b (size before relaxing)
 .comment       0x00003058       0x4b protocol/src/nan/.output/AR6320/hw.3/lib/libnanwlan.a(wlan_nan_time.o)
                                 0x4c (size before relaxing)
 .comment       0x000030a3       0x4a protocol/src/nan/.output/AR6320/hw.3/lib/libnanwlan.a(wlan_nan_tlv.o)
                                 0x4b (size before relaxing)
 .comment       0x000030ed       0x4b protocol/src/nan/.output/AR6320/hw.3/lib/libnanwlan.a(wlan_nan_util.o)
                                 0x4c (size before relaxing)
 .comment       0x00003138       0x50 protocol/src/nan/.output/AR6320/hw.3/lib/libnanwlan.a(wlan_nan_beacon_ie.o)
                                 0x51 (size before relaxing)
 .comment       0x00003188       0x50 protocol/src/nan/.output/AR6320/hw.3/lib/libnanwlan.a(wlan_nan_beacon_rx.o)
                                 0x51 (size before relaxing)
 .comment       0x000031d8       0x50 protocol/src/nan/.output/AR6320/hw.3/lib/libnanwlan.a(wlan_nan_beacon_tx.o)
                                 0x51 (size before relaxing)
 .comment       0x00003228       0x51 protocol/src/nan/.output/AR6320/hw.3/lib/libnanwlan.a(wlan_nan_cluster_sm.o)
                                 0x52 (size before relaxing)
 .comment       0x00003279       0x4b protocol/src/nan/.output/AR6320/hw.3/lib/libnanwlan.a(wlan_nan_scan.o)
                                 0x4c (size before relaxing)
 .comment       0x000032c4       0x4c protocol/src/nan/.output/AR6320/hw.3/lib/libnanwlan.a(wlan_nan_sched.o)
                                 0x4d (size before relaxing)
 .comment       0x00003310       0x42 protocol/src/nan/.output/AR6320/hw.3/lib/libnanwlan.a(sha2.o)
                                 0x43 (size before relaxing)
 .comment       0x00003352       0x4f protocol/src/extscan/.output/AR6320/hw.3/lib/libextscan.a(wlan_extscan_main.o)
                                 0x50 (size before relaxing)
 .comment       0x000033a1       0x56 protocol/src/extscan/.output/AR6320/hw.3/lib/libextscan.a(wlan_extscan_wlan_change.o)
                                 0x57 (size before relaxing)
 .comment       0x000033f7       0x4e protocol/src/extscan/.output/AR6320/hw.3/lib/libextscan.a(wlan_extscan_wmi.o)
                                 0x4f (size before relaxing)
 .comment       0x00003445       0x50 protocol/src/extscan/.output/AR6320/hw.3/lib/libextscan.a(wlan_extscan_bssid.o)
                                 0x51 (size before relaxing)
 .comment       0x00003495       0x51 protocol/src/extscan/.output/AR6320/hw.3/lib/libextscan.a(wlan_extscan_bucket.o)
                                 0x52 (size before relaxing)
 .comment       0x000034e6       0x52 protocol/src/extscan/.output/AR6320/hw.3/lib/libextscan.a(wlan_extscan_hotlist.o)
                                 0x53 (size before relaxing)
 .comment       0x00003538       0x45 mac_core/src/wal/AR/rtt/.output/AR6320/hw.3/lib/ar_wal_rtt.a(wal_rtt.o)
                                 0x46 (size before relaxing)
 .comment       0x0000357d       0x4d mac_core/patch/AR6320/v3/.output/AR6320/hw.3/lib/lib_maccore_patches.a(install_patches.o)
                                 0x4e (size before relaxing)
 .comment       0x000035ca       0x52 mac_core/patch/AR6320/v3/.output/AR6320/hw.3/lib/lib_maccore_patches.a(whal_install_patches.o)
                                 0x53 (size before relaxing)
 .comment       0x0000361c       0x51 mac_core/patch/AR6320/v3/.output/AR6320/hw.3/lib/lib_maccore_patches.a(wal_install_patches.o)
                                 0x52 (size before relaxing)
 .comment       0x0000366d       0x5b mac_core/patch/AR6320/v3/.output/AR6320/hw.3/lib/lib_maccore_patches.a(ar_wal_connection_pause_patch.o)
                                 0x5c (size before relaxing)
 .comment       0x000036c8       0x52 mac_core/patch/AR6320/v3/.output/AR6320/hw.3/lib/lib_maccore_patches.a(ar_wal_phy_dev_patch.o)
                                 0x53 (size before relaxing)
 .comment       0x0000371a       0x53 mac_core/patch/AR6320/v3/.output/AR6320/hw.3/lib/lib_maccore_patches.a(cmnos_retention_patch.o)
                                 0x54 (size before relaxing)
 .comment       0x0000376d       0x50 mac_core/patch/AR6320/v3/.output/AR6320/hw.3/lib/lib_maccore_patches.a(ar_wal_tx_de_patch.o)
                                 0x51 (size before relaxing)
 .comment       0x000037bd       0x61 mac_core/patch/AR6320/v3/.output/AR6320/hw.3/lib/lib_maccore_patches.a(ar_wal_local_frames_wifi_ip01_patch.o)
                                 0x62 (size before relaxing)
 .comment       0x0000381e       0x4c mac_core/patch/AR6320/v3/.output/AR6320/hw.3/lib/lib_maccore_patches.a(pool_mgr_patch.o)
                                 0x4d (size before relaxing)
 .comment       0x0000386a       0x4d mac_core/patch/AR6320/v3/.output/AR6320/hw.3/lib/lib_maccore_patches.a(ar_wal_rx_patch.o)
                                 0x4e (size before relaxing)
 .comment       0x000038b7       0x55 mac_core/patch/AR6320/v3/.output/AR6320/hw.3/lib/lib_maccore_patches.a(ar_wal_rx_offload_patch.o)
                                 0x56 (size before relaxing)
 .comment       0x0000390c       0x54 mac_core/patch/AR6320/v3/.output/AR6320/hw.3/lib/lib_maccore_patches.a(ar_wal_rx_common_patch.o)
                                 0x55 (size before relaxing)
 .comment       0x00003960       0x4f mac_core/patch/AR6320/v3/.output/AR6320/hw.3/lib/lib_maccore_patches.a(ar_wal_vdev_patch.o)
                                 0x50 (size before relaxing)
 .comment       0x000039af       0x51 mac_core/patch/AR6320/v3/.output/AR6320/hw.3/lib/lib_maccore_patches.a(ar_tx_q_enque_patch.o)
                                 0x52 (size before relaxing)
 .comment       0x00003a00       0x4c mac_core/patch/AR6320/v3/.output/AR6320/hw.3/lib/lib_maccore_patches.a(tx_sched_patch.o)
                                 0x4d (size before relaxing)
 .comment       0x00003a4c       0x52 mac_core/patch/AR6320/v3/.output/AR6320/hw.3/lib/lib_maccore_patches.a(ar_wal_tx_send_patch.o)
                                 0x53 (size before relaxing)
 .comment       0x00003a9e       0x55 mac_core/patch/AR6320/v3/.output/AR6320/hw.3/lib/lib_maccore_patches.a(ar_wal_chain_mgmt_patch.o)
                                 0x56 (size before relaxing)
 .comment       0x00003af3       0x4f mac_core/patch/AR6320/v3/.output/AR6320/hw.3/lib/lib_maccore_patches.a(ar_wal_peer_patch.o)
                                 0x50 (size before relaxing)
 .comment       0x00003b42       0x4f mac_core/patch/AR6320/v3/.output/AR6320/hw.3/lib/lib_maccore_patches.a(ar600P_txbf_patch.o)
                                 0x50 (size before relaxing)
 .comment       0x00003b91       0x4b mac_core/patch/AR6320/v3/.output/AR6320/hw.3/lib/lib_maccore_patches.a(wal_pps_patch.o)
                                 0x4c (size before relaxing)
 .comment       0x00003bdc       0x55 mac_core/patch/AR6320/v3/.output/AR6320/hw.3/lib/lib_maccore_patches.a(ar_xmit_wifi_ip01_patch.o)
                                 0x56 (size before relaxing)
 .comment       0x00003c31       0x59 mac_core/patch/AR6320/v3/.output/AR6320/hw.3/lib/lib_maccore_patches.a(ar_wal_channel_change_patch.o)
                                 0x5a (size before relaxing)
 .comment       0x00003c8a       0x4d mac_core/patch/AR6320/v3/.output/AR6320/hw.3/lib/lib_maccore_patches.a(ar_wal_rc_patch.o)
                                 0x4e (size before relaxing)
 .comment       0x00003cd7       0x4b mac_core/patch/AR6320/v3/.output/AR6320/hw.3/lib/lib_maccore_patches.a(wal_rtt_patch.o)
                                 0x4c (size before relaxing)
 .comment       0x00003d22       0x4c mac_core/patch/AR6320/v3/.output/AR6320/hw.3/lib/lib_maccore_patches.a(whal_rtt_patch.o)
                                 0x4d (size before relaxing)
 .comment       0x00003d6e       0x4a mac_core/patch/AR6320/v3/.output/AR6320/hw.3/lib/lib_maccore_patches.a(dbglog_patch.o)
                                 0x4b (size before relaxing)
 .comment       0x00003db8       0x51 mac_core/patch/AR6320/v3/.output/AR6320/hw.3/lib/lib_maccore_patches.a(ar600p_beacon_patch.o)
                                 0x52 (size before relaxing)
 .comment       0x00003e09       0x50 mac_core/patch/AR6320/v3/.output/AR6320/hw.3/lib/lib_maccore_patches.a(ar6000_power_patch.o)
                                 0x51 (size before relaxing)
 .comment       0x00003e59       0x54 mac_core/patch/AR6320/v3/.output/AR6320/hw.3/lib/lib_maccore_patches.a(ar6000_interrupt_patch.o)
                                 0x55 (size before relaxing)
 .comment       0x00003ead       0x51 mac_core/patch/AR6320/v3/.output/AR6320/hw.3/lib/lib_maccore_patches.a(cmnos_intrinf_patch.o)
                                 0x52 (size before relaxing)
 .comment       0x00003efe       0x48 mac_core/patch/AR6320/v3/.output/AR6320/hw.3/lib/lib_maccore_patches.a(patch_pcie.o)
                                 0x49 (size before relaxing)
 .comment       0x00003f46       0x47 mac_core/patch/AR6320/v3/.output/AR6320/hw.3/lib/lib_maccore_patches.a(patch_usb.o)
                                 0x48 (size before relaxing)
 .comment       0x00003f8d       0x4e mac_core/patch/AR6320/v3/.output/AR6320/hw.3/lib/lib_maccore_patches.a(wal_beacon_patch.o)
                                 0x4f (size before relaxing)
 .comment       0x00003fdb       0x4c mac_core/patch/AR6320/v3/.output/AR6320/hw.3/lib/lib_maccore_patches.a(wal_swba_patch.o)
                                 0x4d (size before relaxing)
 .comment       0x00004027       0x54 mac_core/patch/AR6320/v3/.output/AR6320/hw.3/lib/lib_maccore_patches.a(ar600P_retention_patch.o)
                                 0x55 (size before relaxing)
 .comment       0x0000407b       0x4e mac_core/patch/AR6320/v3/.output/AR6320/hw.3/lib/lib_maccore_patches.a(ar_wal_rmc_patch.o)
                                 0x4f (size before relaxing)
 .comment       0x000040c9       0x4c mac_core/patch/AR6320/v3/.output/AR6320/hw.3/lib/lib_maccore_patches.a(whal_rgc_patch.o)
                                 0x4d (size before relaxing)
 .comment       0x00004115       0x4a mac_core/patch/AR6320/v3/.output/AR6320/hw.3/lib/lib_maccore_patches.a(patch_hif_ce.o)
                                 0x4b (size before relaxing)
 .comment       0x0000415f       0x4d mac_core/patch/AR6320/v3/.output/AR6320/hw.3/lib/lib_maccore_patches.a(patch_whal_coex.o)
                                 0x4e (size before relaxing)
 .comment       0x000041ac       0x4c mac_core/patch/AR6320/v3/.output/AR6320/hw.3/lib/lib_maccore_patches.a(patch_whal_mws.o)
                                 0x4d (size before relaxing)
 .comment       0x000041f8       0x4c mac_core/patch/AR6320/v3/.output/AR6320/hw.3/lib/lib_maccore_patches.a(patch_whal_mci.o)
                                 0x4d (size before relaxing)
 .comment       0x00004244       0x50 mac_core/patch/AR6320/v3/.output/AR6320/hw.3/lib/lib_maccore_patches.a(ar_wal_tx_dm_patch.o)
                                 0x51 (size before relaxing)
 .comment       0x00004294       0x4f mac_core/patch/AR6320/v3/.output/AR6320/hw.3/lib/lib_maccore_patches.a(patch_copy_engine.o)
                                 0x50 (size before relaxing)
 .comment       0x000042e3       0x53 mac_core/patch/AR6320/v3/.output/AR6320/hw.3/lib/lib_maccore_patches.a(wal_concurrency_patch.o)
                                 0x54 (size before relaxing)
 .comment       0x00004336       0x4f mac_core/patch/AR6320/v3/.output/AR6320/hw.3/lib/lib_maccore_patches.a(ar_wal_tdls_patch.o)
                                 0x50 (size before relaxing)
 .comment       0x00004385       0x4f mac_core/patch/AR6320/v3/.output/AR6320/hw.3/lib/lib_maccore_patches.a(cmnos_timer_patch.o)
                                 0x50 (size before relaxing)
 .comment       0x000043d4       0x51 mac_core/patch/AR6320/v3/.output/AR6320/hw.3/lib/lib_maccore_patches.a(ar_wal_tx_hcm_patch.o)
                                 0x52 (size before relaxing)
 .comment       0x00004425       0x5a mac_core/patch/AR6320/v3/.output/AR6320/hw.3/lib/lib_maccore_patches.a(ar_wal_tdls_conn_table_patch.o)
                                 0x5b (size before relaxing)
 .comment       0x0000447f       0x4f mac_core/patch/AR6320/v3/.output/AR6320/hw.3/lib/lib_maccore_patches.a(ar600P_recv_patch.o)
                                 0x50 (size before relaxing)
 .comment       0x000044ce       0x48 mac_core/patch/AR6320/v3/.output/AR6320/hw.3/lib/lib_maccore_patches.a(patch_gpio.o)
                                 0x49 (size before relaxing)
 .comment       0x00004516       0x62 mac_core/patch/AR6320/v3/.output/AR6320/hw.3/lib/lib_maccore_patches.a(os_install_wlan_extra_memory_patches.o)
                                 0x63 (size before relaxing)
 .comment       0x00004578       0x4e mac_core/patch/AR6320/v3/.output/AR6320/hw.3/lib/lib_maccore_patches.a(patch_athos_main.o)
                                 0x4f (size before relaxing)
 .comment       0x000045c6       0x4e mac_core/patch/AR6320/v3/.output/AR6320/hw.3/lib/lib_maccore_patches.a(cmnos_misc_patch.o)
                                 0x4f (size before relaxing)
 .comment       0x00004614       0x48 mac_core/patch/AR6320/v3/.output/AR6320/hw.3/lib/lib_maccore_patches.a(sha1_patch.o)
                                 0x49 (size before relaxing)
 .comment       0x0000465c       0x49 mac_core/patch/AR6320/v3/.output/AR6320/hw.3/lib/lib_maccore_patches.a(qheap_patch.o)
                                 0x4a (size before relaxing)
 .comment       0x000046a5       0x4c mac_core/patch/AR6320/v3/.output/AR6320/hw.3/lib/lib_maccore_patches.a(patch_hif_sdio.o)
                                 0x4d (size before relaxing)
 .comment       0x000046f1       0x4f mac_core/patch/AR6320/v3/.output/AR6320/hw.3/lib/lib_maccore_patches.a(ar_wal_txbf_patch.o)
                                 0x50 (size before relaxing)
 .comment       0x00004740       0x52 mac_core/patch/AR6320/v3/.output/AR6320/hw.3/lib/lib_maccore_patches.a(wmi_dbgloghook_patch.o)
                                 0x53 (size before relaxing)
 .comment       0x00004792       0x52 mac_core/patch/AR6320/v3/.output/AR6320/hw.3/lib/lib_maccore_patches.a(cmnos_allocram_patch.o)
                                 0x53 (size before relaxing)
 .comment       0x000047e4       0x49 protocol/src/extwow/.output/AR6320/hw.3/lib/libextwow.a(wlan_extwow.o)
                                 0x4a (size before relaxing)
 .comment       0x0000482d       0x54 halphy/patch/AR6320/v3/.output/AR6320/hw.3/lib/lib_halphy_patches.a(halphy_install_patches.o)
                                 0x55 (size before relaxing)
 .comment       0x00004881       0x51 halphy/patch/AR6320/v3/.output/AR6320/hw.3/lib/lib_halphy_patches.a(ar6000_nf_cal_patch.o)
                                 0x52 (size before relaxing)
 .comment       0x000048d2       0x4e halphy/patch/AR6320/v3/.output/AR6320/hw.3/lib/lib_halphy_patches.a(ar6000_ani_patch.o)
                                 0x4f (size before relaxing)
 .comment       0x00004920       0x4e halphy/patch/AR6320/v3/.output/AR6320/hw.3/lib/lib_halphy_patches.a(ar6320_ini_patch.o)
                                 0x4f (size before relaxing)
 .comment       0x0000496e       0x55 halphy/patch/AR6320/v3/.output/AR6320/hw.3/lib/lib_halphy_patches.a(ar6320_tpc_config_patch.o)
                                 0x56 (size before relaxing)
 .comment       0x000049c3       0x51 halphy/patch/AR6320/v3/.output/AR6320/hw.3/lib/lib_halphy_patches.a(ar6320_eeprom_patch.o)
                                 0x52 (size before relaxing)
 .comment       0x00004a14       0x50 halphy/patch/AR6320/v3/.output/AR6320/hw.3/lib/lib_halphy_patches.a(ar600P_reset_patch.o)
                                 0x51 (size before relaxing)
 .comment       0x00004a64       0x50 halphy/patch/AR6320/v3/.output/AR6320/hw.3/lib/lib_halphy_patches.a(ar6000_paprd_patch.o)
                                 0x51 (size before relaxing)
 .comment       0x00004ab4       0x4e halphy/patch/AR6320/v3/.output/AR6320/hw.3/lib/lib_halphy_patches.a(ar6000_phy_patch.o)
                                 0x4f (size before relaxing)
 .comment       0x00004b02       0x95 /cad/tensilica/chips/peregrine/RE-2013.3-linux/peregrine/xtensa-elf/lib/xcc//libgcc.a(_muldi3.o)
                                 0x96 (size before relaxing)
 .comment       0x00004b97       0xa2 /cad/tensilica/chips/peregrine/RE-2013.3-linux/peregrine/xtensa-elf/lib/xcc//libgcc.a(_udivdi3.o)
                                 0xa3 (size before relaxing)
 .comment       0x00000000       0xa3 /cad/tensilica/chips/peregrine/RE-2013.3-linux/peregrine/xtensa-elf/lib/xcc//libgcc.a(_umoddi3.o)
 .comment       0x00004c39       0x45 protocol/src/tcpip/.output/AR6320/hw.3/lib/libtcpip.a(wlan_pb.o)
                                 0x46 (size before relaxing)
 .comment       0x00004c7e       0x48 protocol/src/tcpip/.output/AR6320/hw.3/lib/libtcpip.a(wlan_tcpip.o)
                                 0x49 (size before relaxing)
 .comment       0x00004cc6       0x47 mac_core/src/misc/serport/.output/AR6320/hw.3/lib/libserport.a(serial_if.o)
                                 0x48 (size before relaxing)
 .comment       0x00004d0d       0x49 mac_core/src/misc/serport/.output/AR6320/hw.3/lib/libserport.a(serial_port.o)
                                 0x4a (size before relaxing)
 .comment       0x00004d56       0x46 mac_core/src/misc/uartserp/.output/AR6320/hw.3/lib/libuartserp.a(uartserp.o)
                                 0x47 (size before relaxing)
 .comment       0x00004d9c       0x49 mac_core/src/wal/AR/nan/.output/AR6320/hw.3/lib/ar_wal_nan.a(wal_nan_mac.o)
                                 0x4a (size before relaxing)
 .comment       0x00004de5       0x46 mac_core/src/wal/whal/rtt/.output/AR6320/hw.3/lib/whal_rtt.a(whal_rtt.o)
                                 0x47 (size before relaxing)

.xtensa.info    0x00000000      0x1bc
 .xtensa.info   0x00000000      0x1bc mac_core/patch/AR6320/v3/.output/AR6320/hw.3/obj/app_start.o
 .xtensa.info   0x00000000        0x0 protocol/src/init/.output/AR6320/hw.3/lib/libwlaninit.a(wlan_init.o)
 .xtensa.info   0x00000000        0x0 protocol/src/init/.output/AR6320/hw.3/lib/libwlaninit.a(wlan_peer.o)
 .xtensa.info   0x00000000        0x0 protocol/src/init/.output/AR6320/hw.3/lib/libwlaninit.a(umac_init.o)
 .xtensa.info   0x00000000        0x0 protocol/src/init/.output/AR6320/hw.3/lib/libwlaninit.a(wlan_bss.o)
 .xtensa.info   0x00000000        0x0 protocol/src/init/.output/AR6320/hw.3/lib/libwlaninit.a(wlan_buf.o)
 .xtensa.info   0x00000000        0x0 protocol/src/init/.output/AR6320/hw.3/lib/libwlaninit.a(wlan_dev.o)
 .xtensa.info   0x00000000        0x0 mac_core/src/mac_core_init/.output/AR6320/hw.3/lib/libmaccoreinit.a(mac_core_init.o)
 .xtensa.info   0x00000000        0x0 protocol/src/cfg/.output/AR6320/hw.3/lib/libcfg.a(cfg.o)
 .xtensa.info   0x00000000        0x0 mac_core/src/wal/AR/coex/.output/AR6320/hw.3/lib/wal_coex.a(wal_coex.o)
 .xtensa.info   0x00000000        0x0 mac_core/src/wal/AR/coex/.output/AR6320/hw.3/lib/wal_coex.a(wal_btcoex.o)
 .xtensa.info   0x00000000        0x0 mac_core/src/wal/AR/coex/.output/AR6320/hw.3/lib/wal_coex.a(wal_mwscoex.o)
 .xtensa.info   0x00000000        0x0 mac_core/src/wal/AR/coex/.output/AR6320/hw.3/lib/wal_coex.a(wal_mwscoex_crc.o)
 .xtensa.info   0x00000000        0x0 mac_core/src/wal/AR/coex/.output/AR6320/hw.3/lib/wal_coex.a(qmi_idl_lib.o)
 .xtensa.info   0x00000000        0x0 mac_core/src/wal/AR/coex/.output/AR6320/hw.3/lib/wal_coex.a(qmi_idl_accessor.o)
 .xtensa.info   0x00000000        0x0 mac_core/src/wal/AR/coex/.output/AR6320/hw.3/lib/wal_coex.a(coexistence_service_v02.o)
 .xtensa.info   0x00000000        0x0 mac_core/src/wal/whal/ini/.output/AR6320/hw.3/lib/libwhalini.a(whalini.o)
 .xtensa.info   0x00000000        0x0 mac_core/src/data_txrx/.output/AR6320/hw.3/lib/libdatatxrx.a(data_txrx.o)
 .xtensa.info   0x00000000        0x0 mac_core/src/data_txrx/.output/AR6320/hw.3/lib/libdatatxrx.a(ieee80211_hdr.o)
 .xtensa.info   0x00000000        0x0 mac_core/src/data_txrx/.output/AR6320/hw.3/lib/libdatatxrx.a(data_rx.o)
 .xtensa.info   0x00000000        0x0 mac_core/src/data_txrx/.output/AR6320/hw.3/lib/libdatatxrx.a(data_rx_peer.o)
 .xtensa.info   0x00000000        0x0 mac_core/src/data_txrx/.output/AR6320/hw.3/lib/libdatatxrx.a(data_rx_pn.o)
 .xtensa.info   0x00000000        0x0 mac_core/src/data_txrx/.output/AR6320/hw.3/lib/libdatatxrx.a(data_rx_reorder.o)
 .xtensa.info   0x00000000        0x0 protocol/src/mgmt_txrx/.output/AR6320/hw.3/lib/libmgmttxrx.a(ieee_mgmt_rx.o)
 .xtensa.info   0x00000000        0x0 protocol/src/mgmt_txrx/.output/AR6320/hw.3/lib/libmgmttxrx.a(wlan_mgmt_local_txrx.o)
 .xtensa.info   0x00000000        0x0 protocol/src/mgmt_txrx/.output/AR6320/hw.3/lib/libmgmttxrx.a(wlan_mgmt_txrx.o)
 .xtensa.info   0x00000000        0x0 protocol/src/vdev_mgr/.output/AR6320/hw.3/lib/libvdevmgr.a(wlan_vdev.o)
 .xtensa.info   0x00000000        0x0 protocol/src/vdev_mgr/.output/AR6320/hw.3/lib/libvdevmgr.a(wlan_vdev_keepalive.o)
 .xtensa.info   0x00000000        0x0 protocol/src/vdev_mgr/.output/AR6320/hw.3/lib/libvdevmgr.a(wlan_vdev_misc.o)
 .xtensa.info   0x00000000        0x0 protocol/src/vdev_mgr/.output/AR6320/hw.3/lib/libvdevmgr.a(wlan_vdev_pause.o)
 .xtensa.info   0x00000000        0x0 protocol/src/vdev_mgr/.output/AR6320/hw.3/lib/libvdevmgr.a(wlan_vdev_schedule.o)
 .xtensa.info   0x00000000        0x0 protocol/src/key_mgmt/.output/AR6320/hw.3/lib/libkeymgmt.a(wlan_key_mgmt.o)
 .xtensa.info   0x00000000        0x0 mac_core/src/ratectrl/.output/AR6320/hw.3/lib/libratectrl_11ac.a(ratectrl_11ac.o)
 .xtensa.info   0x00000000        0x0 mac_core/src/ratectrl/.output/AR6320/hw.3/lib/libratectrl_11ac.a(ratectrl_11ac_if.o)
 .xtensa.info   0x00000000        0x0 mac_core/src/ratectrl/.output/AR6320/hw.3/lib/libratectrl_11ac.a(ratectrl_peer_state.o)
 .xtensa.info   0x00000000        0x0 protocol/src/rtt/.output/AR6320/hw.3/lib/librtt.a(wlan_rtt.o)
 .xtensa.info   0x00000000        0x0 protocol/src/phyerr/.output/AR6320/hw.3/lib/libphyerr.a(wlan_dfs_phyerr_filter.o)
 .xtensa.info   0x00000000        0x0 protocol/src/phyerr/.output/AR6320/hw.3/lib/libphyerr.a(wlan_phyerr.o)
 .xtensa.info   0x00000000        0x0 protocol/src/rfkill/.output/AR6320/hw.3/lib/librfkill.a(wlan_rfkill.o)
 .xtensa.info   0x00000000        0x0 protocol/src/wmi/.output/AR6320/hw.3/lib/libumacwmi.a(umac_wmi_events.o)
 .xtensa.info   0x00000000        0x0 protocol/src/wmi/.output/AR6320/hw.3/lib/libumacwmi.a(wlan_wmi.o)
 .xtensa.info   0x00000000        0x0 protocol/src/wmi/.output/AR6320/hw.3/lib/libumacwmi.a(wlan_wmi_events.o)
 .xtensa.info   0x00000000        0x0 protocol/src/wmi/.output/AR6320/hw.3/lib/libumacwmi.a(wmi_gpiohook.o)
 .xtensa.info   0x00000000        0x0 protocol/src/wmi/.output/AR6320/hw.3/lib/libumacwmi.a(wmi_tlv_helper.o)
 .xtensa.info   0x00000000        0x0 protocol/src/wmi/.output/AR6320/hw.3/lib/libumacwmi.a(umac_wmi.o)
 .xtensa.info   0x00000000        0x0 protocol/src/offload_mgr/.output/AR6320/hw.3/lib/liboffload_mgr.a(beacon_filter.o)
 .xtensa.info   0x00000000        0x0 protocol/src/offload_mgr/.output/AR6320/hw.3/lib/liboffload_mgr.a(csa_offload_main.o)
 .xtensa.info   0x00000000        0x0 protocol/src/offload_mgr/.output/AR6320/hw.3/lib/liboffload_mgr.a(offload_mgr.o)
 .xtensa.info   0x00000000        0x0 protocol/src/offload_mgr/.output/AR6320/hw.3/lib/liboffload_mgr.a(wlan_d0wow.o)
 .xtensa.info   0x00000000        0x0 protocol/src/offload_mgr/.output/AR6320/hw.3/lib/liboffload_mgr.a(wlan_gtk_offload.o)
 .xtensa.info   0x00000000        0x0 protocol/src/offload_mgr/.output/AR6320/hw.3/lib/liboffload_mgr.a(wlan_wow.o)
 .xtensa.info   0x00000000        0x0 protocol/src/mgmt/.output/AR6320/hw.3/lib/libmgmt.a(wlan_beacon.o)
 .xtensa.info   0x00000000        0x0 protocol/src/mgmt/.output/AR6320/hw.3/lib/libmgmt.a(wlan_early_rx_sm.o)
 .xtensa.info   0x00000000        0x0 protocol/src/mgmt/.output/AR6320/hw.3/lib/libmgmt.a(wlan_ie_utils.o)
 .xtensa.info   0x00000000        0x0 protocol/src/mgmt/.output/AR6320/hw.3/lib/libmgmt.a(wlan_wnm.o)
 .xtensa.info   0x00000000        0x0 protocol/src/power/.output/AR6320/hw.3/lib/libpower.a(wlan_pm_arbiter.o)
 .xtensa.info   0x00000000        0x0 protocol/src/power/.output/AR6320/hw.3/lib/libpower.a(wlan_powersave.o)
 .xtensa.info   0x00000000        0x0 protocol/src/power/.output/AR6320/hw.3/lib/libpower.a(wlan_powersave_ap.o)
 .xtensa.info   0x00000000        0x0 protocol/src/power/.output/AR6320/hw.3/lib/libpower.a(wlan_powersave_ibss.o)
 .xtensa.info   0x00000000        0x0 protocol/src/power/.output/AR6320/hw.3/lib/libpower.a(wlan_powersave_ibss_nw_sm.o)
 .xtensa.info   0x00000000        0x0 protocol/src/power/.output/AR6320/hw.3/lib/libpower.a(wlan_powersave_ibss_peer_ps_sm.o)
 .xtensa.info   0x00000000        0x0 protocol/src/power/.output/AR6320/hw.3/lib/libpower.a(wlan_powersave_ibss_self_ps_sm.o)
 .xtensa.info   0x00000000        0x0 protocol/src/power/.output/AR6320/hw.3/lib/libpower.a(wlan_powersave_sta.o)
 .xtensa.info   0x00000000        0x0 protocol/src/power/.output/AR6320/hw.3/lib/libpower.a(wlan_powersave_sta_sm.o)
 .xtensa.info   0x00000000        0x0 protocol/src/power/.output/AR6320/hw.3/lib/libpower.a(wlan_powersave_tdls.o)
 .xtensa.info   0x00000000        0x0 protocol/src/power/.output/AR6320/hw.3/lib/libpower.a(wlan_qpower.o)
 .xtensa.info   0x00000000        0x0 protocol/src/power/smps/.output/AR6320/hw.3/lib/libsmps.a(wlan_smps.o)
 .xtensa.info   0x00000000        0x0 protocol/src/power/smps/.output/AR6320/hw.3/lib/libsmps.a(wlan_smps_sm.o)
 .xtensa.info   0x00000000        0x0 protocol/src/resmgr/.output/AR6320/hw.3/lib/libresmgr.a(channel_mgr.o)
 .xtensa.info   0x00000000        0x0 protocol/src/resmgr/.output/AR6320/hw.3/lib/libresmgr.a(resmgr.o)
 .xtensa.info   0x00000000        0x0 protocol/src/resmgr/.output/AR6320/hw.3/lib/libresmgr.a(resmgr_dyn_sch.o)
 .xtensa.info   0x00000000        0x0 protocol/src/resmgr/.output/AR6320/hw.3/lib/libresmgr.a(resmgr_ocs.o)
 .xtensa.info   0x00000000        0x0 protocol/src/resmgr/.output/AR6320/hw.3/lib/libresmgr.a(virtual_channel.o)
 .xtensa.info   0x00000000        0x0 protocol/src/resmgr/.output/AR6320/hw.3/lib/libresmgr.a(virtual_channel_arbiter.o)
 .xtensa.info   0x00000000        0x0 mac_core/src/hostif/htc/.output/AR6320/hw.3/lib/libhtc.a(htc.o)
 .xtensa.info   0x00000000        0x0 mac_core/src/hostif/htt/.output/AR6320/hw.3/lib/libhtt.a(htt_tgt_hif_svc.o)
 .xtensa.info   0x00000000        0x0 mac_core/src/hostif/htt/.output/AR6320/hw.3/lib/libhtt.a(htt_tgt_rx.o)
 .xtensa.info   0x00000000        0x0 mac_core/src/hostif/htt/.output/AR6320/hw.3/lib/libhtt.a(htt_tgt_rx_event.o)
 .xtensa.info   0x00000000        0x0 mac_core/src/hostif/htt/.output/AR6320/hw.3/lib/libhtt.a(htt_tgt_stats.o)
 .xtensa.info   0x00000000        0x0 mac_core/src/hostif/htt/.output/AR6320/hw.3/lib/libhtt.a(htt_tgt_tx.o)
 .xtensa.info   0x00000000        0x0 mac_core/src/utils/sm/.output/AR6320/hw.3/lib/libsm.a(sm.o)
 .xtensa.info   0x00000000        0x0 protocol/src/coex/.output/AR6320/hw.3/lib/libcoex.a(coex.o)
 .xtensa.info   0x00000000        0x0 mac_core/src/hostif/wmisvc/.output/AR6320/hw.3/lib/libwmisvc.a(wmi_svc.o)
 .xtensa.info   0x00000000        0x0 protocol/src/scan/.output/AR6320/hw.3/lib/libscan.a(wlan_dcs.o)
 .xtensa.info   0x00000000        0x0 protocol/src/scan/.output/AR6320/hw.3/lib/libscan.a(wlan_scan_sch.o)
 .xtensa.info   0x00000000        0x0 protocol/src/scan/.output/AR6320/hw.3/lib/libscan.a(wlan_scan_sm.o)
 .xtensa.info   0x00000000        0x0 protocol/src/scan/.output/AR6320/hw.3/lib/libscan.a(wlan_scan.o)
 .xtensa.info   0x00000000        0x0 protocol/src/roam/.output/AR6320/hw.3/lib/libroam.a(wlan_roam.o)
 .xtensa.info   0x00000000        0x0 protocol/src/roam/.output/AR6320/hw.3/lib/libroam.a(wlan_roam_internal.o)
 .xtensa.info   0x00000000        0x0 protocol/src/roam/.output/AR6320/hw.3/lib/libroam.a(wlan_roam_wmi.o)
 .xtensa.info   0x00000000        0x0 protocol/src/pps/.output/AR6320/hw.3/lib/libpps.a(wlan_pps.o)
 .xtensa.info   0x00000000        0x0 protocol/src/stats/.output/AR6320/hw.3/lib/libstats.a(wlan_stats.o)
 .xtensa.info   0x00000000        0x0 protocol/src/stats/.output/AR6320/hw.3/lib/libstats.a(wlan_estimate_linkspeed.o)
 .xtensa.info   0x00000000        0x0 mac_core/src/soc/pcielp/.output/AR6320/hw.3/lib/libpcielp.a(pcielp_core.o)
 .xtensa.info   0x00000000        0x0 mac_core/src/soc/pcielp/.output/AR6320/hw.3/lib/libpcielp.a(pcielp_ltr.o)
 .xtensa.info   0x00000000        0x0 mac_core/src/soc/pcielp/.output/AR6320/hw.3/lib/libpcielp.a(pcielp_dsleep.o)
 .xtensa.info   0x00000000        0x0 mac_core/src/soc/pcielp/.output/AR6320/hw.3/lib/libpcielp.a(pcielp_l1ss.o)
 .xtensa.info   0x00000000        0x0 mac_core/src/soc/pcielp/.output/AR6320/hw.3/lib/libpcielp.a(pcielp_buffering.o)
 .xtensa.info   0x00000000        0x0 mac_core/src/pktlog/.output/AR6320/hw.3/lib/libpktlog.a(pktlog.o)
 .xtensa.info   0x00000000        0x0 protocol/src/tbd/.output/AR6320/hw.3/lib/libtbd.a(tbd.o)
 .xtensa.info   0x00000000        0x0 protocol/src/p2p/.output/AR6320/hw.3/lib/libp2p.a(p2p_main.o)
 .xtensa.info   0x00000000        0x0 protocol/src/p2p/.output/AR6320/hw.3/lib/libp2p.a(p2p_parse.o)
 .xtensa.info   0x00000000        0x0 protocol/src/p2p/.output/AR6320/hw.3/lib/libp2p.a(p2p_schedules.o)
 .xtensa.info   0x00000000        0x0 protocol/src/p2p/.output/AR6320/hw.3/lib/libp2p.a(p2p_go_ps.o)
 .xtensa.info   0x00000000        0x0 protocol/src/chatter/.output/AR6320/hw.3/lib/libchatter.a(wlan_chatter.o)
 .xtensa.info   0x00000000        0x0 protocol/src/chatter/.output/AR6320/hw.3/lib/libchatter.a(wlan_coalescing.o)
 .xtensa.info   0x00000000        0x0 mac_core/src/retention/.output/AR6320/hw.3/lib/libretention.a(wlan_retention.o)
 .xtensa.info   0x00000000        0x0 mac_core/src/utils/buf_chunk/.output/AR6320/hw.3/lib/libbufchunk.a(buf_chunk_api.o)
 .xtensa.info   0x00000000        0x0 protocol/src/txbf/.output/AR6320/hw.3/lib/libtxbf.a(wlan_txbf.o)
 .xtensa.info   0x00000000        0x0 protocol/src/tdls/.output/AR6320/hw.3/lib/libtdls.a(wlan_tdls.o)
 .xtensa.info   0x00000000        0x0 protocol/src/tdls/.output/AR6320/hw.3/lib/libtdls.a(wlan_tdls_peer.o)
 .xtensa.info   0x00000000        0x0 protocol/src/tdls/.output/AR6320/hw.3/lib/libtdls.a(wlan_tdls_uapsd.o)
 .xtensa.info   0x00000000        0x0 protocol/src/tcpip/.output/AR6320/hw.3/lib/libtcpip.a(wlan_ipv6.o)
 .xtensa.info   0x00000000        0x0 mac_core/src/misc/extend_alloc/.output/AR6320/hw.3/lib/libextendalloc.a(extend_allocate.o)
 .xtensa.info   0x00000000        0x0 protocol/src/thermal_mgr/.output/AR6320/hw.3/lib/libthermalmgr.a(wlan_thermal_mgr.o)
 .xtensa.info   0x00000000        0x0 mac_core/src/wal/AR/init/.output/AR6320/hw.3/lib/ar_wal_init.a(ar_wal_init.o)
 .xtensa.info   0x00000000        0x0 mac_core/src/wal/whal/init/.output/AR6320/hw.3/lib/libwhal_init.a(whal_init.o)
 .xtensa.info   0x00000000        0x0 mac_core/src/hostif/wdi_ipa/.output/AR6320/hw.3/lib/libwdi_ipa.a(wdi_ipa.o)
 .xtensa.info   0x00000000        0x0 mac_core/src/hostif/wdi_ipa/.output/AR6320/hw.3/lib/libwdi_ipa.a(wdi_ipa_rx.o)
 .xtensa.info   0x00000000        0x0 mac_core/src/hostif/wdi_ipa/.output/AR6320/hw.3/lib/libwdi_ipa.a(wdi_ipa_tx.o)
 .xtensa.info   0x00000000        0x0 mac_core/src/hostif/hif/hif_dbguart/.output/AR6320/hw.3/lib/lib_hif_dbguart.a(hif_dbguart_install.o)
 .xtensa.info   0x00000000        0x0 mac_core/src/hostif/hif/hif_dbguart/.output/AR6320/hw.3/lib/lib_hif_dbguart.a(hif_dbguart.o)
 .xtensa.info   0x00000000        0x0 protocol/src/lpi/.output/AR6320/hw.3/lib/liblpi.a(wlan_lpi.o)
 .xtensa.info   0x00000000        0x0 protocol/src/profile/.output/AR6320/hw.3/lib/libwlanprofile.a(wlan_profile.o)
 .xtensa.info   0x00000000        0x0 protocol/src/offload/.output/AR6320/hw.3/lib/liboffload.a(wlan_arp_ns_offload.o)
 .xtensa.info   0x00000000        0x0 protocol/src/offload/.output/AR6320/hw.3/lib/liboffload.a(wlan_beacon_tx_offload.o)
 .xtensa.info   0x00000000        0x0 protocol/src/offload/.output/AR6320/hw.3/lib/liboffload.a(wlan_network_list_offload.o)
 .xtensa.info   0x00000000        0x0 protocol/src/offload/.output/AR6320/hw.3/lib/liboffload.a(wlan_swbmiss_offload.o)
 .xtensa.info   0x00000000        0x0 protocol/src/framegen/.output/AR6320/hw.3/lib/libframegen.a(wlan_framegen.o)
 .xtensa.info   0x00000000        0x0 protocol/src/offload_mgr/stub/.output/AR6320/hw.3/lib/liboffload_mgr_stub.a(offload_mgr_stub.o)
 .xtensa.info   0x00000000        0x0 protocol/src/offload_mgr/stub/.output/AR6320/hw.3/lib/liboffload_mgr_stub.a(wlan_wow_stub.o)
 .xtensa.info   0x00000000        0x0 mac_core/src/misc/codeswap/.output/AR6320/hw.3/lib/libcodeswap.a(codeswap.o)
 .xtensa.info   0x00000000        0x0 mac_core/src/misc/codeswap/.output/AR6320/hw.3/lib/libcodeswap.a(codeswap_dmamgr.o)
 .xtensa.info   0x00000000        0x0 protocol/src/scan/stub/.output/AR6320/hw.3/lib/libscan_stub.a(wlan_scan_sch_stub.o)
 .xtensa.info   0x00000000        0x0 protocol/src/blockack/.output/AR6320/hw.3/lib/libblockack.a(wlan_blockack.o)
 .xtensa.info   0x00000000        0x0 protocol/src/init/stub/.output/AR6320/hw.3/lib/libwlaninit_stub.a(wlan_buf_stub.o)
 .xtensa.info   0x00000000        0x0 protocol/src/init/stub/.output/AR6320/hw.3/lib/libwlaninit_stub.a(wlan_dev_stub.o)
 .xtensa.info   0x00000000        0x0 protocol/src/init/stub/.output/AR6320/hw.3/lib/libwlaninit_stub.a(wlan_peer_stub.o)
 .xtensa.info   0x00000000        0x0 mac_core/src/data_txrx/stub/.output/AR6320/hw.3/lib/libdatatxrx_stub.a(ieee80211_hdr_stub.o)
 .xtensa.info   0x00000000        0x0 protocol/src/vdev_mgr/stub/.output/AR6320/hw.3/lib/libvdevmgr_stub.a(wlan_vdev_stub.o)
 .xtensa.info   0x00000000        0x0 protocol/src/mgmt_txrx/stub/.output/AR6320/hw.3/lib/libmgmttxrx_stub.a(wlan_mgmt_local_txrx_stub.o)
 .xtensa.info   0x00000000        0x0 protocol/src/mgmt_txrx/stub/.output/AR6320/hw.3/lib/libmgmttxrx_stub.a(ieee_mgmt_rx_stub.o)
 .xtensa.info   0x00000000        0x0 protocol/src/mgmt/stub/.output/AR6320/hw.3/lib/libmgmt_stub.a(wlan_beacon_stub.o)
 .xtensa.info   0x00000000        0x0 protocol/src/mgmt/stub/.output/AR6320/hw.3/lib/libmgmt_stub.a(wlan_ie_utils_stub.o)
 .xtensa.info   0x00000000        0x0 protocol/src/p2p/stub/.output/AR6320/hw.3/lib/libp2p_stub.a(p2p_stub.o)
 .xtensa.info   0x00000000        0x0 mac_core/src/wal/whal/reset/.output/AR6320/hw.3/lib/ar6000_cal.a(ar6320_cal.o)
 .xtensa.info   0x00000000        0x0 mac_core/src/wal/whal/reset/.output/AR6320/hw.3/lib/ar6000_cal.a(ar6320_rxdc_cal.o)
 .xtensa.info   0x00000000        0x0 mac_core/src/wal/whal/reset/.output/AR6320/hw.3/lib/ar6000_cal.a(ar6320_iq_cal.o)
 .xtensa.info   0x00000000        0x0 mac_core/src/wal/whal/reset/.output/AR6320/hw.3/lib/ar6000_cal.a(ar6320_pef_cal.o)
 .xtensa.info   0x00000000        0x0 protocol/src/unit_test/.output/AR6320/hw.3/lib/libunittest.a(unit_test.o)
 .xtensa.info   0x00000000        0x0 protocol/src/frameparse/.output/AR6320/hw.3/lib/libframeparse.a(wlan_frameparse.o)
 .xtensa.info   0x00000000        0x0 protocol/src/nan/.output/AR6320/hw.3/lib/libnanwlan.a(wlan_nan.o)
 .xtensa.info   0x00000000        0x0 protocol/src/nan/.output/AR6320/hw.3/lib/libnanwlan.a(wlan_nan_sync.o)
 .xtensa.info   0x00000000        0x0 protocol/src/nan/.output/AR6320/hw.3/lib/libnanwlan.a(wlan_nan_mac.o)
 .xtensa.info   0x00000000        0x0 protocol/src/nan/.output/AR6320/hw.3/lib/libnanwlan.a(wlan_nan_publish.o)
 .xtensa.info   0x00000000        0x0 protocol/src/nan/.output/AR6320/hw.3/lib/libnanwlan.a(wlan_nan_subscribe.o)
 .xtensa.info   0x00000000        0x0 protocol/src/nan/.output/AR6320/hw.3/lib/libnanwlan.a(wlan_nan_ctrl.o)
 .xtensa.info   0x00000000        0x0 protocol/src/nan/.output/AR6320/hw.3/lib/libnanwlan.a(wlan_nan_de_if.o)
 .xtensa.info   0x00000000        0x0 protocol/src/nan/.output/AR6320/hw.3/lib/libnanwlan.a(wlan_nan_rx.o)
 .xtensa.info   0x00000000        0x0 protocol/src/nan/.output/AR6320/hw.3/lib/libnanwlan.a(wlan_nan_match.o)
 .xtensa.info   0x00000000        0x0 protocol/src/nan/.output/AR6320/hw.3/lib/libnanwlan.a(wconn_util_list.o)
 .xtensa.info   0x00000000        0x0 protocol/src/nan/.output/AR6320/hw.3/lib/libnanwlan.a(wlan_nan_attr.o)
 .xtensa.info   0x00000000        0x0 protocol/src/nan/.output/AR6320/hw.3/lib/libnanwlan.a(wlan_nan_bloom_filter.o)
 .xtensa.info   0x00000000        0x0 protocol/src/nan/.output/AR6320/hw.3/lib/libnanwlan.a(wlan_nan_crc.o)
 .xtensa.info   0x00000000        0x0 protocol/src/nan/.output/AR6320/hw.3/lib/libnanwlan.a(wlan_nan_log.o)
 .xtensa.info   0x00000000        0x0 protocol/src/nan/.output/AR6320/hw.3/lib/libnanwlan.a(wlan_nan_time.o)
 .xtensa.info   0x00000000        0x0 protocol/src/nan/.output/AR6320/hw.3/lib/libnanwlan.a(wlan_nan_tlv.o)
 .xtensa.info   0x00000000        0x0 protocol/src/nan/.output/AR6320/hw.3/lib/libnanwlan.a(wlan_nan_util.o)
 .xtensa.info   0x00000000        0x0 protocol/src/nan/.output/AR6320/hw.3/lib/libnanwlan.a(wlan_nan_beacon_ie.o)
 .xtensa.info   0x00000000        0x0 protocol/src/nan/.output/AR6320/hw.3/lib/libnanwlan.a(wlan_nan_beacon_rx.o)
 .xtensa.info   0x00000000        0x0 protocol/src/nan/.output/AR6320/hw.3/lib/libnanwlan.a(wlan_nan_beacon_tx.o)
 .xtensa.info   0x00000000        0x0 protocol/src/nan/.output/AR6320/hw.3/lib/libnanwlan.a(wlan_nan_cluster_sm.o)
 .xtensa.info   0x00000000        0x0 protocol/src/nan/.output/AR6320/hw.3/lib/libnanwlan.a(wlan_nan_scan.o)
 .xtensa.info   0x00000000        0x0 protocol/src/nan/.output/AR6320/hw.3/lib/libnanwlan.a(wlan_nan_sched.o)
 .xtensa.info   0x00000000        0x0 protocol/src/nan/.output/AR6320/hw.3/lib/libnanwlan.a(sha2.o)
 .xtensa.info   0x00000000        0x0 protocol/src/extscan/.output/AR6320/hw.3/lib/libextscan.a(wlan_extscan_main.o)
 .xtensa.info   0x00000000        0x0 protocol/src/extscan/.output/AR6320/hw.3/lib/libextscan.a(wlan_extscan_wlan_change.o)
 .xtensa.info   0x00000000        0x0 protocol/src/extscan/.output/AR6320/hw.3/lib/libextscan.a(wlan_extscan_wmi.o)
 .xtensa.info   0x00000000        0x0 protocol/src/extscan/.output/AR6320/hw.3/lib/libextscan.a(wlan_extscan_bssid.o)
 .xtensa.info   0x00000000        0x0 protocol/src/extscan/.output/AR6320/hw.3/lib/libextscan.a(wlan_extscan_bucket.o)
 .xtensa.info   0x00000000        0x0 protocol/src/extscan/.output/AR6320/hw.3/lib/libextscan.a(wlan_extscan_hotlist.o)
 .xtensa.info   0x00000000        0x0 mac_core/src/wal/AR/rtt/.output/AR6320/hw.3/lib/ar_wal_rtt.a(wal_rtt.o)
 .xtensa.info   0x00000000        0x0 mac_core/patch/AR6320/v3/.output/AR6320/hw.3/lib/lib_maccore_patches.a(install_patches.o)
 .xtensa.info   0x00000000        0x0 mac_core/patch/AR6320/v3/.output/AR6320/hw.3/lib/lib_maccore_patches.a(whal_install_patches.o)
 .xtensa.info   0x00000000        0x0 mac_core/patch/AR6320/v3/.output/AR6320/hw.3/lib/lib_maccore_patches.a(wal_install_patches.o)
 .xtensa.info   0x00000000        0x0 mac_core/patch/AR6320/v3/.output/AR6320/hw.3/lib/lib_maccore_patches.a(ar_wal_connection_pause_patch.o)
 .xtensa.info   0x00000000        0x0 mac_core/patch/AR6320/v3/.output/AR6320/hw.3/lib/lib_maccore_patches.a(ar_wal_phy_dev_patch.o)
 .xtensa.info   0x00000000        0x0 mac_core/patch/AR6320/v3/.output/AR6320/hw.3/lib/lib_maccore_patches.a(cmnos_retention_patch.o)
 .xtensa.info   0x00000000        0x0 mac_core/patch/AR6320/v3/.output/AR6320/hw.3/lib/lib_maccore_patches.a(ar_wal_tx_de_patch.o)
 .xtensa.info   0x00000000        0x0 mac_core/patch/AR6320/v3/.output/AR6320/hw.3/lib/lib_maccore_patches.a(ar_wal_local_frames_wifi_ip01_patch.o)
 .xtensa.info   0x00000000        0x0 mac_core/patch/AR6320/v3/.output/AR6320/hw.3/lib/lib_maccore_patches.a(pool_mgr_patch.o)
 .xtensa.info   0x00000000        0x0 mac_core/patch/AR6320/v3/.output/AR6320/hw.3/lib/lib_maccore_patches.a(ar_wal_rx_patch.o)
 .xtensa.info   0x00000000        0x0 mac_core/patch/AR6320/v3/.output/AR6320/hw.3/lib/lib_maccore_patches.a(ar_wal_rx_offload_patch.o)
 .xtensa.info   0x00000000        0x0 mac_core/patch/AR6320/v3/.output/AR6320/hw.3/lib/lib_maccore_patches.a(ar_wal_rx_common_patch.o)
 .xtensa.info   0x00000000        0x0 mac_core/patch/AR6320/v3/.output/AR6320/hw.3/lib/lib_maccore_patches.a(ar_wal_vdev_patch.o)
 .xtensa.info   0x00000000        0x0 mac_core/patch/AR6320/v3/.output/AR6320/hw.3/lib/lib_maccore_patches.a(ar_tx_q_enque_patch.o)
 .xtensa.info   0x00000000        0x0 mac_core/patch/AR6320/v3/.output/AR6320/hw.3/lib/lib_maccore_patches.a(tx_sched_patch.o)
 .xtensa.info   0x00000000        0x0 mac_core/patch/AR6320/v3/.output/AR6320/hw.3/lib/lib_maccore_patches.a(ar_wal_tx_send_patch.o)
 .xtensa.info   0x00000000        0x0 mac_core/patch/AR6320/v3/.output/AR6320/hw.3/lib/lib_maccore_patches.a(ar_wal_chain_mgmt_patch.o)
 .xtensa.info   0x00000000        0x0 mac_core/patch/AR6320/v3/.output/AR6320/hw.3/lib/lib_maccore_patches.a(ar_wal_peer_patch.o)
 .xtensa.info   0x00000000        0x0 mac_core/patch/AR6320/v3/.output/AR6320/hw.3/lib/lib_maccore_patches.a(ar600P_txbf_patch.o)
 .xtensa.info   0x00000000        0x0 mac_core/patch/AR6320/v3/.output/AR6320/hw.3/lib/lib_maccore_patches.a(wal_pps_patch.o)
 .xtensa.info   0x00000000        0x0 mac_core/patch/AR6320/v3/.output/AR6320/hw.3/lib/lib_maccore_patches.a(ar_xmit_wifi_ip01_patch.o)
 .xtensa.info   0x00000000        0x0 mac_core/patch/AR6320/v3/.output/AR6320/hw.3/lib/lib_maccore_patches.a(ar_wal_channel_change_patch.o)
 .xtensa.info   0x00000000        0x0 mac_core/patch/AR6320/v3/.output/AR6320/hw.3/lib/lib_maccore_patches.a(ar_wal_rc_patch.o)
 .xtensa.info   0x00000000        0x0 mac_core/patch/AR6320/v3/.output/AR6320/hw.3/lib/lib_maccore_patches.a(wal_rtt_patch.o)
 .xtensa.info   0x00000000        0x0 mac_core/patch/AR6320/v3/.output/AR6320/hw.3/lib/lib_maccore_patches.a(whal_rtt_patch.o)
 .xtensa.info   0x00000000        0x0 mac_core/patch/AR6320/v3/.output/AR6320/hw.3/lib/lib_maccore_patches.a(dbglog_patch.o)
 .xtensa.info   0x00000000        0x0 mac_core/patch/AR6320/v3/.output/AR6320/hw.3/lib/lib_maccore_patches.a(ar600p_beacon_patch.o)
 .xtensa.info   0x00000000        0x0 mac_core/patch/AR6320/v3/.output/AR6320/hw.3/lib/lib_maccore_patches.a(ar6000_power_patch.o)
 .xtensa.info   0x00000000        0x0 mac_core/patch/AR6320/v3/.output/AR6320/hw.3/lib/lib_maccore_patches.a(ar6000_interrupt_patch.o)
 .xtensa.info   0x00000000        0x0 mac_core/patch/AR6320/v3/.output/AR6320/hw.3/lib/lib_maccore_patches.a(cmnos_intrinf_patch.o)
 .xtensa.info   0x00000000        0x0 mac_core/patch/AR6320/v3/.output/AR6320/hw.3/lib/lib_maccore_patches.a(patch_pcie.o)
 .xtensa.info   0x00000000        0x0 mac_core/patch/AR6320/v3/.output/AR6320/hw.3/lib/lib_maccore_patches.a(patch_usb.o)
 .xtensa.info   0x00000000        0x0 mac_core/patch/AR6320/v3/.output/AR6320/hw.3/lib/lib_maccore_patches.a(wal_beacon_patch.o)
 .xtensa.info   0x00000000        0x0 mac_core/patch/AR6320/v3/.output/AR6320/hw.3/lib/lib_maccore_patches.a(wal_swba_patch.o)
 .xtensa.info   0x00000000        0x0 mac_core/patch/AR6320/v3/.output/AR6320/hw.3/lib/lib_maccore_patches.a(ar600P_retention_patch.o)
 .xtensa.info   0x00000000        0x0 mac_core/patch/AR6320/v3/.output/AR6320/hw.3/lib/lib_maccore_patches.a(ar_wal_rmc_patch.o)
 .xtensa.info   0x00000000        0x0 mac_core/patch/AR6320/v3/.output/AR6320/hw.3/lib/lib_maccore_patches.a(whal_rgc_patch.o)
 .xtensa.info   0x00000000        0x0 mac_core/patch/AR6320/v3/.output/AR6320/hw.3/lib/lib_maccore_patches.a(patch_hif_ce.o)
 .xtensa.info   0x00000000        0x0 mac_core/patch/AR6320/v3/.output/AR6320/hw.3/lib/lib_maccore_patches.a(patch_whal_coex.o)
 .xtensa.info   0x00000000        0x0 mac_core/patch/AR6320/v3/.output/AR6320/hw.3/lib/lib_maccore_patches.a(patch_whal_mws.o)
 .xtensa.info   0x00000000        0x0 mac_core/patch/AR6320/v3/.output/AR6320/hw.3/lib/lib_maccore_patches.a(patch_whal_mci.o)
 .xtensa.info   0x00000000        0x0 mac_core/patch/AR6320/v3/.output/AR6320/hw.3/lib/lib_maccore_patches.a(ar_wal_tx_dm_patch.o)
 .xtensa.info   0x00000000        0x0 mac_core/patch/AR6320/v3/.output/AR6320/hw.3/lib/lib_maccore_patches.a(patch_copy_engine.o)
 .xtensa.info   0x00000000        0x0 mac_core/patch/AR6320/v3/.output/AR6320/hw.3/lib/lib_maccore_patches.a(wal_concurrency_patch.o)
 .xtensa.info   0x00000000        0x0 mac_core/patch/AR6320/v3/.output/AR6320/hw.3/lib/lib_maccore_patches.a(ar_wal_tdls_patch.o)
 .xtensa.info   0x00000000        0x0 mac_core/patch/AR6320/v3/.output/AR6320/hw.3/lib/lib_maccore_patches.a(cmnos_timer_patch.o)
 .xtensa.info   0x00000000        0x0 mac_core/patch/AR6320/v3/.output/AR6320/hw.3/lib/lib_maccore_patches.a(ar_wal_tx_hcm_patch.o)
 .xtensa.info   0x00000000        0x0 mac_core/patch/AR6320/v3/.output/AR6320/hw.3/lib/lib_maccore_patches.a(ar_wal_tdls_conn_table_patch.o)
 .xtensa.info   0x00000000        0x0 mac_core/patch/AR6320/v3/.output/AR6320/hw.3/lib/lib_maccore_patches.a(ar600P_recv_patch.o)
 .xtensa.info   0x00000000        0x0 mac_core/patch/AR6320/v3/.output/AR6320/hw.3/lib/lib_maccore_patches.a(patch_gpio.o)
 .xtensa.info   0x00000000        0x0 mac_core/patch/AR6320/v3/.output/AR6320/hw.3/lib/lib_maccore_patches.a(os_install_wlan_extra_memory_patches.o)
 .xtensa.info   0x00000000        0x0 mac_core/patch/AR6320/v3/.output/AR6320/hw.3/lib/lib_maccore_patches.a(patch_athos_main.o)
 .xtensa.info   0x00000000        0x0 mac_core/patch/AR6320/v3/.output/AR6320/hw.3/lib/lib_maccore_patches.a(cmnos_misc_patch.o)
 .xtensa.info   0x00000000        0x0 mac_core/patch/AR6320/v3/.output/AR6320/hw.3/lib/lib_maccore_patches.a(sha1_patch.o)
 .xtensa.info   0x00000000        0x0 mac_core/patch/AR6320/v3/.output/AR6320/hw.3/lib/lib_maccore_patches.a(qheap_patch.o)
 .xtensa.info   0x00000000        0x0 mac_core/patch/AR6320/v3/.output/AR6320/hw.3/lib/lib_maccore_patches.a(patch_hif_sdio.o)
 .xtensa.info   0x00000000        0x0 mac_core/patch/AR6320/v3/.output/AR6320/hw.3/lib/lib_maccore_patches.a(ar_wal_txbf_patch.o)
 .xtensa.info   0x00000000        0x0 mac_core/patch/AR6320/v3/.output/AR6320/hw.3/lib/lib_maccore_patches.a(wmi_dbgloghook_patch.o)
 .xtensa.info   0x00000000        0x0 mac_core/patch/AR6320/v3/.output/AR6320/hw.3/lib/lib_maccore_patches.a(cmnos_allocram_patch.o)
 .xtensa.info   0x00000000        0x0 protocol/src/extwow/.output/AR6320/hw.3/lib/libextwow.a(wlan_extwow.o)
 .xtensa.info   0x00000000        0x0 halphy/patch/AR6320/v3/.output/AR6320/hw.3/lib/lib_halphy_patches.a(halphy_install_patches.o)
 .xtensa.info   0x00000000        0x0 halphy/patch/AR6320/v3/.output/AR6320/hw.3/lib/lib_halphy_patches.a(ar6000_nf_cal_patch.o)
 .xtensa.info   0x00000000        0x0 halphy/patch/AR6320/v3/.output/AR6320/hw.3/lib/lib_halphy_patches.a(ar6000_ani_patch.o)
 .xtensa.info   0x00000000        0x0 halphy/patch/AR6320/v3/.output/AR6320/hw.3/lib/lib_halphy_patches.a(ar6320_ini_patch.o)
 .xtensa.info   0x00000000        0x0 halphy/patch/AR6320/v3/.output/AR6320/hw.3/lib/lib_halphy_patches.a(ar6320_tpc_config_patch.o)
 .xtensa.info   0x00000000        0x0 halphy/patch/AR6320/v3/.output/AR6320/hw.3/lib/lib_halphy_patches.a(ar6320_eeprom_patch.o)
 .xtensa.info   0x00000000        0x0 halphy/patch/AR6320/v3/.output/AR6320/hw.3/lib/lib_halphy_patches.a(ar600P_reset_patch.o)
 .xtensa.info   0x00000000        0x0 halphy/patch/AR6320/v3/.output/AR6320/hw.3/lib/lib_halphy_patches.a(ar6000_paprd_patch.o)
 .xtensa.info   0x00000000        0x0 halphy/patch/AR6320/v3/.output/AR6320/hw.3/lib/lib_halphy_patches.a(ar6000_phy_patch.o)
 .xtensa.info   0x00000000        0x0 /cad/tensilica/chips/peregrine/RE-2013.3-linux/peregrine/xtensa-elf/lib/xcc//libgcc.a(_divsi3.o)
 .xtensa.info   0x00000000        0x0 /cad/tensilica/chips/peregrine/RE-2013.3-linux/peregrine/xtensa-elf/lib/xcc//libgcc.a(_modsi3.o)
 .xtensa.info   0x00000000        0x0 /cad/tensilica/chips/peregrine/RE-2013.3-linux/peregrine/xtensa-elf/lib/xcc//libgcc.a(_udivsi3.o)
 .xtensa.info   0x00000000        0x0 /cad/tensilica/chips/peregrine/RE-2013.3-linux/peregrine/xtensa-elf/lib/xcc//libgcc.a(_umodsi3.o)
 .xtensa.info   0x00000000        0x0 /cad/tensilica/chips/peregrine/RE-2013.3-linux/peregrine/xtensa-elf/lib/xcc//libgcc.a(_ashldi3.o)
 .xtensa.info   0x00000000        0x0 /cad/tensilica/chips/peregrine/RE-2013.3-linux/peregrine/xtensa-elf/lib/xcc//libgcc.a(_ashrdi3.o)
 .xtensa.info   0x00000000        0x0 /cad/tensilica/chips/peregrine/RE-2013.3-linux/peregrine/xtensa-elf/lib/xcc//libgcc.a(_lshrdi3.o)
 .xtensa.info   0x00000000        0x0 /cad/tensilica/chips/peregrine/RE-2013.3-linux/peregrine/xtensa-elf/lib/xcc//libgcc.a(_muldf3.o)
 .xtensa.info   0x00000000        0x0 /cad/tensilica/chips/peregrine/RE-2013.3-linux/peregrine/xtensa-elf/lib/xcc//libgcc.a(_fixunsdfsi.o)
 .xtensa.info   0x00000000        0x0 /cad/tensilica/chips/peregrine/RE-2013.3-linux/peregrine/xtensa-elf/lib/xcc//libgcc.a(_floatsidf.o)
 .xtensa.info   0x00000000        0x0 /cad/tensilica/chips/peregrine/RE-2013.3-linux/peregrine/xtensa-elf/lib/xcc//libgcc.a(_muldi3.o)
 .xtensa.info   0x00000000        0x0 /cad/tensilica/chips/peregrine/RE-2013.3-linux/peregrine/xtensa-elf/lib/xcc//libgcc.a(_udivdi3.o)
 .xtensa.info   0x00000000        0x0 /cad/tensilica/chips/peregrine/RE-2013.3-linux/peregrine/xtensa-elf/lib/xcc//libgcc.a(_umoddi3.o)
 .xtensa.info   0x00000000        0x0 /cad/tensilica/chips/peregrine/RE-2013.3-linux/peregrine/xtensa-elf/lib/xcc//libgcc.a(lib2funcs.o)
 .xtensa.info   0x00000000        0x0 protocol/src/tcpip/.output/AR6320/hw.3/lib/libtcpip.a(wlan_pb.o)
 .xtensa.info   0x00000000        0x0 protocol/src/tcpip/.output/AR6320/hw.3/lib/libtcpip.a(wlan_tcpip.o)
 .xtensa.info   0x00000000        0x0 mac_core/src/misc/serport/.output/AR6320/hw.3/lib/libserport.a(serial_if.o)
 .xtensa.info   0x00000000        0x0 mac_core/src/misc/serport/.output/AR6320/hw.3/lib/libserport.a(serial_port.o)
 .xtensa.info   0x00000000        0x0 mac_core/src/misc/uartserp/.output/AR6320/hw.3/lib/libuartserp.a(uartserp.o)
 .xtensa.info   0x00000000        0x0 mac_core/src/wal/AR/nan/.output/AR6320/hw.3/lib/ar_wal_nan.a(wal_nan_mac.o)
 .xtensa.info   0x00000000        0x0 mac_core/src/wal/whal/rtt/.output/AR6320/hw.3/lib/whal_rtt.a(whal_rtt.o)

.debug_aranges  0x00000000     0x2888
 *(.debug_aranges)
 .debug_aranges
                0x00000000       0x20 mac_core/patch/AR6320/v3/.output/AR6320/hw.3/obj/app_start.o
 .debug_aranges
                0x00000020       0x40 protocol/src/init/.output/AR6320/hw.3/lib/libwlaninit.a(wlan_init.o)
 .debug_aranges
                0x00000060       0x28 protocol/src/init/.output/AR6320/hw.3/lib/libwlaninit.a(wlan_peer.o)
 .debug_aranges
                0x00000088       0x20 protocol/src/init/.output/AR6320/hw.3/lib/libwlaninit.a(umac_init.o)
 .debug_aranges
                0x000000a8       0x28 protocol/src/init/.output/AR6320/hw.3/lib/libwlaninit.a(wlan_bss.o)
 .debug_aranges
                0x000000d0       0x30 protocol/src/init/.output/AR6320/hw.3/lib/libwlaninit.a(wlan_buf.o)
 .debug_aranges
                0x00000100       0x68 protocol/src/init/.output/AR6320/hw.3/lib/libwlaninit.a(wlan_dev.o)
 .debug_aranges
                0x00000168       0x20 mac_core/src/mac_core_init/.output/AR6320/hw.3/lib/libmaccoreinit.a(mac_core_init.o)
 .debug_aranges
                0x00000188       0x28 protocol/src/cfg/.output/AR6320/hw.3/lib/libcfg.a(cfg.o)
 .debug_aranges
                0x000001b0       0x68 mac_core/src/wal/AR/coex/.output/AR6320/hw.3/lib/wal_coex.a(wal_coex.o)
 .debug_aranges
                0x00000218       0x38 mac_core/src/wal/AR/coex/.output/AR6320/hw.3/lib/wal_coex.a(wal_btcoex.o)
 .debug_aranges
                0x00000250       0x38 mac_core/src/wal/AR/coex/.output/AR6320/hw.3/lib/wal_coex.a(wal_mwscoex.o)
 .debug_aranges
                0x00000288       0x20 mac_core/src/wal/AR/coex/.output/AR6320/hw.3/lib/wal_coex.a(wal_mwscoex_crc.o)
 .debug_aranges
                0x000002a8       0x20 mac_core/src/wal/AR/coex/.output/AR6320/hw.3/lib/wal_coex.a(qmi_idl_lib.o)
 .debug_aranges
                0x000002c8       0x20 mac_core/src/wal/AR/coex/.output/AR6320/hw.3/lib/wal_coex.a(qmi_idl_accessor.o)
 .debug_aranges
                0x000002e8       0x20 mac_core/src/wal/AR/coex/.output/AR6320/hw.3/lib/wal_coex.a(coexistence_service_v02.o)
 .debug_aranges
                0x00000308       0x28 mac_core/src/wal/whal/ini/.output/AR6320/hw.3/lib/libwhalini.a(whalini.o)
 .debug_aranges
                0x00000330       0x28 mac_core/src/data_txrx/.output/AR6320/hw.3/lib/libdatatxrx.a(data_txrx.o)
 .debug_aranges
                0x00000358       0x28 mac_core/src/data_txrx/.output/AR6320/hw.3/lib/libdatatxrx.a(ieee80211_hdr.o)
 .debug_aranges
                0x00000380       0x30 mac_core/src/data_txrx/.output/AR6320/hw.3/lib/libdatatxrx.a(data_rx.o)
 .debug_aranges
                0x000003b0       0x28 mac_core/src/data_txrx/.output/AR6320/hw.3/lib/libdatatxrx.a(data_rx_peer.o)
 .debug_aranges
                0x000003d8       0x20 mac_core/src/data_txrx/.output/AR6320/hw.3/lib/libdatatxrx.a(data_rx_pn.o)
 .debug_aranges
                0x000003f8       0x28 mac_core/src/data_txrx/.output/AR6320/hw.3/lib/libdatatxrx.a(data_rx_reorder.o)
 .debug_aranges
                0x00000420       0x28 protocol/src/mgmt_txrx/.output/AR6320/hw.3/lib/libmgmttxrx.a(ieee_mgmt_rx.o)
 .debug_aranges
                0x00000448       0x28 protocol/src/mgmt_txrx/.output/AR6320/hw.3/lib/libmgmttxrx.a(wlan_mgmt_local_txrx.o)
 .debug_aranges
                0x00000470       0x30 protocol/src/mgmt_txrx/.output/AR6320/hw.3/lib/libmgmttxrx.a(wlan_mgmt_txrx.o)
 .debug_aranges
                0x000004a0       0x30 protocol/src/vdev_mgr/.output/AR6320/hw.3/lib/libvdevmgr.a(wlan_vdev.o)
 .debug_aranges
                0x000004d0       0x20 protocol/src/vdev_mgr/.output/AR6320/hw.3/lib/libvdevmgr.a(wlan_vdev_keepalive.o)
 .debug_aranges
                0x000004f0       0x20 protocol/src/vdev_mgr/.output/AR6320/hw.3/lib/libvdevmgr.a(wlan_vdev_misc.o)
 .debug_aranges
                0x00000510       0x20 protocol/src/vdev_mgr/.output/AR6320/hw.3/lib/libvdevmgr.a(wlan_vdev_pause.o)
 .debug_aranges
                0x00000530       0x20 protocol/src/vdev_mgr/.output/AR6320/hw.3/lib/libvdevmgr.a(wlan_vdev_schedule.o)
 .debug_aranges
                0x00000550       0x20 protocol/src/key_mgmt/.output/AR6320/hw.3/lib/libkeymgmt.a(wlan_key_mgmt.o)
 .debug_aranges
                0x00000570       0x20 mac_core/src/ratectrl/.output/AR6320/hw.3/lib/libratectrl_11ac.a(ratectrl_11ac.o)
 .debug_aranges
                0x00000590       0x40 mac_core/src/ratectrl/.output/AR6320/hw.3/lib/libratectrl_11ac.a(ratectrl_11ac_if.o)
 .debug_aranges
                0x000005d0       0x30 mac_core/src/ratectrl/.output/AR6320/hw.3/lib/libratectrl_11ac.a(ratectrl_peer_state.o)
 .debug_aranges
                0x00000600       0x40 protocol/src/rtt/.output/AR6320/hw.3/lib/librtt.a(wlan_rtt.o)
 .debug_aranges
                0x00000640       0x20 protocol/src/phyerr/.output/AR6320/hw.3/lib/libphyerr.a(wlan_dfs_phyerr_filter.o)
 .debug_aranges
                0x00000660       0x28 protocol/src/phyerr/.output/AR6320/hw.3/lib/libphyerr.a(wlan_phyerr.o)
 .debug_aranges
                0x00000688       0x28 protocol/src/rfkill/.output/AR6320/hw.3/lib/librfkill.a(wlan_rfkill.o)
 .debug_aranges
                0x000006b0       0x28 protocol/src/wmi/.output/AR6320/hw.3/lib/libumacwmi.a(umac_wmi_events.o)
 .debug_aranges
                0x000006d8       0x40 protocol/src/wmi/.output/AR6320/hw.3/lib/libumacwmi.a(wlan_wmi.o)
 .debug_aranges
                0x00000718       0x30 protocol/src/wmi/.output/AR6320/hw.3/lib/libumacwmi.a(wlan_wmi_events.o)
 .debug_aranges
                0x00000748       0x28 protocol/src/wmi/.output/AR6320/hw.3/lib/libumacwmi.a(wmi_gpiohook.o)
 .debug_aranges
                0x00000770       0x28 protocol/src/wmi/.output/AR6320/hw.3/lib/libumacwmi.a(wmi_tlv_helper.o)
 .debug_aranges
                0x00000798       0x20 protocol/src/wmi/.output/AR6320/hw.3/lib/libumacwmi.a(umac_wmi.o)
 .debug_aranges
                0x000007b8       0x30 protocol/src/offload_mgr/.output/AR6320/hw.3/lib/liboffload_mgr.a(beacon_filter.o)
 .debug_aranges
                0x000007e8       0x38 protocol/src/offload_mgr/.output/AR6320/hw.3/lib/liboffload_mgr.a(csa_offload_main.o)
 .debug_aranges
                0x00000820       0x30 protocol/src/offload_mgr/.output/AR6320/hw.3/lib/liboffload_mgr.a(offload_mgr.o)
 .debug_aranges
                0x00000850       0x28 protocol/src/offload_mgr/.output/AR6320/hw.3/lib/liboffload_mgr.a(wlan_d0wow.o)
 .debug_aranges
                0x00000878       0x38 protocol/src/offload_mgr/.output/AR6320/hw.3/lib/liboffload_mgr.a(wlan_gtk_offload.o)
 .debug_aranges
                0x000008b0       0x38 protocol/src/offload_mgr/.output/AR6320/hw.3/lib/liboffload_mgr.a(wlan_wow.o)
 .debug_aranges
                0x000008e8       0x48 protocol/src/mgmt/.output/AR6320/hw.3/lib/libmgmt.a(wlan_beacon.o)
 .debug_aranges
                0x00000930       0x28 protocol/src/mgmt/.output/AR6320/hw.3/lib/libmgmt.a(wlan_early_rx_sm.o)
 .debug_aranges
                0x00000958       0x28 protocol/src/mgmt/.output/AR6320/hw.3/lib/libmgmt.a(wlan_ie_utils.o)
 .debug_aranges
                0x00000980       0x20 protocol/src/mgmt/.output/AR6320/hw.3/lib/libmgmt.a(wlan_wnm.o)
 .debug_aranges
                0x000009a0       0x28 protocol/src/power/.output/AR6320/hw.3/lib/libpower.a(wlan_pm_arbiter.o)
 .debug_aranges
                0x000009c8       0x28 protocol/src/power/.output/AR6320/hw.3/lib/libpower.a(wlan_powersave.o)
 .debug_aranges
                0x000009f0       0x28 protocol/src/power/.output/AR6320/hw.3/lib/libpower.a(wlan_powersave_ap.o)
 .debug_aranges
                0x00000a18       0x20 protocol/src/power/.output/AR6320/hw.3/lib/libpower.a(wlan_powersave_ibss.o)
 .debug_aranges
                0x00000a38       0x20 protocol/src/power/.output/AR6320/hw.3/lib/libpower.a(wlan_powersave_ibss_nw_sm.o)
 .debug_aranges
                0x00000a58       0x20 protocol/src/power/.output/AR6320/hw.3/lib/libpower.a(wlan_powersave_ibss_peer_ps_sm.o)
 .debug_aranges
                0x00000a78       0x20 protocol/src/power/.output/AR6320/hw.3/lib/libpower.a(wlan_powersave_ibss_self_ps_sm.o)
 .debug_aranges
                0x00000a98       0x30 protocol/src/power/.output/AR6320/hw.3/lib/libpower.a(wlan_powersave_sta.o)
 .debug_aranges
                0x00000ac8       0x20 protocol/src/power/.output/AR6320/hw.3/lib/libpower.a(wlan_powersave_sta_sm.o)
 .debug_aranges
                0x00000ae8       0x20 protocol/src/power/.output/AR6320/hw.3/lib/libpower.a(wlan_powersave_tdls.o)
 .debug_aranges
                0x00000b08       0x20 protocol/src/power/.output/AR6320/hw.3/lib/libpower.a(wlan_qpower.o)
 .debug_aranges
                0x00000b28       0x40 protocol/src/power/smps/.output/AR6320/hw.3/lib/libsmps.a(wlan_smps.o)
 .debug_aranges
                0x00000b68       0x20 protocol/src/power/smps/.output/AR6320/hw.3/lib/libsmps.a(wlan_smps_sm.o)
 .debug_aranges
                0x00000b88       0x28 protocol/src/resmgr/.output/AR6320/hw.3/lib/libresmgr.a(channel_mgr.o)
 .debug_aranges
                0x00000bb0       0x40 protocol/src/resmgr/.output/AR6320/hw.3/lib/libresmgr.a(resmgr.o)
 .debug_aranges
                0x00000bf0       0x30 protocol/src/resmgr/.output/AR6320/hw.3/lib/libresmgr.a(resmgr_dyn_sch.o)
 .debug_aranges
                0x00000c20       0x30 protocol/src/resmgr/.output/AR6320/hw.3/lib/libresmgr.a(resmgr_ocs.o)
 .debug_aranges
                0x00000c50       0x30 protocol/src/resmgr/.output/AR6320/hw.3/lib/libresmgr.a(virtual_channel.o)
 .debug_aranges
                0x00000c80       0x20 protocol/src/resmgr/.output/AR6320/hw.3/lib/libresmgr.a(virtual_channel_arbiter.o)
 .debug_aranges
                0x00000ca0       0x60 mac_core/src/hostif/htc/.output/AR6320/hw.3/lib/libhtc.a(htc.o)
 .debug_aranges
                0x00000d00       0x38 mac_core/src/hostif/htt/.output/AR6320/hw.3/lib/libhtt.a(htt_tgt_hif_svc.o)
 .debug_aranges
                0x00000d38       0x28 mac_core/src/hostif/htt/.output/AR6320/hw.3/lib/libhtt.a(htt_tgt_rx.o)
 .debug_aranges
                0x00000d60       0x30 mac_core/src/hostif/htt/.output/AR6320/hw.3/lib/libhtt.a(htt_tgt_rx_event.o)
 .debug_aranges
                0x00000d90       0x28 mac_core/src/hostif/htt/.output/AR6320/hw.3/lib/libhtt.a(htt_tgt_stats.o)
 .debug_aranges
                0x00000db8       0x30 mac_core/src/hostif/htt/.output/AR6320/hw.3/lib/libhtt.a(htt_tgt_tx.o)
 .debug_aranges
                0x00000de8       0x28 mac_core/src/utils/sm/.output/AR6320/hw.3/lib/libsm.a(sm.o)
 .debug_aranges
                0x00000e10       0x40 protocol/src/coex/.output/AR6320/hw.3/lib/libcoex.a(coex.o)
 .debug_aranges
                0x00000e50       0x38 mac_core/src/hostif/wmisvc/.output/AR6320/hw.3/lib/libwmisvc.a(wmi_svc.o)
 .debug_aranges
                0x00000e88       0x28 protocol/src/scan/.output/AR6320/hw.3/lib/libscan.a(wlan_dcs.o)
 .debug_aranges
                0x00000eb0       0x48 protocol/src/scan/.output/AR6320/hw.3/lib/libscan.a(wlan_scan_sch.o)
 .debug_aranges
                0x00000ef8       0x30 protocol/src/scan/.output/AR6320/hw.3/lib/libscan.a(wlan_scan_sm.o)
 .debug_aranges
                0x00000f28       0x30 protocol/src/scan/.output/AR6320/hw.3/lib/libscan.a(wlan_scan.o)
 .debug_aranges
                0x00000f58       0x28 protocol/src/roam/.output/AR6320/hw.3/lib/libroam.a(wlan_roam.o)
 .debug_aranges
                0x00000f80       0x20 protocol/src/roam/.output/AR6320/hw.3/lib/libroam.a(wlan_roam_internal.o)
 .debug_aranges
                0x00000fa0       0x28 protocol/src/roam/.output/AR6320/hw.3/lib/libroam.a(wlan_roam_wmi.o)
 .debug_aranges
                0x00000fc8       0x30 protocol/src/pps/.output/AR6320/hw.3/lib/libpps.a(wlan_pps.o)
 .debug_aranges
                0x00000ff8       0x30 protocol/src/stats/.output/AR6320/hw.3/lib/libstats.a(wlan_stats.o)
 .debug_aranges
                0x00001028       0x20 protocol/src/stats/.output/AR6320/hw.3/lib/libstats.a(wlan_estimate_linkspeed.o)
 .debug_aranges
                0x00001048       0x28 mac_core/src/soc/pcielp/.output/AR6320/hw.3/lib/libpcielp.a(pcielp_core.o)
 .debug_aranges
                0x00001070       0x28 mac_core/src/soc/pcielp/.output/AR6320/hw.3/lib/libpcielp.a(pcielp_ltr.o)
 .debug_aranges
                0x00001098       0x28 mac_core/src/soc/pcielp/.output/AR6320/hw.3/lib/libpcielp.a(pcielp_dsleep.o)
 .debug_aranges
                0x000010c0       0x28 mac_core/src/soc/pcielp/.output/AR6320/hw.3/lib/libpcielp.a(pcielp_l1ss.o)
 .debug_aranges
                0x000010e8       0x20 mac_core/src/soc/pcielp/.output/AR6320/hw.3/lib/libpcielp.a(pcielp_buffering.o)
 .debug_aranges
                0x00001108       0x28 mac_core/src/pktlog/.output/AR6320/hw.3/lib/libpktlog.a(pktlog.o)
 .debug_aranges
                0x00001130       0x28 protocol/src/tbd/.output/AR6320/hw.3/lib/libtbd.a(tbd.o)
 .debug_aranges
                0x00001158       0x40 protocol/src/p2p/.output/AR6320/hw.3/lib/libp2p.a(p2p_main.o)
 .debug_aranges
                0x00001198       0x20 protocol/src/p2p/.output/AR6320/hw.3/lib/libp2p.a(p2p_parse.o)
 .debug_aranges
                0x000011b8       0x20 protocol/src/p2p/.output/AR6320/hw.3/lib/libp2p.a(p2p_schedules.o)
 .debug_aranges
                0x000011d8       0x20 protocol/src/p2p/.output/AR6320/hw.3/lib/libp2p.a(p2p_go_ps.o)
 .debug_aranges
                0x000011f8       0x30 protocol/src/chatter/.output/AR6320/hw.3/lib/libchatter.a(wlan_chatter.o)
 .debug_aranges
                0x00001228       0x28 protocol/src/chatter/.output/AR6320/hw.3/lib/libchatter.a(wlan_coalescing.o)
 .debug_aranges
                0x00001250       0x20 mac_core/src/retention/.output/AR6320/hw.3/lib/libretention.a(wlan_retention.o)
 .debug_aranges
                0x00001270       0x28 mac_core/src/utils/buf_chunk/.output/AR6320/hw.3/lib/libbufchunk.a(buf_chunk_api.o)
 .debug_aranges
                0x00001298       0x28 protocol/src/txbf/.output/AR6320/hw.3/lib/libtxbf.a(wlan_txbf.o)
 .debug_aranges
                0x000012c0       0x38 protocol/src/tdls/.output/AR6320/hw.3/lib/libtdls.a(wlan_tdls.o)
 .debug_aranges
                0x000012f8       0x20 protocol/src/tdls/.output/AR6320/hw.3/lib/libtdls.a(wlan_tdls_peer.o)
 .debug_aranges
                0x00001318       0x20 protocol/src/tdls/.output/AR6320/hw.3/lib/libtdls.a(wlan_tdls_uapsd.o)
 .debug_aranges
                0x00001338       0x20 protocol/src/tcpip/.output/AR6320/hw.3/lib/libtcpip.a(wlan_ipv6.o)
 .debug_aranges
                0x00001358       0x28 mac_core/src/misc/extend_alloc/.output/AR6320/hw.3/lib/libextendalloc.a(extend_allocate.o)
 .debug_aranges
                0x00001380       0x28 protocol/src/thermal_mgr/.output/AR6320/hw.3/lib/libthermalmgr.a(wlan_thermal_mgr.o)
 .debug_aranges
                0x000013a8       0x20 mac_core/src/wal/AR/init/.output/AR6320/hw.3/lib/ar_wal_init.a(ar_wal_init.o)
 .debug_aranges
                0x000013c8       0x20 mac_core/src/wal/whal/init/.output/AR6320/hw.3/lib/libwhal_init.a(whal_init.o)
 .debug_aranges
                0x000013e8       0x20 mac_core/src/hostif/wdi_ipa/.output/AR6320/hw.3/lib/libwdi_ipa.a(wdi_ipa.o)
 .debug_aranges
                0x00001408       0x20 mac_core/src/hostif/wdi_ipa/.output/AR6320/hw.3/lib/libwdi_ipa.a(wdi_ipa_rx.o)
 .debug_aranges
                0x00001428       0x20 mac_core/src/hostif/wdi_ipa/.output/AR6320/hw.3/lib/libwdi_ipa.a(wdi_ipa_tx.o)
 .debug_aranges
                0x00001448       0x20 mac_core/src/hostif/hif/hif_dbguart/.output/AR6320/hw.3/lib/lib_hif_dbguart.a(hif_dbguart_install.o)
 .debug_aranges
                0x00001468       0x28 mac_core/src/hostif/hif/hif_dbguart/.output/AR6320/hw.3/lib/lib_hif_dbguart.a(hif_dbguart.o)
 .debug_aranges
                0x00001490       0x28 protocol/src/lpi/.output/AR6320/hw.3/lib/liblpi.a(wlan_lpi.o)
 .debug_aranges
                0x000014b8       0x28 protocol/src/profile/.output/AR6320/hw.3/lib/libwlanprofile.a(wlan_profile.o)
 .debug_aranges
                0x000014e0       0x38 protocol/src/offload/.output/AR6320/hw.3/lib/liboffload.a(wlan_arp_ns_offload.o)
 .debug_aranges
                0x00001518       0x40 protocol/src/offload/.output/AR6320/hw.3/lib/liboffload.a(wlan_beacon_tx_offload.o)
 .debug_aranges
                0x00001558       0x40 protocol/src/offload/.output/AR6320/hw.3/lib/liboffload.a(wlan_network_list_offload.o)
 .debug_aranges
                0x00001598       0x38 protocol/src/offload/.output/AR6320/hw.3/lib/liboffload.a(wlan_swbmiss_offload.o)
 .debug_aranges
                0x000015d0       0x20 protocol/src/framegen/.output/AR6320/hw.3/lib/libframegen.a(wlan_framegen.o)
 .debug_aranges
                0x000015f0       0x28 mac_core/src/misc/codeswap/.output/AR6320/hw.3/lib/libcodeswap.a(codeswap.o)
 .debug_aranges
                0x00001618       0x20 mac_core/src/misc/codeswap/.output/AR6320/hw.3/lib/libcodeswap.a(codeswap_dmamgr.o)
 .debug_aranges
                0x00001638       0x28 protocol/src/blockack/.output/AR6320/hw.3/lib/libblockack.a(wlan_blockack.o)
 .debug_aranges
                0x00001660       0x28 mac_core/src/wal/whal/reset/.output/AR6320/hw.3/lib/ar6000_cal.a(ar6320_cal.o)
 .debug_aranges
                0x00001688       0x20 mac_core/src/wal/whal/reset/.output/AR6320/hw.3/lib/ar6000_cal.a(ar6320_rxdc_cal.o)
 .debug_aranges
                0x000016a8       0x20 mac_core/src/wal/whal/reset/.output/AR6320/hw.3/lib/ar6000_cal.a(ar6320_iq_cal.o)
 .debug_aranges
                0x000016c8       0x20 mac_core/src/wal/whal/reset/.output/AR6320/hw.3/lib/ar6000_cal.a(ar6320_pef_cal.o)
 .debug_aranges
                0x000016e8       0x30 protocol/src/unit_test/.output/AR6320/hw.3/lib/libunittest.a(unit_test.o)
 .debug_aranges
                0x00001718       0x20 protocol/src/frameparse/.output/AR6320/hw.3/lib/libframeparse.a(wlan_frameparse.o)
 .debug_aranges
                0x00001738       0x30 protocol/src/nan/.output/AR6320/hw.3/lib/libnanwlan.a(wlan_nan.o)
 .debug_aranges
                0x00001768       0x20 protocol/src/nan/.output/AR6320/hw.3/lib/libnanwlan.a(wlan_nan_sync.o)
 .debug_aranges
                0x00001788       0x20 protocol/src/nan/.output/AR6320/hw.3/lib/libnanwlan.a(wlan_nan_mac.o)
 .debug_aranges
                0x000017a8       0x20 protocol/src/nan/.output/AR6320/hw.3/lib/libnanwlan.a(wlan_nan_publish.o)
 .debug_aranges
                0x000017c8       0x20 protocol/src/nan/.output/AR6320/hw.3/lib/libnanwlan.a(wlan_nan_subscribe.o)
 .debug_aranges
                0x000017e8       0x20 protocol/src/nan/.output/AR6320/hw.3/lib/libnanwlan.a(wlan_nan_ctrl.o)
 .debug_aranges
                0x00001808       0x20 protocol/src/nan/.output/AR6320/hw.3/lib/libnanwlan.a(wlan_nan_de_if.o)
 .debug_aranges
                0x00001828       0x20 protocol/src/nan/.output/AR6320/hw.3/lib/libnanwlan.a(wlan_nan_rx.o)
 .debug_aranges
                0x00001848       0x20 protocol/src/nan/.output/AR6320/hw.3/lib/libnanwlan.a(wlan_nan_match.o)
 .debug_aranges
                0x00001868       0x20 protocol/src/nan/.output/AR6320/hw.3/lib/libnanwlan.a(wconn_util_list.o)
 .debug_aranges
                0x00001888       0x20 protocol/src/nan/.output/AR6320/hw.3/lib/libnanwlan.a(wlan_nan_attr.o)
 .debug_aranges
                0x000018a8       0x20 protocol/src/nan/.output/AR6320/hw.3/lib/libnanwlan.a(wlan_nan_bloom_filter.o)
 .debug_aranges
                0x000018c8       0x20 protocol/src/nan/.output/AR6320/hw.3/lib/libnanwlan.a(wlan_nan_crc.o)
 .debug_aranges
                0x000018e8       0x20 protocol/src/nan/.output/AR6320/hw.3/lib/libnanwlan.a(wlan_nan_log.o)
 .debug_aranges
                0x00001908       0x20 protocol/src/nan/.output/AR6320/hw.3/lib/libnanwlan.a(wlan_nan_time.o)
 .debug_aranges
                0x00001928       0x20 protocol/src/nan/.output/AR6320/hw.3/lib/libnanwlan.a(wlan_nan_tlv.o)
 .debug_aranges
                0x00001948       0x20 protocol/src/nan/.output/AR6320/hw.3/lib/libnanwlan.a(wlan_nan_util.o)
 .debug_aranges
                0x00001968       0x20 protocol/src/nan/.output/AR6320/hw.3/lib/libnanwlan.a(wlan_nan_beacon_ie.o)
 .debug_aranges
                0x00001988       0x20 protocol/src/nan/.output/AR6320/hw.3/lib/libnanwlan.a(wlan_nan_beacon_rx.o)
 .debug_aranges
                0x000019a8       0x20 protocol/src/nan/.output/AR6320/hw.3/lib/libnanwlan.a(wlan_nan_beacon_tx.o)
 .debug_aranges
                0x000019c8       0x20 protocol/src/nan/.output/AR6320/hw.3/lib/libnanwlan.a(wlan_nan_cluster_sm.o)
 .debug_aranges
                0x000019e8       0x20 protocol/src/nan/.output/AR6320/hw.3/lib/libnanwlan.a(wlan_nan_scan.o)
 .debug_aranges
                0x00001a08       0x20 protocol/src/nan/.output/AR6320/hw.3/lib/libnanwlan.a(wlan_nan_sched.o)
 .debug_aranges
                0x00001a28       0x20 protocol/src/nan/.output/AR6320/hw.3/lib/libnanwlan.a(sha2.o)
 .debug_aranges
                0x00001a48       0x30 protocol/src/extscan/.output/AR6320/hw.3/lib/libextscan.a(wlan_extscan_main.o)
 .debug_aranges
                0x00001a78       0x20 protocol/src/extscan/.output/AR6320/hw.3/lib/libextscan.a(wlan_extscan_wlan_change.o)
 .debug_aranges
                0x00001a98       0x28 protocol/src/extscan/.output/AR6320/hw.3/lib/libextscan.a(wlan_extscan_wmi.o)
 .debug_aranges
                0x00001ac0       0x20 protocol/src/extscan/.output/AR6320/hw.3/lib/libextscan.a(wlan_extscan_bssid.o)
 .debug_aranges
                0x00001ae0       0x20 protocol/src/extscan/.output/AR6320/hw.3/lib/libextscan.a(wlan_extscan_bucket.o)
 .debug_aranges
                0x00001b00       0x20 protocol/src/extscan/.output/AR6320/hw.3/lib/libextscan.a(wlan_extscan_hotlist.o)
 .debug_aranges
                0x00001b20       0x28 mac_core/src/wal/AR/rtt/.output/AR6320/hw.3/lib/ar_wal_rtt.a(wal_rtt.o)
 .debug_aranges
                0x00001b48       0x20 mac_core/patch/AR6320/v3/.output/AR6320/hw.3/lib/lib_maccore_patches.a(install_patches.o)
 .debug_aranges
                0x00001b68       0x20 mac_core/patch/AR6320/v3/.output/AR6320/hw.3/lib/lib_maccore_patches.a(whal_install_patches.o)
 .debug_aranges
                0x00001b88       0x20 mac_core/patch/AR6320/v3/.output/AR6320/hw.3/lib/lib_maccore_patches.a(wal_install_patches.o)
 .debug_aranges
                0x00001ba8       0x28 mac_core/patch/AR6320/v3/.output/AR6320/hw.3/lib/lib_maccore_patches.a(ar_wal_connection_pause_patch.o)
 .debug_aranges
                0x00001bd0       0x38 mac_core/patch/AR6320/v3/.output/AR6320/hw.3/lib/lib_maccore_patches.a(ar_wal_phy_dev_patch.o)
 .debug_aranges
                0x00001c08       0x38 mac_core/patch/AR6320/v3/.output/AR6320/hw.3/lib/lib_maccore_patches.a(cmnos_retention_patch.o)
 .debug_aranges
                0x00001c40       0x28 mac_core/patch/AR6320/v3/.output/AR6320/hw.3/lib/lib_maccore_patches.a(ar_wal_tx_de_patch.o)
 .debug_aranges
                0x00001c68       0x28 mac_core/patch/AR6320/v3/.output/AR6320/hw.3/lib/lib_maccore_patches.a(ar_wal_local_frames_wifi_ip01_patch.o)
 .debug_aranges
                0x00001c90       0x20 mac_core/patch/AR6320/v3/.output/AR6320/hw.3/lib/lib_maccore_patches.a(pool_mgr_patch.o)
 .debug_aranges
                0x00001cb0       0x28 mac_core/patch/AR6320/v3/.output/AR6320/hw.3/lib/lib_maccore_patches.a(ar_wal_rx_patch.o)
 .debug_aranges
                0x00001cd8       0x28 mac_core/patch/AR6320/v3/.output/AR6320/hw.3/lib/lib_maccore_patches.a(ar_wal_rx_offload_patch.o)
 .debug_aranges
                0x00001d00       0x28 mac_core/patch/AR6320/v3/.output/AR6320/hw.3/lib/lib_maccore_patches.a(ar_wal_rx_common_patch.o)
 .debug_aranges
                0x00001d28       0x28 mac_core/patch/AR6320/v3/.output/AR6320/hw.3/lib/lib_maccore_patches.a(ar_wal_vdev_patch.o)
 .debug_aranges
                0x00001d50       0x28 mac_core/patch/AR6320/v3/.output/AR6320/hw.3/lib/lib_maccore_patches.a(ar_tx_q_enque_patch.o)
 .debug_aranges
                0x00001d78       0x28 mac_core/patch/AR6320/v3/.output/AR6320/hw.3/lib/lib_maccore_patches.a(tx_sched_patch.o)
 .debug_aranges
                0x00001da0       0x48 mac_core/patch/AR6320/v3/.output/AR6320/hw.3/lib/lib_maccore_patches.a(ar_wal_tx_send_patch.o)
 .debug_aranges
                0x00001de8       0x28 mac_core/patch/AR6320/v3/.output/AR6320/hw.3/lib/lib_maccore_patches.a(ar_wal_chain_mgmt_patch.o)
 .debug_aranges
                0x00001e10       0x28 mac_core/patch/AR6320/v3/.output/AR6320/hw.3/lib/lib_maccore_patches.a(ar_wal_peer_patch.o)
 .debug_aranges
                0x00001e38       0x38 mac_core/patch/AR6320/v3/.output/AR6320/hw.3/lib/lib_maccore_patches.a(ar600P_txbf_patch.o)
 .debug_aranges
                0x00001e70       0x20 mac_core/patch/AR6320/v3/.output/AR6320/hw.3/lib/lib_maccore_patches.a(wal_pps_patch.o)
 .debug_aranges
                0x00001e90       0x28 mac_core/patch/AR6320/v3/.output/AR6320/hw.3/lib/lib_maccore_patches.a(ar_xmit_wifi_ip01_patch.o)
 .debug_aranges
                0x00001eb8       0x28 mac_core/patch/AR6320/v3/.output/AR6320/hw.3/lib/lib_maccore_patches.a(ar_wal_channel_change_patch.o)
 .debug_aranges
                0x00001ee0       0x28 mac_core/patch/AR6320/v3/.output/AR6320/hw.3/lib/lib_maccore_patches.a(ar_wal_rc_patch.o)
 .debug_aranges
                0x00001f08       0x20 mac_core/patch/AR6320/v3/.output/AR6320/hw.3/lib/lib_maccore_patches.a(wal_rtt_patch.o)
 .debug_aranges
                0x00001f28       0x20 mac_core/patch/AR6320/v3/.output/AR6320/hw.3/lib/lib_maccore_patches.a(whal_rtt_patch.o)
 .debug_aranges
                0x00001f48       0x28 mac_core/patch/AR6320/v3/.output/AR6320/hw.3/lib/lib_maccore_patches.a(dbglog_patch.o)
 .debug_aranges
                0x00001f70       0x28 mac_core/patch/AR6320/v3/.output/AR6320/hw.3/lib/lib_maccore_patches.a(ar600p_beacon_patch.o)
 .debug_aranges
                0x00001f98       0x28 mac_core/patch/AR6320/v3/.output/AR6320/hw.3/lib/lib_maccore_patches.a(ar6000_power_patch.o)
 .debug_aranges
                0x00001fc0       0x20 mac_core/patch/AR6320/v3/.output/AR6320/hw.3/lib/lib_maccore_patches.a(ar6000_interrupt_patch.o)
 .debug_aranges
                0x00001fe0       0x30 mac_core/patch/AR6320/v3/.output/AR6320/hw.3/lib/lib_maccore_patches.a(cmnos_intrinf_patch.o)
 .debug_aranges
                0x00002010       0x20 mac_core/patch/AR6320/v3/.output/AR6320/hw.3/lib/lib_maccore_patches.a(patch_pcie.o)
 .debug_aranges
                0x00002030       0x20 mac_core/patch/AR6320/v3/.output/AR6320/hw.3/lib/lib_maccore_patches.a(patch_usb.o)
 .debug_aranges
                0x00002050       0x28 mac_core/patch/AR6320/v3/.output/AR6320/hw.3/lib/lib_maccore_patches.a(wal_beacon_patch.o)
 .debug_aranges
                0x00002078       0x28 mac_core/patch/AR6320/v3/.output/AR6320/hw.3/lib/lib_maccore_patches.a(wal_swba_patch.o)
 .debug_aranges
                0x000020a0       0x28 mac_core/patch/AR6320/v3/.output/AR6320/hw.3/lib/lib_maccore_patches.a(ar600P_retention_patch.o)
 .debug_aranges
                0x000020c8       0x20 mac_core/patch/AR6320/v3/.output/AR6320/hw.3/lib/lib_maccore_patches.a(ar_wal_rmc_patch.o)
 .debug_aranges
                0x000020e8       0x20 mac_core/patch/AR6320/v3/.output/AR6320/hw.3/lib/lib_maccore_patches.a(whal_rgc_patch.o)
 .debug_aranges
                0x00002108       0x20 mac_core/patch/AR6320/v3/.output/AR6320/hw.3/lib/lib_maccore_patches.a(patch_hif_ce.o)
 .debug_aranges
                0x00002128       0x20 mac_core/patch/AR6320/v3/.output/AR6320/hw.3/lib/lib_maccore_patches.a(patch_whal_coex.o)
 .debug_aranges
                0x00002148       0x20 mac_core/patch/AR6320/v3/.output/AR6320/hw.3/lib/lib_maccore_patches.a(patch_whal_mws.o)
 .debug_aranges
                0x00002168       0x20 mac_core/patch/AR6320/v3/.output/AR6320/hw.3/lib/lib_maccore_patches.a(patch_whal_mci.o)
 .debug_aranges
                0x00002188       0x30 mac_core/patch/AR6320/v3/.output/AR6320/hw.3/lib/lib_maccore_patches.a(ar_wal_tx_dm_patch.o)
 .debug_aranges
                0x000021b8       0x28 mac_core/patch/AR6320/v3/.output/AR6320/hw.3/lib/lib_maccore_patches.a(patch_copy_engine.o)
 .debug_aranges
                0x000021e0       0x28 mac_core/patch/AR6320/v3/.output/AR6320/hw.3/lib/lib_maccore_patches.a(wal_concurrency_patch.o)
 .debug_aranges
                0x00002208       0x28 mac_core/patch/AR6320/v3/.output/AR6320/hw.3/lib/lib_maccore_patches.a(ar_wal_tdls_patch.o)
 .debug_aranges
                0x00002230       0x28 mac_core/patch/AR6320/v3/.output/AR6320/hw.3/lib/lib_maccore_patches.a(cmnos_timer_patch.o)
 .debug_aranges
                0x00002258       0x30 mac_core/patch/AR6320/v3/.output/AR6320/hw.3/lib/lib_maccore_patches.a(ar_wal_tx_hcm_patch.o)
 .debug_aranges
                0x00002288       0x28 mac_core/patch/AR6320/v3/.output/AR6320/hw.3/lib/lib_maccore_patches.a(ar_wal_tdls_conn_table_patch.o)
 .debug_aranges
                0x000022b0       0x38 mac_core/patch/AR6320/v3/.output/AR6320/hw.3/lib/lib_maccore_patches.a(ar600P_recv_patch.o)
 .debug_aranges
                0x000022e8       0x20 mac_core/patch/AR6320/v3/.output/AR6320/hw.3/lib/lib_maccore_patches.a(patch_gpio.o)
 .debug_aranges
                0x00002308       0x20 mac_core/patch/AR6320/v3/.output/AR6320/hw.3/lib/lib_maccore_patches.a(os_install_wlan_extra_memory_patches.o)
 .debug_aranges
                0x00002328       0x20 mac_core/patch/AR6320/v3/.output/AR6320/hw.3/lib/lib_maccore_patches.a(patch_athos_main.o)
 .debug_aranges
                0x00002348       0x20 mac_core/patch/AR6320/v3/.output/AR6320/hw.3/lib/lib_maccore_patches.a(cmnos_misc_patch.o)
 .debug_aranges
                0x00002368       0x28 mac_core/patch/AR6320/v3/.output/AR6320/hw.3/lib/lib_maccore_patches.a(sha1_patch.o)
 .debug_aranges
                0x00002390       0x20 mac_core/patch/AR6320/v3/.output/AR6320/hw.3/lib/lib_maccore_patches.a(qheap_patch.o)
 .debug_aranges
                0x000023b0       0x20 mac_core/patch/AR6320/v3/.output/AR6320/hw.3/lib/lib_maccore_patches.a(patch_hif_sdio.o)
 .debug_aranges
                0x000023d0       0x28 mac_core/patch/AR6320/v3/.output/AR6320/hw.3/lib/lib_maccore_patches.a(ar_wal_txbf_patch.o)
 .debug_aranges
                0x000023f8       0x20 mac_core/patch/AR6320/v3/.output/AR6320/hw.3/lib/lib_maccore_patches.a(wmi_dbgloghook_patch.o)
 .debug_aranges
                0x00002418       0x28 mac_core/patch/AR6320/v3/.output/AR6320/hw.3/lib/lib_maccore_patches.a(cmnos_allocram_patch.o)
 .debug_aranges
                0x00002440       0x28 protocol/src/extwow/.output/AR6320/hw.3/lib/libextwow.a(wlan_extwow.o)
 .debug_aranges
                0x00002468       0x20 halphy/patch/AR6320/v3/.output/AR6320/hw.3/lib/lib_halphy_patches.a(halphy_install_patches.o)
 .debug_aranges
                0x00002488       0x20 halphy/patch/AR6320/v3/.output/AR6320/hw.3/lib/lib_halphy_patches.a(ar6000_nf_cal_patch.o)
 .debug_aranges
                0x000024a8       0x28 halphy/patch/AR6320/v3/.output/AR6320/hw.3/lib/lib_halphy_patches.a(ar6000_ani_patch.o)
 .debug_aranges
                0x000024d0       0x30 halphy/patch/AR6320/v3/.output/AR6320/hw.3/lib/lib_halphy_patches.a(ar6320_ini_patch.o)
 .debug_aranges
                0x00002500       0x28 halphy/patch/AR6320/v3/.output/AR6320/hw.3/lib/lib_halphy_patches.a(ar6320_tpc_config_patch.o)
 .debug_aranges
                0x00002528       0x28 halphy/patch/AR6320/v3/.output/AR6320/hw.3/lib/lib_halphy_patches.a(ar6320_eeprom_patch.o)
 .debug_aranges
                0x00002550       0x28 halphy/patch/AR6320/v3/.output/AR6320/hw.3/lib/lib_halphy_patches.a(ar600P_reset_patch.o)
 .debug_aranges
                0x00002578       0x28 halphy/patch/AR6320/v3/.output/AR6320/hw.3/lib/lib_halphy_patches.a(ar6000_paprd_patch.o)
 .debug_aranges
                0x000025a0       0x28 halphy/patch/AR6320/v3/.output/AR6320/hw.3/lib/lib_halphy_patches.a(ar6000_phy_patch.o)
 .debug_aranges
                0x000025c8       0x20 /cad/tensilica/chips/peregrine/RE-2013.3-linux/peregrine/xtensa-elf/lib/xcc//libgcc.a(_divsi3.o)
 .debug_aranges
                0x000025e8       0x20 /cad/tensilica/chips/peregrine/RE-2013.3-linux/peregrine/xtensa-elf/lib/xcc//libgcc.a(_modsi3.o)
 .debug_aranges
                0x00002608       0x20 /cad/tensilica/chips/peregrine/RE-2013.3-linux/peregrine/xtensa-elf/lib/xcc//libgcc.a(_udivsi3.o)
 .debug_aranges
                0x00002628       0x20 /cad/tensilica/chips/peregrine/RE-2013.3-linux/peregrine/xtensa-elf/lib/xcc//libgcc.a(_umodsi3.o)
 .debug_aranges
                0x00002648       0x20 /cad/tensilica/chips/peregrine/RE-2013.3-linux/peregrine/xtensa-elf/lib/xcc//libgcc.a(_ashldi3.o)
 .debug_aranges
                0x00002668       0x20 /cad/tensilica/chips/peregrine/RE-2013.3-linux/peregrine/xtensa-elf/lib/xcc//libgcc.a(_ashrdi3.o)
 .debug_aranges
                0x00002688       0x20 /cad/tensilica/chips/peregrine/RE-2013.3-linux/peregrine/xtensa-elf/lib/xcc//libgcc.a(_lshrdi3.o)
 .debug_aranges
                0x000026a8       0x20 /cad/tensilica/chips/peregrine/RE-2013.3-linux/peregrine/xtensa-elf/lib/xcc//libgcc.a(_muldf3.o)
 .debug_aranges
                0x000026c8       0x20 /cad/tensilica/chips/peregrine/RE-2013.3-linux/peregrine/xtensa-elf/lib/xcc//libgcc.a(_fixunsdfsi.o)
 .debug_aranges
                0x000026e8       0x20 /cad/tensilica/chips/peregrine/RE-2013.3-linux/peregrine/xtensa-elf/lib/xcc//libgcc.a(_floatsidf.o)
 .debug_aranges
                0x00002708       0x20 /cad/tensilica/chips/peregrine/RE-2013.3-linux/peregrine/xtensa-elf/lib/xcc//libgcc.a(_muldi3.o)
 .debug_aranges
                0x00002728       0x20 /cad/tensilica/chips/peregrine/RE-2013.3-linux/peregrine/xtensa-elf/lib/xcc//libgcc.a(_udivdi3.o)
 .debug_aranges
                0x00002748       0x20 /cad/tensilica/chips/peregrine/RE-2013.3-linux/peregrine/xtensa-elf/lib/xcc//libgcc.a(_umoddi3.o)
 .debug_aranges
                0x00002768       0x28 /cad/tensilica/chips/peregrine/RE-2013.3-linux/peregrine/xtensa-elf/lib/xcc//libgcc.a(lib2funcs.o)
 .debug_aranges
                0x00002790       0x20 protocol/src/tcpip/.output/AR6320/hw.3/lib/libtcpip.a(wlan_pb.o)
 .debug_aranges
                0x000027b0       0x20 protocol/src/tcpip/.output/AR6320/hw.3/lib/libtcpip.a(wlan_tcpip.o)
 .debug_aranges
                0x000027d0       0x20 mac_core/src/misc/serport/.output/AR6320/hw.3/lib/libserport.a(serial_if.o)
 .debug_aranges
                0x000027f0       0x20 mac_core/src/misc/serport/.output/AR6320/hw.3/lib/libserport.a(serial_port.o)
 .debug_aranges
                0x00002810       0x20 mac_core/src/misc/uartserp/.output/AR6320/hw.3/lib/libuartserp.a(uartserp.o)
 .debug_aranges
                0x00002830       0x20 mac_core/src/wal/AR/nan/.output/AR6320/hw.3/lib/ar_wal_nan.a(wal_nan_mac.o)
 .debug_aranges
                0x00002850       0x38 mac_core/src/wal/whal/rtt/.output/AR6320/hw.3/lib/whal_rtt.a(whal_rtt.o)

.debug_pubnames
                0x00000000    0x1f288
 *(.debug_pubnames)
 .debug_pubnames
                0x00000000       0x48 mac_core/patch/AR6320/v3/.output/AR6320/hw.3/obj/app_start.o
 .debug_pubnames
                0x00000048      0x2e6 protocol/src/init/.output/AR6320/hw.3/lib/libwlaninit.a(wlan_init.o)
 .debug_pubnames
                0x0000032e      0x1ad protocol/src/init/.output/AR6320/hw.3/lib/libwlaninit.a(wlan_peer.o)
 .debug_pubnames
                0x000004db       0x45 protocol/src/init/.output/AR6320/hw.3/lib/libwlaninit.a(umac_init.o)
 .debug_pubnames
                0x00000520       0x6e protocol/src/init/.output/AR6320/hw.3/lib/libwlaninit.a(wlan_bss.o)
 .debug_pubnames
                0x0000058e      0x1c2 protocol/src/init/.output/AR6320/hw.3/lib/libwlaninit.a(wlan_buf.o)
 .debug_pubnames
                0x00000750      0x240 protocol/src/init/.output/AR6320/hw.3/lib/libwlaninit.a(wlan_dev.o)
 .debug_pubnames
                0x00000990      0x258 mac_core/src/mac_core_init/.output/AR6320/hw.3/lib/libmaccoreinit.a(mac_core_init.o)
 .debug_pubnames
                0x00000be8       0x40 protocol/src/cfg/.output/AR6320/hw.3/lib/libcfg.a(cfg.o)
 .debug_pubnames
                0x00000c28     0x1622 mac_core/src/wal/AR/coex/.output/AR6320/hw.3/lib/wal_coex.a(wal_coex.o)
 .debug_pubnames
                0x0000224a     0x18b3 mac_core/src/wal/AR/coex/.output/AR6320/hw.3/lib/wal_coex.a(wal_btcoex.o)
 .debug_pubnames
                0x00003afd      0x894 mac_core/src/wal/AR/coex/.output/AR6320/hw.3/lib/wal_coex.a(wal_mwscoex.o)
 .debug_pubnames
                0x00004391       0xa9 mac_core/src/wal/AR/coex/.output/AR6320/hw.3/lib/wal_coex.a(wal_mwscoex_crc.o)
 .debug_pubnames
                0x0000443a      0x165 mac_core/src/wal/AR/coex/.output/AR6320/hw.3/lib/wal_coex.a(qmi_idl_lib.o)
 .debug_pubnames
                0x0000459f      0x13d mac_core/src/wal/AR/coex/.output/AR6320/hw.3/lib/wal_coex.a(qmi_idl_accessor.o)
 .debug_pubnames
                0x000046dc       0x5f mac_core/src/wal/AR/coex/.output/AR6320/hw.3/lib/wal_coex.a(coexistence_service_v02.o)
 .debug_pubnames
                0x0000473b       0x7c mac_core/src/wal/whal/ini/.output/AR6320/hw.3/lib/libwhalini.a(whalini.o)
 .debug_pubnames
                0x000047b7      0x141 mac_core/src/data_txrx/.output/AR6320/hw.3/lib/libdatatxrx.a(data_txrx.o)
 .debug_pubnames
                0x000048f8       0x61 mac_core/src/data_txrx/.output/AR6320/hw.3/lib/libdatatxrx.a(ieee80211_hdr.o)
 .debug_pubnames
                0x00004959      0x161 mac_core/src/data_txrx/.output/AR6320/hw.3/lib/libdatatxrx.a(data_rx.o)
 .debug_pubnames
                0x00004aba       0xc9 mac_core/src/data_txrx/.output/AR6320/hw.3/lib/libdatatxrx.a(data_rx_peer.o)
 .debug_pubnames
                0x00004b83       0x44 mac_core/src/data_txrx/.output/AR6320/hw.3/lib/libdatatxrx.a(data_rx_pn.o)
 .debug_pubnames
                0x00004bc7      0x209 mac_core/src/data_txrx/.output/AR6320/hw.3/lib/libdatatxrx.a(data_rx_reorder.o)
 .debug_pubnames
                0x00004dd0       0x74 protocol/src/mgmt_txrx/.output/AR6320/hw.3/lib/libmgmttxrx.a(ieee_mgmt_rx.o)
 .debug_pubnames
                0x00004e44      0x286 protocol/src/mgmt_txrx/.output/AR6320/hw.3/lib/libmgmttxrx.a(wlan_mgmt_local_txrx.o)
 .debug_pubnames
                0x000050ca      0x19c protocol/src/mgmt_txrx/.output/AR6320/hw.3/lib/libmgmttxrx.a(wlan_mgmt_txrx.o)
 .debug_pubnames
                0x00005266      0x37f protocol/src/vdev_mgr/.output/AR6320/hw.3/lib/libvdevmgr.a(wlan_vdev.o)
 .debug_pubnames
                0x000055e5      0x113 protocol/src/vdev_mgr/.output/AR6320/hw.3/lib/libvdevmgr.a(wlan_vdev_keepalive.o)
 .debug_pubnames
                0x000056f8      0x32f protocol/src/vdev_mgr/.output/AR6320/hw.3/lib/libvdevmgr.a(wlan_vdev_misc.o)
 .debug_pubnames
                0x00005a27      0x284 protocol/src/vdev_mgr/.output/AR6320/hw.3/lib/libvdevmgr.a(wlan_vdev_pause.o)
 .debug_pubnames
                0x00005cab      0x1da protocol/src/vdev_mgr/.output/AR6320/hw.3/lib/libvdevmgr.a(wlan_vdev_schedule.o)
 .debug_pubnames
                0x00005e85       0x4d protocol/src/key_mgmt/.output/AR6320/hw.3/lib/libkeymgmt.a(wlan_key_mgmt.o)
 .debug_pubnames
                0x00005ed2      0x6e3 mac_core/src/ratectrl/.output/AR6320/hw.3/lib/libratectrl_11ac.a(ratectrl_11ac.o)
 .debug_pubnames
                0x000065b5      0x293 mac_core/src/ratectrl/.output/AR6320/hw.3/lib/libratectrl_11ac.a(ratectrl_11ac_if.o)
 .debug_pubnames
                0x00006848       0x7b mac_core/src/ratectrl/.output/AR6320/hw.3/lib/libratectrl_11ac.a(ratectrl_peer_state.o)
 .debug_pubnames
                0x000068c3      0x262 protocol/src/rtt/.output/AR6320/hw.3/lib/librtt.a(wlan_rtt.o)
 .debug_pubnames
                0x00006b25       0xb2 protocol/src/phyerr/.output/AR6320/hw.3/lib/libphyerr.a(wlan_dfs_phyerr_filter.o)
 .debug_pubnames
                0x00006bd7       0xde protocol/src/phyerr/.output/AR6320/hw.3/lib/libphyerr.a(wlan_phyerr.o)
 .debug_pubnames
                0x00006cb5       0xf3 protocol/src/rfkill/.output/AR6320/hw.3/lib/librfkill.a(wlan_rfkill.o)
 .debug_pubnames
                0x00006da8       0x51 protocol/src/wmi/.output/AR6320/hw.3/lib/libumacwmi.a(umac_wmi_events.o)
 .debug_pubnames
                0x00006df9      0x2c0 protocol/src/wmi/.output/AR6320/hw.3/lib/libumacwmi.a(wlan_wmi.o)
 .debug_pubnames
                0x000070b9       0xb2 protocol/src/wmi/.output/AR6320/hw.3/lib/libumacwmi.a(wlan_wmi_events.o)
 .debug_pubnames
                0x0000716b       0x66 protocol/src/wmi/.output/AR6320/hw.3/lib/libumacwmi.a(wmi_gpiohook.o)
 .debug_pubnames
                0x000071d1      0x1ca protocol/src/wmi/.output/AR6320/hw.3/lib/libumacwmi.a(wmi_tlv_helper.o)
 .debug_pubnames
                0x0000739b       0x9a protocol/src/wmi/.output/AR6320/hw.3/lib/libumacwmi.a(umac_wmi.o)
 .debug_pubnames
                0x00007435      0x189 protocol/src/offload_mgr/.output/AR6320/hw.3/lib/liboffload_mgr.a(beacon_filter.o)
 .debug_pubnames
                0x000075be      0x1af protocol/src/offload_mgr/.output/AR6320/hw.3/lib/liboffload_mgr.a(csa_offload_main.o)
 .debug_pubnames
                0x0000776d      0x201 protocol/src/offload_mgr/.output/AR6320/hw.3/lib/liboffload_mgr.a(offload_mgr.o)
 .debug_pubnames
                0x0000796e       0xeb protocol/src/offload_mgr/.output/AR6320/hw.3/lib/liboffload_mgr.a(wlan_d0wow.o)
 .debug_pubnames
                0x00007a59      0x2e9 protocol/src/offload_mgr/.output/AR6320/hw.3/lib/liboffload_mgr.a(wlan_gtk_offload.o)
 .debug_pubnames
                0x00007d42      0x46d protocol/src/offload_mgr/.output/AR6320/hw.3/lib/liboffload_mgr.a(wlan_wow.o)
 .debug_pubnames
                0x000081af      0x84d protocol/src/mgmt/.output/AR6320/hw.3/lib/libmgmt.a(wlan_beacon.o)
 .debug_pubnames
                0x000089fc      0x210 protocol/src/mgmt/.output/AR6320/hw.3/lib/libmgmt.a(wlan_early_rx_sm.o)
 .debug_pubnames
                0x00008c0c       0x82 protocol/src/mgmt/.output/AR6320/hw.3/lib/libmgmt.a(wlan_ie_utils.o)
 .debug_pubnames
                0x00008c8e       0x3c protocol/src/mgmt/.output/AR6320/hw.3/lib/libmgmt.a(wlan_wnm.o)
 .debug_pubnames
                0x00008cca       0xc1 protocol/src/power/.output/AR6320/hw.3/lib/libpower.a(wlan_pm_arbiter.o)
 .debug_pubnames
                0x00008d8b       0x40 protocol/src/power/.output/AR6320/hw.3/lib/libpower.a(wlan_powersave.o)
 .debug_pubnames
                0x00008dcb      0x5f5 protocol/src/power/.output/AR6320/hw.3/lib/libpower.a(wlan_powersave_ap.o)
 .debug_pubnames
                0x000093c0      0x692 protocol/src/power/.output/AR6320/hw.3/lib/libpower.a(wlan_powersave_ibss.o)
 .debug_pubnames
                0x00009a52      0x118 protocol/src/power/.output/AR6320/hw.3/lib/libpower.a(wlan_powersave_ibss_nw_sm.o)
 .debug_pubnames
                0x00009b6a       0xd9 protocol/src/power/.output/AR6320/hw.3/lib/libpower.a(wlan_powersave_ibss_peer_ps_sm.o)
 .debug_pubnames
                0x00009c43      0x10d protocol/src/power/.output/AR6320/hw.3/lib/libpower.a(wlan_powersave_ibss_self_ps_sm.o)
 .debug_pubnames
                0x00009d50      0x4c0 protocol/src/power/.output/AR6320/hw.3/lib/libpower.a(wlan_powersave_sta.o)
 .debug_pubnames
                0x0000a210       0xbf protocol/src/power/.output/AR6320/hw.3/lib/libpower.a(wlan_powersave_sta_sm.o)
 .debug_pubnames
                0x0000a2cf       0xbc protocol/src/power/.output/AR6320/hw.3/lib/libpower.a(wlan_powersave_tdls.o)
 .debug_pubnames
                0x0000a38b       0x51 protocol/src/power/.output/AR6320/hw.3/lib/libpower.a(wlan_qpower.o)
 .debug_pubnames
                0x0000a3dc      0x673 protocol/src/power/smps/.output/AR6320/hw.3/lib/libsmps.a(wlan_smps.o)
 .debug_pubnames
                0x0000aa4f      0x3af protocol/src/power/smps/.output/AR6320/hw.3/lib/libsmps.a(wlan_smps_sm.o)
 .debug_pubnames
                0x0000adfe      0x127 protocol/src/resmgr/.output/AR6320/hw.3/lib/libresmgr.a(channel_mgr.o)
 .debug_pubnames
                0x0000af25      0x2b3 protocol/src/resmgr/.output/AR6320/hw.3/lib/libresmgr.a(resmgr.o)
 .debug_pubnames
                0x0000b1d8       0xf3 protocol/src/resmgr/.output/AR6320/hw.3/lib/libresmgr.a(resmgr_dyn_sch.o)
 .debug_pubnames
                0x0000b2cb      0x32d protocol/src/resmgr/.output/AR6320/hw.3/lib/libresmgr.a(resmgr_ocs.o)
 .debug_pubnames
                0x0000b5f8      0x56a protocol/src/resmgr/.output/AR6320/hw.3/lib/libresmgr.a(virtual_channel.o)
 .debug_pubnames
                0x0000bb62       0x40 protocol/src/resmgr/.output/AR6320/hw.3/lib/libresmgr.a(virtual_channel_arbiter.o)
 .debug_pubnames
                0x0000bba2      0x557 mac_core/src/hostif/htc/.output/AR6320/hw.3/lib/libhtc.a(htc.o)
 .debug_pubnames
                0x0000c0f9      0x534 mac_core/src/hostif/htt/.output/AR6320/hw.3/lib/libhtt.a(htt_tgt_hif_svc.o)
 .debug_pubnames
                0x0000c62d      0x2d3 mac_core/src/hostif/htt/.output/AR6320/hw.3/lib/libhtt.a(htt_tgt_rx.o)
 .debug_pubnames
                0x0000c900      0x31d mac_core/src/hostif/htt/.output/AR6320/hw.3/lib/libhtt.a(htt_tgt_rx_event.o)
 .debug_pubnames
                0x0000cc1d      0x136 mac_core/src/hostif/htt/.output/AR6320/hw.3/lib/libhtt.a(htt_tgt_stats.o)
 .debug_pubnames
                0x0000cd53      0x204 mac_core/src/hostif/htt/.output/AR6320/hw.3/lib/libhtt.a(htt_tgt_tx.o)
 .debug_pubnames
                0x0000cf57       0xb5 mac_core/src/utils/sm/.output/AR6320/hw.3/lib/libsm.a(sm.o)
 .debug_pubnames
                0x0000d00c      0xa07 protocol/src/coex/.output/AR6320/hw.3/lib/libcoex.a(coex.o)
 .debug_pubnames
                0x0000da13       0xd7 mac_core/src/hostif/wmisvc/.output/AR6320/hw.3/lib/libwmisvc.a(wmi_svc.o)
 .debug_pubnames
                0x0000daea       0x34 protocol/src/scan/.output/AR6320/hw.3/lib/libscan.a(wlan_dcs.o)
 .debug_pubnames
                0x0000db1e      0x298 protocol/src/scan/.output/AR6320/hw.3/lib/libscan.a(wlan_scan_sch.o)
 .debug_pubnames
                0x0000ddb6      0x1d3 protocol/src/scan/.output/AR6320/hw.3/lib/libscan.a(wlan_scan_sm.o)
 .debug_pubnames
                0x0000df89      0x156 protocol/src/scan/.output/AR6320/hw.3/lib/libscan.a(wlan_scan.o)
 .debug_pubnames
                0x0000e0df       0xd1 protocol/src/roam/.output/AR6320/hw.3/lib/libroam.a(wlan_roam.o)
 .debug_pubnames
                0x0000e1b0      0x27f protocol/src/roam/.output/AR6320/hw.3/lib/libroam.a(wlan_roam_internal.o)
 .debug_pubnames
                0x0000e42f       0x4f protocol/src/roam/.output/AR6320/hw.3/lib/libroam.a(wlan_roam_wmi.o)
 .debug_pubnames
                0x0000e47e      0x3d7 protocol/src/pps/.output/AR6320/hw.3/lib/libpps.a(wlan_pps.o)
 .debug_pubnames
                0x0000e855      0x5a1 protocol/src/stats/.output/AR6320/hw.3/lib/libstats.a(wlan_stats.o)
 .debug_pubnames
                0x0000edf6       0xd0 protocol/src/stats/.output/AR6320/hw.3/lib/libstats.a(wlan_estimate_linkspeed.o)
 .debug_pubnames
                0x0000eec6      0x47c mac_core/src/soc/pcielp/.output/AR6320/hw.3/lib/libpcielp.a(pcielp_core.o)
 .debug_pubnames
                0x0000f342      0x13f mac_core/src/soc/pcielp/.output/AR6320/hw.3/lib/libpcielp.a(pcielp_ltr.o)
 .debug_pubnames
                0x0000f481       0xaf mac_core/src/soc/pcielp/.output/AR6320/hw.3/lib/libpcielp.a(pcielp_dsleep.o)
 .debug_pubnames
                0x0000f530       0xe7 mac_core/src/soc/pcielp/.output/AR6320/hw.3/lib/libpcielp.a(pcielp_l1ss.o)
 .debug_pubnames
                0x0000f617       0x2c mac_core/src/soc/pcielp/.output/AR6320/hw.3/lib/libpcielp.a(pcielp_buffering.o)
 .debug_pubnames
                0x0000f643       0x79 mac_core/src/pktlog/.output/AR6320/hw.3/lib/libpktlog.a(pktlog.o)
 .debug_pubnames
                0x0000f6bc       0x97 protocol/src/tbd/.output/AR6320/hw.3/lib/libtbd.a(tbd.o)
 .debug_pubnames
                0x0000f753      0x332 protocol/src/p2p/.output/AR6320/hw.3/lib/libp2p.a(p2p_main.o)
 .debug_pubnames
                0x0000fa85       0x40 protocol/src/p2p/.output/AR6320/hw.3/lib/libp2p.a(p2p_parse.o)
 .debug_pubnames
                0x0000fac5      0x22f protocol/src/p2p/.output/AR6320/hw.3/lib/libp2p.a(p2p_schedules.o)
 .debug_pubnames
                0x0000fcf4      0x2b9 protocol/src/p2p/.output/AR6320/hw.3/lib/libp2p.a(p2p_go_ps.o)
 .debug_pubnames
                0x0000ffad      0x17f protocol/src/chatter/.output/AR6320/hw.3/lib/libchatter.a(wlan_chatter.o)
 .debug_pubnames
                0x0001012c      0x104 protocol/src/chatter/.output/AR6320/hw.3/lib/libchatter.a(wlan_coalescing.o)
 .debug_pubnames
                0x00010230      0x1b5 mac_core/src/retention/.output/AR6320/hw.3/lib/libretention.a(wlan_retention.o)
 .debug_pubnames
                0x000103e5       0xa0 mac_core/src/utils/buf_chunk/.output/AR6320/hw.3/lib/libbufchunk.a(buf_chunk_api.o)
 .debug_pubnames
                0x00010485      0x20e protocol/src/txbf/.output/AR6320/hw.3/lib/libtxbf.a(wlan_txbf.o)
 .debug_pubnames
                0x00010693      0x1db protocol/src/tdls/.output/AR6320/hw.3/lib/libtdls.a(wlan_tdls.o)
 .debug_pubnames
                0x0001086e      0x53c protocol/src/tdls/.output/AR6320/hw.3/lib/libtdls.a(wlan_tdls_peer.o)
 .debug_pubnames
                0x00010daa      0x15a protocol/src/tdls/.output/AR6320/hw.3/lib/libtdls.a(wlan_tdls_uapsd.o)
 .debug_pubnames
                0x00010f04       0xac protocol/src/tcpip/.output/AR6320/hw.3/lib/libtcpip.a(wlan_ipv6.o)
 .debug_pubnames
                0x00010fb0       0xc6 mac_core/src/misc/extend_alloc/.output/AR6320/hw.3/lib/libextendalloc.a(extend_allocate.o)
 .debug_pubnames
                0x00011076       0xb2 protocol/src/thermal_mgr/.output/AR6320/hw.3/lib/libthermalmgr.a(wlan_thermal_mgr.o)
 .debug_pubnames
                0x00011128       0x27 mac_core/src/wal/AR/init/.output/AR6320/hw.3/lib/ar_wal_init.a(ar_wal_init.o)
 .debug_pubnames
                0x0001114f       0x2b mac_core/src/wal/whal/init/.output/AR6320/hw.3/lib/libwhal_init.a(whal_init.o)
 .debug_pubnames
                0x0001117a       0xc9 mac_core/src/hostif/wdi_ipa/.output/AR6320/hw.3/lib/libwdi_ipa.a(wdi_ipa.o)
 .debug_pubnames
                0x00011243      0x21d mac_core/src/hostif/wdi_ipa/.output/AR6320/hw.3/lib/libwdi_ipa.a(wdi_ipa_rx.o)
 .debug_pubnames
                0x00011460      0x1a9 mac_core/src/hostif/wdi_ipa/.output/AR6320/hw.3/lib/libwdi_ipa.a(wdi_ipa_tx.o)
 .debug_pubnames
                0x00011609       0x56 mac_core/src/hostif/hif/hif_dbguart/.output/AR6320/hw.3/lib/lib_hif_dbguart.a(hif_dbguart_install.o)
 .debug_pubnames
                0x0001165f      0x2e7 mac_core/src/hostif/hif/hif_dbguart/.output/AR6320/hw.3/lib/lib_hif_dbguart.a(hif_dbguart.o)
 .debug_pubnames
                0x00011946       0x90 protocol/src/lpi/.output/AR6320/hw.3/lib/liblpi.a(wlan_lpi.o)
 .debug_pubnames
                0x000119d6      0x1a0 protocol/src/profile/.output/AR6320/hw.3/lib/libwlanprofile.a(wlan_profile.o)
 .debug_pubnames
                0x00011b76      0x30a protocol/src/offload/.output/AR6320/hw.3/lib/liboffload.a(wlan_arp_ns_offload.o)
 .debug_pubnames
                0x00011e80      0x4ae protocol/src/offload/.output/AR6320/hw.3/lib/liboffload.a(wlan_beacon_tx_offload.o)
 .debug_pubnames
                0x0001232e      0x1d8 protocol/src/offload/.output/AR6320/hw.3/lib/liboffload.a(wlan_network_list_offload.o)
 .debug_pubnames
                0x00012506      0x2fb protocol/src/offload/.output/AR6320/hw.3/lib/liboffload.a(wlan_swbmiss_offload.o)
 .debug_pubnames
                0x00012801      0x32a protocol/src/framegen/.output/AR6320/hw.3/lib/libframegen.a(wlan_framegen.o)
 .debug_pubnames
                0x00012b2b       0x2f protocol/src/offload_mgr/stub/.output/AR6320/hw.3/lib/liboffload_mgr_stub.a(offload_mgr_stub.o)
 .debug_pubnames
                0x00012b5a       0x31 protocol/src/offload_mgr/stub/.output/AR6320/hw.3/lib/liboffload_mgr_stub.a(wlan_wow_stub.o)
 .debug_pubnames
                0x00012b8b      0x144 mac_core/src/misc/codeswap/.output/AR6320/hw.3/lib/libcodeswap.a(codeswap.o)
 .debug_pubnames
                0x00012ccf       0x89 mac_core/src/misc/codeswap/.output/AR6320/hw.3/lib/libcodeswap.a(codeswap_dmamgr.o)
 .debug_pubnames
                0x00012d58       0x86 protocol/src/scan/stub/.output/AR6320/hw.3/lib/libscan_stub.a(wlan_scan_sch_stub.o)
 .debug_pubnames
                0x00012dde      0x3c2 protocol/src/blockack/.output/AR6320/hw.3/lib/libblockack.a(wlan_blockack.o)
 .debug_pubnames
                0x000131a0       0x29 protocol/src/init/stub/.output/AR6320/hw.3/lib/libwlaninit_stub.a(wlan_buf_stub.o)
 .debug_pubnames
                0x000131c9       0x30 protocol/src/init/stub/.output/AR6320/hw.3/lib/libwlaninit_stub.a(wlan_dev_stub.o)
 .debug_pubnames
                0x000131f9       0x2e protocol/src/init/stub/.output/AR6320/hw.3/lib/libwlaninit_stub.a(wlan_peer_stub.o)
 .debug_pubnames
                0x00013227       0x28 mac_core/src/data_txrx/stub/.output/AR6320/hw.3/lib/libdatatxrx_stub.a(ieee80211_hdr_stub.o)
 .debug_pubnames
                0x0001324f       0x28 protocol/src/vdev_mgr/stub/.output/AR6320/hw.3/lib/libvdevmgr_stub.a(wlan_vdev_stub.o)
 .debug_pubnames
                0x00013277       0x35 protocol/src/mgmt_txrx/stub/.output/AR6320/hw.3/lib/libmgmttxrx_stub.a(wlan_mgmt_local_txrx_stub.o)
 .debug_pubnames
                0x000132ac       0x2a protocol/src/mgmt_txrx/stub/.output/AR6320/hw.3/lib/libmgmttxrx_stub.a(ieee_mgmt_rx_stub.o)
 .debug_pubnames
                0x000132d6       0x34 protocol/src/mgmt/stub/.output/AR6320/hw.3/lib/libmgmt_stub.a(wlan_beacon_stub.o)
 .debug_pubnames
                0x0001330a       0x2b protocol/src/mgmt/stub/.output/AR6320/hw.3/lib/libmgmt_stub.a(wlan_ie_utils_stub.o)
 .debug_pubnames
                0x00013335       0x21 protocol/src/p2p/stub/.output/AR6320/hw.3/lib/libp2p_stub.a(p2p_stub.o)
 .debug_pubnames
                0x00013356      0x117 mac_core/src/wal/whal/reset/.output/AR6320/hw.3/lib/ar6000_cal.a(ar6320_cal.o)
 .debug_pubnames
                0x0001346d      0x232 mac_core/src/wal/whal/reset/.output/AR6320/hw.3/lib/ar6000_cal.a(ar6320_rxdc_cal.o)
 .debug_pubnames
                0x0001369f      0x223 mac_core/src/wal/whal/reset/.output/AR6320/hw.3/lib/ar6000_cal.a(ar6320_iq_cal.o)
 .debug_pubnames
                0x000138c2      0x136 mac_core/src/wal/whal/reset/.output/AR6320/hw.3/lib/ar6000_cal.a(ar6320_pef_cal.o)
 .debug_pubnames
                0x000139f8       0xad protocol/src/unit_test/.output/AR6320/hw.3/lib/libunittest.a(unit_test.o)
 .debug_pubnames
                0x00013aa5       0xde protocol/src/frameparse/.output/AR6320/hw.3/lib/libframeparse.a(wlan_frameparse.o)
 .debug_pubnames
                0x00013b83      0x223 protocol/src/nan/.output/AR6320/hw.3/lib/libnanwlan.a(wlan_nan.o)
 .debug_pubnames
                0x00013da6      0x2d4 protocol/src/nan/.output/AR6320/hw.3/lib/libnanwlan.a(wlan_nan_sync.o)
 .debug_pubnames
                0x0001407a      0x5ea protocol/src/nan/.output/AR6320/hw.3/lib/libnanwlan.a(wlan_nan_mac.o)
 .debug_pubnames
                0x00014664      0x1eb protocol/src/nan/.output/AR6320/hw.3/lib/libnanwlan.a(wlan_nan_publish.o)
 .debug_pubnames
                0x0001484f      0x1d1 protocol/src/nan/.output/AR6320/hw.3/lib/libnanwlan.a(wlan_nan_subscribe.o)
 .debug_pubnames
                0x00014a20      0x174 protocol/src/nan/.output/AR6320/hw.3/lib/libnanwlan.a(wlan_nan_ctrl.o)
 .debug_pubnames
                0x00014b94      0x3b6 protocol/src/nan/.output/AR6320/hw.3/lib/libnanwlan.a(wlan_nan_de_if.o)
 .debug_pubnames
                0x00014f4a       0xe6 protocol/src/nan/.output/AR6320/hw.3/lib/libnanwlan.a(wlan_nan_rx.o)
 .debug_pubnames
                0x00015030      0x19f protocol/src/nan/.output/AR6320/hw.3/lib/libnanwlan.a(wlan_nan_match.o)
 .debug_pubnames
                0x000151cf      0x19e protocol/src/nan/.output/AR6320/hw.3/lib/libnanwlan.a(wconn_util_list.o)
 .debug_pubnames
                0x0001536d      0x99c protocol/src/nan/.output/AR6320/hw.3/lib/libnanwlan.a(wlan_nan_attr.o)
 .debug_pubnames
                0x00015d09      0x14f protocol/src/nan/.output/AR6320/hw.3/lib/libnanwlan.a(wlan_nan_bloom_filter.o)
 .debug_pubnames
                0x00015e58       0x33 protocol/src/nan/.output/AR6320/hw.3/lib/libnanwlan.a(wlan_nan_crc.o)
 .debug_pubnames
                0x00015e8b       0x4f protocol/src/nan/.output/AR6320/hw.3/lib/libnanwlan.a(wlan_nan_log.o)
 .debug_pubnames
                0x00015eda       0x3d protocol/src/nan/.output/AR6320/hw.3/lib/libnanwlan.a(wlan_nan_time.o)
 .debug_pubnames
                0x00015f17       0x4d protocol/src/nan/.output/AR6320/hw.3/lib/libnanwlan.a(wlan_nan_tlv.o)
 .debug_pubnames
                0x00015f64       0xa1 protocol/src/nan/.output/AR6320/hw.3/lib/libnanwlan.a(wlan_nan_util.o)
 .debug_pubnames
                0x00016005       0xcd protocol/src/nan/.output/AR6320/hw.3/lib/libnanwlan.a(wlan_nan_beacon_ie.o)
 .debug_pubnames
                0x000160d2       0xc8 protocol/src/nan/.output/AR6320/hw.3/lib/libnanwlan.a(wlan_nan_beacon_rx.o)
 .debug_pubnames
                0x0001619a       0x89 protocol/src/nan/.output/AR6320/hw.3/lib/libnanwlan.a(wlan_nan_beacon_tx.o)
 .debug_pubnames
                0x00016223      0x1a5 protocol/src/nan/.output/AR6320/hw.3/lib/libnanwlan.a(wlan_nan_cluster_sm.o)
 .debug_pubnames
                0x000163c8       0xdb protocol/src/nan/.output/AR6320/hw.3/lib/libnanwlan.a(wlan_nan_scan.o)
 .debug_pubnames
                0x000164a3      0x3a1 protocol/src/nan/.output/AR6320/hw.3/lib/libnanwlan.a(wlan_nan_sched.o)
 .debug_pubnames
                0x00016844       0x79 protocol/src/nan/.output/AR6320/hw.3/lib/libnanwlan.a(sha2.o)
 .debug_pubnames
                0x000168bd      0x196 protocol/src/extscan/.output/AR6320/hw.3/lib/libextscan.a(wlan_extscan_main.o)
 .debug_pubnames
                0x00016a53      0x150 protocol/src/extscan/.output/AR6320/hw.3/lib/libextscan.a(wlan_extscan_wlan_change.o)
 .debug_pubnames
                0x00016ba3       0x4e protocol/src/extscan/.output/AR6320/hw.3/lib/libextscan.a(wlan_extscan_wmi.o)
 .debug_pubnames
                0x00016bf1      0x169 protocol/src/extscan/.output/AR6320/hw.3/lib/libextscan.a(wlan_extscan_bssid.o)
 .debug_pubnames
                0x00016d5a      0x145 protocol/src/extscan/.output/AR6320/hw.3/lib/libextscan.a(wlan_extscan_bucket.o)
 .debug_pubnames
                0x00016e9f       0xea protocol/src/extscan/.output/AR6320/hw.3/lib/libextscan.a(wlan_extscan_hotlist.o)
 .debug_pubnames
                0x00016f89      0x2ee mac_core/src/wal/AR/rtt/.output/AR6320/hw.3/lib/ar_wal_rtt.a(wal_rtt.o)
 .debug_pubnames
                0x00017277       0x41 mac_core/patch/AR6320/v3/.output/AR6320/hw.3/lib/lib_maccore_patches.a(install_patches.o)
 .debug_pubnames
                0x000172b8       0x46 mac_core/patch/AR6320/v3/.output/AR6320/hw.3/lib/lib_maccore_patches.a(whal_install_patches.o)
 .debug_pubnames
                0x000172fe       0x2a mac_core/patch/AR6320/v3/.output/AR6320/hw.3/lib/lib_maccore_patches.a(wal_install_patches.o)
 .debug_pubnames
                0x00017328      0x1b9 mac_core/patch/AR6320/v3/.output/AR6320/hw.3/lib/lib_maccore_patches.a(ar_wal_connection_pause_patch.o)
 .debug_pubnames
                0x000174e1      0x35e mac_core/patch/AR6320/v3/.output/AR6320/hw.3/lib/lib_maccore_patches.a(ar_wal_phy_dev_patch.o)
 .debug_pubnames
                0x0001783f      0x209 mac_core/patch/AR6320/v3/.output/AR6320/hw.3/lib/lib_maccore_patches.a(cmnos_retention_patch.o)
 .debug_pubnames
                0x00017a48      0x148 mac_core/patch/AR6320/v3/.output/AR6320/hw.3/lib/lib_maccore_patches.a(ar_wal_tx_de_patch.o)
 .debug_pubnames
                0x00017b90      0x122 mac_core/patch/AR6320/v3/.output/AR6320/hw.3/lib/lib_maccore_patches.a(ar_wal_local_frames_wifi_ip01_patch.o)
 .debug_pubnames
                0x00017cb2       0x7a mac_core/patch/AR6320/v3/.output/AR6320/hw.3/lib/lib_maccore_patches.a(pool_mgr_patch.o)
 .debug_pubnames
                0x00017d2c      0x617 mac_core/patch/AR6320/v3/.output/AR6320/hw.3/lib/lib_maccore_patches.a(ar_wal_rx_patch.o)
 .debug_pubnames
                0x00018343      0x225 mac_core/patch/AR6320/v3/.output/AR6320/hw.3/lib/lib_maccore_patches.a(ar_wal_rx_offload_patch.o)
 .debug_pubnames
                0x00018568      0x119 mac_core/patch/AR6320/v3/.output/AR6320/hw.3/lib/lib_maccore_patches.a(ar_wal_rx_common_patch.o)
 .debug_pubnames
                0x00018681      0x4aa mac_core/patch/AR6320/v3/.output/AR6320/hw.3/lib/lib_maccore_patches.a(ar_wal_vdev_patch.o)
 .debug_pubnames
                0x00018b2b       0x89 mac_core/patch/AR6320/v3/.output/AR6320/hw.3/lib/lib_maccore_patches.a(ar_tx_q_enque_patch.o)
 .debug_pubnames
                0x00018bb4      0x353 mac_core/patch/AR6320/v3/.output/AR6320/hw.3/lib/lib_maccore_patches.a(tx_sched_patch.o)
 .debug_pubnames
                0x00018f07      0x9c6 mac_core/patch/AR6320/v3/.output/AR6320/hw.3/lib/lib_maccore_patches.a(ar_wal_tx_send_patch.o)
 .debug_pubnames
                0x000198cd      0x10f mac_core/patch/AR6320/v3/.output/AR6320/hw.3/lib/lib_maccore_patches.a(ar_wal_chain_mgmt_patch.o)
 .debug_pubnames
                0x000199dc      0x58a mac_core/patch/AR6320/v3/.output/AR6320/hw.3/lib/lib_maccore_patches.a(ar_wal_peer_patch.o)
 .debug_pubnames
                0x00019f66      0x30b mac_core/patch/AR6320/v3/.output/AR6320/hw.3/lib/lib_maccore_patches.a(ar600P_txbf_patch.o)
 .debug_pubnames
                0x0001a271       0x4e mac_core/patch/AR6320/v3/.output/AR6320/hw.3/lib/lib_maccore_patches.a(wal_pps_patch.o)
 .debug_pubnames
                0x0001a2bf      0x1d3 mac_core/patch/AR6320/v3/.output/AR6320/hw.3/lib/lib_maccore_patches.a(ar_xmit_wifi_ip01_patch.o)
 .debug_pubnames
                0x0001a492       0xd2 mac_core/patch/AR6320/v3/.output/AR6320/hw.3/lib/lib_maccore_patches.a(ar_wal_channel_change_patch.o)
 .debug_pubnames
                0x0001a564      0x322 mac_core/patch/AR6320/v3/.output/AR6320/hw.3/lib/lib_maccore_patches.a(ar_wal_rc_patch.o)
 .debug_pubnames
                0x0001a886       0x2c mac_core/patch/AR6320/v3/.output/AR6320/hw.3/lib/lib_maccore_patches.a(wal_rtt_patch.o)
 .debug_pubnames
                0x0001a8b2       0x2d mac_core/patch/AR6320/v3/.output/AR6320/hw.3/lib/lib_maccore_patches.a(whal_rtt_patch.o)
 .debug_pubnames
                0x0001a8df      0x2e8 mac_core/patch/AR6320/v3/.output/AR6320/hw.3/lib/lib_maccore_patches.a(dbglog_patch.o)
 .debug_pubnames
                0x0001abc7       0x8d mac_core/patch/AR6320/v3/.output/AR6320/hw.3/lib/lib_maccore_patches.a(ar600p_beacon_patch.o)
 .debug_pubnames
                0x0001ac54      0x22a mac_core/patch/AR6320/v3/.output/AR6320/hw.3/lib/lib_maccore_patches.a(ar6000_power_patch.o)
 .debug_pubnames
                0x0001ae7e       0xb7 mac_core/patch/AR6320/v3/.output/AR6320/hw.3/lib/lib_maccore_patches.a(ar6000_interrupt_patch.o)
 .debug_pubnames
                0x0001af35      0x1c7 mac_core/patch/AR6320/v3/.output/AR6320/hw.3/lib/lib_maccore_patches.a(cmnos_intrinf_patch.o)
 .debug_pubnames
                0x0001b0fc      0x11c mac_core/patch/AR6320/v3/.output/AR6320/hw.3/lib/lib_maccore_patches.a(patch_pcie.o)
 .debug_pubnames
                0x0001b218      0x240 mac_core/patch/AR6320/v3/.output/AR6320/hw.3/lib/lib_maccore_patches.a(patch_usb.o)
 .debug_pubnames
                0x0001b458       0xa0 mac_core/patch/AR6320/v3/.output/AR6320/hw.3/lib/lib_maccore_patches.a(wal_beacon_patch.o)
 .debug_pubnames
                0x0001b4f8       0x6c mac_core/patch/AR6320/v3/.output/AR6320/hw.3/lib/lib_maccore_patches.a(wal_swba_patch.o)
 .debug_pubnames
                0x0001b564      0x369 mac_core/patch/AR6320/v3/.output/AR6320/hw.3/lib/lib_maccore_patches.a(ar600P_retention_patch.o)
 .debug_pubnames
                0x0001b8cd       0x5f mac_core/patch/AR6320/v3/.output/AR6320/hw.3/lib/lib_maccore_patches.a(ar_wal_rmc_patch.o)
 .debug_pubnames
                0x0001b92c       0xdc mac_core/patch/AR6320/v3/.output/AR6320/hw.3/lib/lib_maccore_patches.a(whal_rgc_patch.o)
 .debug_pubnames
                0x0001ba08      0x10f mac_core/patch/AR6320/v3/.output/AR6320/hw.3/lib/lib_maccore_patches.a(patch_hif_ce.o)
 .debug_pubnames
                0x0001bb17      0x24d mac_core/patch/AR6320/v3/.output/AR6320/hw.3/lib/lib_maccore_patches.a(patch_whal_coex.o)
 .debug_pubnames
                0x0001bd64       0x88 mac_core/patch/AR6320/v3/.output/AR6320/hw.3/lib/lib_maccore_patches.a(patch_whal_mws.o)
 .debug_pubnames
                0x0001bdec      0x120 mac_core/patch/AR6320/v3/.output/AR6320/hw.3/lib/lib_maccore_patches.a(patch_whal_mci.o)
 .debug_pubnames
                0x0001bf0c       0xa0 mac_core/patch/AR6320/v3/.output/AR6320/hw.3/lib/lib_maccore_patches.a(ar_wal_tx_dm_patch.o)
 .debug_pubnames
                0x0001bfac      0x1ed mac_core/patch/AR6320/v3/.output/AR6320/hw.3/lib/lib_maccore_patches.a(patch_copy_engine.o)
 .debug_pubnames
                0x0001c199       0x58 mac_core/patch/AR6320/v3/.output/AR6320/hw.3/lib/lib_maccore_patches.a(wal_concurrency_patch.o)
 .debug_pubnames
                0x0001c1f1      0x11d mac_core/patch/AR6320/v3/.output/AR6320/hw.3/lib/lib_maccore_patches.a(ar_wal_tdls_patch.o)
 .debug_pubnames
                0x0001c30e       0xbd mac_core/patch/AR6320/v3/.output/AR6320/hw.3/lib/lib_maccore_patches.a(cmnos_timer_patch.o)
 .debug_pubnames
                0x0001c3cb       0x65 mac_core/patch/AR6320/v3/.output/AR6320/hw.3/lib/lib_maccore_patches.a(ar_wal_tx_hcm_patch.o)
 .debug_pubnames
                0x0001c430      0x195 mac_core/patch/AR6320/v3/.output/AR6320/hw.3/lib/lib_maccore_patches.a(ar_wal_tdls_conn_table_patch.o)
 .debug_pubnames
                0x0001c5c5       0xd7 mac_core/patch/AR6320/v3/.output/AR6320/hw.3/lib/lib_maccore_patches.a(ar600P_recv_patch.o)
 .debug_pubnames
                0x0001c69c       0x3d mac_core/patch/AR6320/v3/.output/AR6320/hw.3/lib/lib_maccore_patches.a(patch_gpio.o)
 .debug_pubnames
                0x0001c6d9       0x86 mac_core/patch/AR6320/v3/.output/AR6320/hw.3/lib/lib_maccore_patches.a(os_install_wlan_extra_memory_patches.o)
 .debug_pubnames
                0x0001c75f      0x10f mac_core/patch/AR6320/v3/.output/AR6320/hw.3/lib/lib_maccore_patches.a(patch_athos_main.o)
 .debug_pubnames
                0x0001c86e      0x182 mac_core/patch/AR6320/v3/.output/AR6320/hw.3/lib/lib_maccore_patches.a(cmnos_misc_patch.o)
 .debug_pubnames
                0x0001c9f0       0x3c mac_core/patch/AR6320/v3/.output/AR6320/hw.3/lib/lib_maccore_patches.a(sha1_patch.o)
 .debug_pubnames
                0x0001ca2c       0x35 mac_core/patch/AR6320/v3/.output/AR6320/hw.3/lib/lib_maccore_patches.a(qheap_patch.o)
 .debug_pubnames
                0x0001ca61       0x4b mac_core/patch/AR6320/v3/.output/AR6320/hw.3/lib/lib_maccore_patches.a(patch_hif_sdio.o)
 .debug_pubnames
                0x0001caac       0xb5 mac_core/patch/AR6320/v3/.output/AR6320/hw.3/lib/lib_maccore_patches.a(ar_wal_txbf_patch.o)
 .debug_pubnames
                0x0001cb61       0x80 mac_core/patch/AR6320/v3/.output/AR6320/hw.3/lib/lib_maccore_patches.a(wmi_dbgloghook_patch.o)
 .debug_pubnames
                0x0001cbe1       0xc6 mac_core/patch/AR6320/v3/.output/AR6320/hw.3/lib/lib_maccore_patches.a(cmnos_allocram_patch.o)
 .debug_pubnames
                0x0001cca7      0x743 protocol/src/extwow/.output/AR6320/hw.3/lib/libextwow.a(wlan_extwow.o)
 .debug_pubnames
                0x0001d3ea       0x2d halphy/patch/AR6320/v3/.output/AR6320/hw.3/lib/lib_halphy_patches.a(halphy_install_patches.o)
 .debug_pubnames
                0x0001d417      0x19a halphy/patch/AR6320/v3/.output/AR6320/hw.3/lib/lib_halphy_patches.a(ar6000_nf_cal_patch.o)
 .debug_pubnames
                0x0001d5b1      0x199 halphy/patch/AR6320/v3/.output/AR6320/hw.3/lib/lib_halphy_patches.a(ar6000_ani_patch.o)
 .debug_pubnames
                0x0001d74a       0xea halphy/patch/AR6320/v3/.output/AR6320/hw.3/lib/lib_halphy_patches.a(ar6320_ini_patch.o)
 .debug_pubnames
                0x0001d834      0x271 halphy/patch/AR6320/v3/.output/AR6320/hw.3/lib/lib_halphy_patches.a(ar6320_tpc_config_patch.o)
 .debug_pubnames
                0x0001daa5      0x49b halphy/patch/AR6320/v3/.output/AR6320/hw.3/lib/lib_halphy_patches.a(ar6320_eeprom_patch.o)
 .debug_pubnames
                0x0001df40      0x3b5 halphy/patch/AR6320/v3/.output/AR6320/hw.3/lib/lib_halphy_patches.a(ar600P_reset_patch.o)
 .debug_pubnames
                0x0001e2f5      0x448 halphy/patch/AR6320/v3/.output/AR6320/hw.3/lib/lib_halphy_patches.a(ar6000_paprd_patch.o)
 .debug_pubnames
                0x0001e73d       0x48 halphy/patch/AR6320/v3/.output/AR6320/hw.3/lib/lib_halphy_patches.a(ar6000_phy_patch.o)
 .debug_pubnames
                0x0001e785       0x1f /cad/tensilica/chips/peregrine/RE-2013.3-linux/peregrine/xtensa-elf/lib/xcc//libgcc.a(_muldi3.o)
 .debug_pubnames
                0x0001e7a4       0x20 /cad/tensilica/chips/peregrine/RE-2013.3-linux/peregrine/xtensa-elf/lib/xcc//libgcc.a(_udivdi3.o)
 .debug_pubnames
                0x0001e7c4       0x20 /cad/tensilica/chips/peregrine/RE-2013.3-linux/peregrine/xtensa-elf/lib/xcc//libgcc.a(_umoddi3.o)
 .debug_pubnames
                0x0001e7e4       0x90 protocol/src/tcpip/.output/AR6320/hw.3/lib/libtcpip.a(wlan_pb.o)
 .debug_pubnames
                0x0001e874       0xc2 protocol/src/tcpip/.output/AR6320/hw.3/lib/libtcpip.a(wlan_tcpip.o)
 .debug_pubnames
                0x0001e936       0xd2 mac_core/src/misc/serport/.output/AR6320/hw.3/lib/libserport.a(serial_if.o)
 .debug_pubnames
                0x0001ea08       0x67 mac_core/src/misc/serport/.output/AR6320/hw.3/lib/libserport.a(serial_port.o)
 .debug_pubnames
                0x0001ea6f      0x1f0 mac_core/src/misc/uartserp/.output/AR6320/hw.3/lib/libuartserp.a(uartserp.o)
 .debug_pubnames
                0x0001ec5f      0x20d mac_core/src/wal/AR/nan/.output/AR6320/hw.3/lib/ar_wal_nan.a(wal_nan_mac.o)
 .debug_pubnames
                0x0001ee6c      0x41c mac_core/src/wal/whal/rtt/.output/AR6320/hw.3/lib/whal_rtt.a(whal_rtt.o)

.debug_info     0x00000000  0x1603a3b
 *(.debug_info)
 .debug_info    0x00000000     0xb136 mac_core/patch/AR6320/v3/.output/AR6320/hw.3/obj/app_start.o
 .debug_info    0x0000b136    0x28844 protocol/src/init/.output/AR6320/hw.3/lib/libwlaninit.a(wlan_init.o)
 .debug_info    0x0003397a    0x1f367 protocol/src/init/.output/AR6320/hw.3/lib/libwlaninit.a(wlan_peer.o)
 .debug_info    0x00052ce1    0x1f1de protocol/src/init/.output/AR6320/hw.3/lib/libwlaninit.a(umac_init.o)
 .debug_info    0x00071ebf    0x14fcb protocol/src/init/.output/AR6320/hw.3/lib/libwlaninit.a(wlan_bss.o)
 .debug_info    0x00086e8a    0x1971c protocol/src/init/.output/AR6320/hw.3/lib/libwlaninit.a(wlan_buf.o)
 .debug_info    0x000a05a6    0x234ef protocol/src/init/.output/AR6320/hw.3/lib/libwlaninit.a(wlan_dev.o)
 .debug_info    0x000c3a95    0x1d5d4 mac_core/src/mac_core_init/.output/AR6320/hw.3/lib/libmaccoreinit.a(mac_core_init.o)
 .debug_info    0x000e1069    0x14e1e protocol/src/cfg/.output/AR6320/hw.3/lib/libcfg.a(cfg.o)
 .debug_info    0x000f5e87    0x24e6e mac_core/src/wal/AR/coex/.output/AR6320/hw.3/lib/wal_coex.a(wal_coex.o)
 .debug_info    0x0011acf5    0x2191b mac_core/src/wal/AR/coex/.output/AR6320/hw.3/lib/wal_coex.a(wal_btcoex.o)
 .debug_info    0x0013c610    0x1ecdc mac_core/src/wal/AR/coex/.output/AR6320/hw.3/lib/wal_coex.a(wal_mwscoex.o)
 .debug_info    0x0015b2ec    0x10996 mac_core/src/wal/AR/coex/.output/AR6320/hw.3/lib/wal_coex.a(wal_mwscoex_crc.o)
 .debug_info    0x0016bc82    0x11aa1 mac_core/src/wal/AR/coex/.output/AR6320/hw.3/lib/wal_coex.a(qmi_idl_lib.o)
 .debug_info    0x0017d723    0x110f4 mac_core/src/wal/AR/coex/.output/AR6320/hw.3/lib/wal_coex.a(qmi_idl_accessor.o)
 .debug_info    0x0018e817    0x11756 mac_core/src/wal/AR/coex/.output/AR6320/hw.3/lib/wal_coex.a(coexistence_service_v02.o)
 .debug_info    0x0019ff6d     0x7d39 mac_core/src/wal/whal/ini/.output/AR6320/hw.3/lib/libwhalini.a(whalini.o)
 .debug_info    0x001a7ca6    0x1bcfb mac_core/src/data_txrx/.output/AR6320/hw.3/lib/libdatatxrx.a(data_txrx.o)
 .debug_info    0x001c39a1    0x15076 mac_core/src/data_txrx/.output/AR6320/hw.3/lib/libdatatxrx.a(ieee80211_hdr.o)
 .debug_info    0x001d8a17    0x2135b mac_core/src/data_txrx/.output/AR6320/hw.3/lib/libdatatxrx.a(data_rx.o)
 .debug_info    0x001f9d72    0x1b436 mac_core/src/data_txrx/.output/AR6320/hw.3/lib/libdatatxrx.a(data_rx_peer.o)
 .debug_info    0x002151a8    0x10e3e mac_core/src/data_txrx/.output/AR6320/hw.3/lib/libdatatxrx.a(data_rx_pn.o)
 .debug_info    0x00225fe6    0x1e8f5 mac_core/src/data_txrx/.output/AR6320/hw.3/lib/libdatatxrx.a(data_rx_reorder.o)
 .debug_info    0x002448db    0x14fa5 protocol/src/mgmt_txrx/.output/AR6320/hw.3/lib/libmgmttxrx.a(ieee_mgmt_rx.o)
 .debug_info    0x00259880    0x1b71d protocol/src/mgmt_txrx/.output/AR6320/hw.3/lib/libmgmttxrx.a(wlan_mgmt_local_txrx.o)
 .debug_info    0x00274f9d    0x1b769 protocol/src/mgmt_txrx/.output/AR6320/hw.3/lib/libmgmttxrx.a(wlan_mgmt_txrx.o)
 .debug_info    0x00290706    0x2cfc6 protocol/src/vdev_mgr/.output/AR6320/hw.3/lib/libvdevmgr.a(wlan_vdev.o)
 .debug_info    0x002bd6cc    0x21caa protocol/src/vdev_mgr/.output/AR6320/hw.3/lib/libvdevmgr.a(wlan_vdev_keepalive.o)
 .debug_info    0x002df376    0x22fa7 protocol/src/vdev_mgr/.output/AR6320/hw.3/lib/libvdevmgr.a(wlan_vdev_misc.o)
 .debug_info    0x0030231d    0x1ed84 protocol/src/vdev_mgr/.output/AR6320/hw.3/lib/libvdevmgr.a(wlan_vdev_pause.o)
 .debug_info    0x003210a1    0x1e52f protocol/src/vdev_mgr/.output/AR6320/hw.3/lib/libvdevmgr.a(wlan_vdev_schedule.o)
 .debug_info    0x0033f5d0    0x15d73 protocol/src/key_mgmt/.output/AR6320/hw.3/lib/libkeymgmt.a(wlan_key_mgmt.o)
 .debug_info    0x00355343    0x1d20f mac_core/src/ratectrl/.output/AR6320/hw.3/lib/libratectrl_11ac.a(ratectrl_11ac.o)
 .debug_info    0x00372552    0x1cd2f mac_core/src/ratectrl/.output/AR6320/hw.3/lib/libratectrl_11ac.a(ratectrl_11ac_if.o)
 .debug_info    0x0038f281    0x18f6c mac_core/src/ratectrl/.output/AR6320/hw.3/lib/libratectrl_11ac.a(ratectrl_peer_state.o)
 .debug_info    0x003a81ed    0x1c67f protocol/src/rtt/.output/AR6320/hw.3/lib/librtt.a(wlan_rtt.o)
 .debug_info    0x003c486c    0x12157 protocol/src/phyerr/.output/AR6320/hw.3/lib/libphyerr.a(wlan_dfs_phyerr_filter.o)
 .debug_info    0x003d69c3    0x1acd7 protocol/src/phyerr/.output/AR6320/hw.3/lib/libphyerr.a(wlan_phyerr.o)
 .debug_info    0x003f169a    0x1593d protocol/src/rfkill/.output/AR6320/hw.3/lib/librfkill.a(wlan_rfkill.o)
 .debug_info    0x00406fd7    0x19b46 protocol/src/wmi/.output/AR6320/hw.3/lib/libumacwmi.a(umac_wmi_events.o)
 .debug_info    0x00420b1d    0x1875c protocol/src/wmi/.output/AR6320/hw.3/lib/libumacwmi.a(wlan_wmi.o)
 .debug_info    0x00439279    0x19b74 protocol/src/wmi/.output/AR6320/hw.3/lib/libumacwmi.a(wlan_wmi_events.o)
 .debug_info    0x00452ded    0x15d25 protocol/src/wmi/.output/AR6320/hw.3/lib/libumacwmi.a(wmi_gpiohook.o)
 .debug_info    0x00468b12     0x8a67 protocol/src/wmi/.output/AR6320/hw.3/lib/libumacwmi.a(wmi_tlv_helper.o)
 .debug_info    0x00471579    0x1637c protocol/src/wmi/.output/AR6320/hw.3/lib/libumacwmi.a(umac_wmi.o)
 .debug_info    0x004878f5    0x17424 protocol/src/offload_mgr/.output/AR6320/hw.3/lib/liboffload_mgr.a(beacon_filter.o)
 .debug_info    0x0049ed19    0x1cb4c protocol/src/offload_mgr/.output/AR6320/hw.3/lib/liboffload_mgr.a(csa_offload_main.o)
 .debug_info    0x004bb865    0x1b782 protocol/src/offload_mgr/.output/AR6320/hw.3/lib/liboffload_mgr.a(offload_mgr.o)
 .debug_info    0x004d6fe7    0x184fe protocol/src/offload_mgr/.output/AR6320/hw.3/lib/liboffload_mgr.a(wlan_d0wow.o)
 .debug_info    0x004ef4e5    0x1a590 protocol/src/offload_mgr/.output/AR6320/hw.3/lib/liboffload_mgr.a(wlan_gtk_offload.o)
 .debug_info    0x00509a75    0x1eeda protocol/src/offload_mgr/.output/AR6320/hw.3/lib/liboffload_mgr.a(wlan_wow.o)
 .debug_info    0x0052894f    0x1e508 protocol/src/mgmt/.output/AR6320/hw.3/lib/libmgmt.a(wlan_beacon.o)
 .debug_info    0x00546e57    0x1d27c protocol/src/mgmt/.output/AR6320/hw.3/lib/libmgmt.a(wlan_early_rx_sm.o)
 .debug_info    0x005640d3    0x1514f protocol/src/mgmt/.output/AR6320/hw.3/lib/libmgmt.a(wlan_ie_utils.o)
 .debug_info    0x00579222    0x16074 protocol/src/mgmt/.output/AR6320/hw.3/lib/libmgmt.a(wlan_wnm.o)
 .debug_info    0x0058f296    0x16cf7 protocol/src/power/.output/AR6320/hw.3/lib/libpower.a(wlan_pm_arbiter.o)
 .debug_info    0x005a5f8d    0x17d25 protocol/src/power/.output/AR6320/hw.3/lib/libpower.a(wlan_powersave.o)
 .debug_info    0x005bdcb2    0x1eef4 protocol/src/power/.output/AR6320/hw.3/lib/libpower.a(wlan_powersave_ap.o)
 .debug_info    0x005dcba6    0x20d62 protocol/src/power/.output/AR6320/hw.3/lib/libpower.a(wlan_powersave_ibss.o)
 .debug_info    0x005fd908    0x1c3cb protocol/src/power/.output/AR6320/hw.3/lib/libpower.a(wlan_powersave_ibss_nw_sm.o)
 .debug_info    0x00619cd3    0x16f5d protocol/src/power/.output/AR6320/hw.3/lib/libpower.a(wlan_powersave_ibss_peer_ps_sm.o)
 .debug_info    0x00630c30    0x1920d protocol/src/power/.output/AR6320/hw.3/lib/libpower.a(wlan_powersave_ibss_self_ps_sm.o)
 .debug_info    0x00649e3d    0x1c926 protocol/src/power/.output/AR6320/hw.3/lib/libpower.a(wlan_powersave_sta.o)
 .debug_info    0x00666763    0x1d2f4 protocol/src/power/.output/AR6320/hw.3/lib/libpower.a(wlan_powersave_sta_sm.o)
 .debug_info    0x00683a57    0x171ae protocol/src/power/.output/AR6320/hw.3/lib/libpower.a(wlan_powersave_tdls.o)
 .debug_info    0x0069ac05    0x1616f protocol/src/power/.output/AR6320/hw.3/lib/libpower.a(wlan_qpower.o)
 .debug_info    0x006b0d74    0x1f630 protocol/src/power/smps/.output/AR6320/hw.3/lib/libsmps.a(wlan_smps.o)
 .debug_info    0x006d03a4    0x140b9 protocol/src/power/smps/.output/AR6320/hw.3/lib/libsmps.a(wlan_smps_sm.o)
 .debug_info    0x006e445d    0x182d7 protocol/src/resmgr/.output/AR6320/hw.3/lib/libresmgr.a(channel_mgr.o)
 .debug_info    0x006fc734    0x190ca protocol/src/resmgr/.output/AR6320/hw.3/lib/libresmgr.a(resmgr.o)
 .debug_info    0x007157fe    0x192b4 protocol/src/resmgr/.output/AR6320/hw.3/lib/libresmgr.a(resmgr_dyn_sch.o)
 .debug_info    0x0072eab2    0x1a998 protocol/src/resmgr/.output/AR6320/hw.3/lib/libresmgr.a(resmgr_ocs.o)
 .debug_info    0x0074944a    0x1ef39 protocol/src/resmgr/.output/AR6320/hw.3/lib/libresmgr.a(virtual_channel.o)
 .debug_info    0x00768383    0x12a40 protocol/src/resmgr/.output/AR6320/hw.3/lib/libresmgr.a(virtual_channel_arbiter.o)
 .debug_info    0x0077adc3     0xb23e mac_core/src/hostif/htc/.output/AR6320/hw.3/lib/libhtc.a(htc.o)
 .debug_info    0x00786001    0x18f89 mac_core/src/hostif/htt/.output/AR6320/hw.3/lib/libhtt.a(htt_tgt_hif_svc.o)
 .debug_info    0x0079ef8a    0x1c1fd mac_core/src/hostif/htt/.output/AR6320/hw.3/lib/libhtt.a(htt_tgt_rx.o)
 .debug_info    0x007bb187    0x1988b mac_core/src/hostif/htt/.output/AR6320/hw.3/lib/libhtt.a(htt_tgt_rx_event.o)
 .debug_info    0x007d4a12    0x18dab mac_core/src/hostif/htt/.output/AR6320/hw.3/lib/libhtt.a(htt_tgt_stats.o)
 .debug_info    0x007ed7bd    0x1c2e4 mac_core/src/hostif/htt/.output/AR6320/hw.3/lib/libhtt.a(htt_tgt_tx.o)
 .debug_info    0x00809aa1     0x83d8 mac_core/src/utils/sm/.output/AR6320/hw.3/lib/libsm.a(sm.o)
 .debug_info    0x00811e79    0x2ca85 protocol/src/coex/.output/AR6320/hw.3/lib/libcoex.a(coex.o)
 .debug_info    0x0083e8fe     0x9157 mac_core/src/hostif/wmisvc/.output/AR6320/hw.3/lib/libwmisvc.a(wmi_svc.o)
 .debug_info    0x00847a55    0x15541 protocol/src/scan/.output/AR6320/hw.3/lib/libscan.a(wlan_dcs.o)
 .debug_info    0x0085cf96    0x19e18 protocol/src/scan/.output/AR6320/hw.3/lib/libscan.a(wlan_scan_sch.o)
 .debug_info    0x00876dae    0x20e3a protocol/src/scan/.output/AR6320/hw.3/lib/libscan.a(wlan_scan_sm.o)
 .debug_info    0x00897be8    0x1b1d5 protocol/src/scan/.output/AR6320/hw.3/lib/libscan.a(wlan_scan.o)
 .debug_info    0x008b2dbd    0x19054 protocol/src/roam/.output/AR6320/hw.3/lib/libroam.a(wlan_roam.o)
 .debug_info    0x008cbe11    0x1ae91 protocol/src/roam/.output/AR6320/hw.3/lib/libroam.a(wlan_roam_internal.o)
 .debug_info    0x008e6ca2    0x17b90 protocol/src/roam/.output/AR6320/hw.3/lib/libroam.a(wlan_roam_wmi.o)
 .debug_info    0x008fe832    0x1ea00 protocol/src/pps/.output/AR6320/hw.3/lib/libpps.a(wlan_pps.o)
 .debug_info    0x0091d232    0x23b34 protocol/src/stats/.output/AR6320/hw.3/lib/libstats.a(wlan_stats.o)
 .debug_info    0x00940d66    0x1b6dd protocol/src/stats/.output/AR6320/hw.3/lib/libstats.a(wlan_estimate_linkspeed.o)
 .debug_info    0x0095c443    0x1a306 mac_core/src/soc/pcielp/.output/AR6320/hw.3/lib/libpcielp.a(pcielp_core.o)
 .debug_info    0x00976749     0x80e1 mac_core/src/soc/pcielp/.output/AR6320/hw.3/lib/libpcielp.a(pcielp_ltr.o)
 .debug_info    0x0097e82a     0x7d02 mac_core/src/soc/pcielp/.output/AR6320/hw.3/lib/libpcielp.a(pcielp_dsleep.o)
 .debug_info    0x0098652c     0x7e8b mac_core/src/soc/pcielp/.output/AR6320/hw.3/lib/libpcielp.a(pcielp_l1ss.o)
 .debug_info    0x0098e3b7     0x7abe mac_core/src/soc/pcielp/.output/AR6320/hw.3/lib/libpcielp.a(pcielp_buffering.o)
 .debug_info    0x00995e75    0x1b254 mac_core/src/pktlog/.output/AR6320/hw.3/lib/libpktlog.a(pktlog.o)
 .debug_info    0x009b10c9    0x18c7b protocol/src/tbd/.output/AR6320/hw.3/lib/libtbd.a(tbd.o)
 .debug_info    0x009c9d44    0x2045a protocol/src/p2p/.output/AR6320/hw.3/lib/libp2p.a(p2p_main.o)
 .debug_info    0x009ea19e    0x16d6e protocol/src/p2p/.output/AR6320/hw.3/lib/libp2p.a(p2p_parse.o)
 .debug_info    0x00a00f0c    0x1ec9c protocol/src/p2p/.output/AR6320/hw.3/lib/libp2p.a(p2p_schedules.o)
 .debug_info    0x00a1fba8    0x1a133 protocol/src/p2p/.output/AR6320/hw.3/lib/libp2p.a(p2p_go_ps.o)
 .debug_info    0x00a39cdb    0x19bcb protocol/src/chatter/.output/AR6320/hw.3/lib/libchatter.a(wlan_chatter.o)
 .debug_info    0x00a538a6    0x11aa3 protocol/src/chatter/.output/AR6320/hw.3/lib/libchatter.a(wlan_coalescing.o)
 .debug_info    0x00a65349    0x10085 mac_core/src/retention/.output/AR6320/hw.3/lib/libretention.a(wlan_retention.o)
 .debug_info    0x00a753ce     0x7f2b mac_core/src/utils/buf_chunk/.output/AR6320/hw.3/lib/libbufchunk.a(buf_chunk_api.o)
 .debug_info    0x00a7d2f9    0x1ce9c protocol/src/txbf/.output/AR6320/hw.3/lib/libtxbf.a(wlan_txbf.o)
 .debug_info    0x00a9a195    0x1bf73 protocol/src/tdls/.output/AR6320/hw.3/lib/libtdls.a(wlan_tdls.o)
 .debug_info    0x00ab6108    0x24287 protocol/src/tdls/.output/AR6320/hw.3/lib/libtdls.a(wlan_tdls_peer.o)
 .debug_info    0x00ada38f    0x1c689 protocol/src/tdls/.output/AR6320/hw.3/lib/libtdls.a(wlan_tdls_uapsd.o)
 .debug_info    0x00af6a18     0x8203 protocol/src/tcpip/.output/AR6320/hw.3/lib/libtcpip.a(wlan_ipv6.o)
 .debug_info    0x00afec1b     0x80e6 mac_core/src/misc/extend_alloc/.output/AR6320/hw.3/lib/libextendalloc.a(extend_allocate.o)
 .debug_info    0x00b06d01    0x15d58 protocol/src/thermal_mgr/.output/AR6320/hw.3/lib/libthermalmgr.a(wlan_thermal_mgr.o)
 .debug_info    0x00b1ca59     0xfcf5 mac_core/src/wal/AR/init/.output/AR6320/hw.3/lib/ar_wal_init.a(ar_wal_init.o)
 .debug_info    0x00b2c74e     0x9b6a mac_core/src/wal/whal/init/.output/AR6320/hw.3/lib/libwhal_init.a(whal_init.o)
 .debug_info    0x00b362b8    0x12599 mac_core/src/hostif/wdi_ipa/.output/AR6320/hw.3/lib/libwdi_ipa.a(wdi_ipa.o)
 .debug_info    0x00b48851    0x17933 mac_core/src/hostif/wdi_ipa/.output/AR6320/hw.3/lib/libwdi_ipa.a(wdi_ipa_rx.o)
 .debug_info    0x00b60184    0x1b49a mac_core/src/hostif/wdi_ipa/.output/AR6320/hw.3/lib/libwdi_ipa.a(wdi_ipa_tx.o)
 .debug_info    0x00b7b61e     0x7ebc mac_core/src/hostif/hif/hif_dbguart/.output/AR6320/hw.3/lib/lib_hif_dbguart.a(hif_dbguart_install.o)
 .debug_info    0x00b834da    0x11ab4 mac_core/src/hostif/hif/hif_dbguart/.output/AR6320/hw.3/lib/lib_hif_dbguart.a(hif_dbguart.o)
 .debug_info    0x00b94f8e    0x1d092 protocol/src/lpi/.output/AR6320/hw.3/lib/liblpi.a(wlan_lpi.o)
 .debug_info    0x00bb2020    0x194f0 protocol/src/profile/.output/AR6320/hw.3/lib/libwlanprofile.a(wlan_profile.o)
 .debug_info    0x00bcb510    0x1b053 protocol/src/offload/.output/AR6320/hw.3/lib/liboffload.a(wlan_arp_ns_offload.o)
 .debug_info    0x00be6563    0x1e4d5 protocol/src/offload/.output/AR6320/hw.3/lib/liboffload.a(wlan_beacon_tx_offload.o)
 .debug_info    0x00c04a38    0x1b525 protocol/src/offload/.output/AR6320/hw.3/lib/liboffload.a(wlan_network_list_offload.o)
 .debug_info    0x00c1ff5d    0x1e17e protocol/src/offload/.output/AR6320/hw.3/lib/liboffload.a(wlan_swbmiss_offload.o)
 .debug_info    0x00c3e0db    0x1acd9 protocol/src/framegen/.output/AR6320/hw.3/lib/libframegen.a(wlan_framegen.o)
 .debug_info    0x00c58db4    0x11bdc protocol/src/offload_mgr/stub/.output/AR6320/hw.3/lib/liboffload_mgr_stub.a(offload_mgr_stub.o)
 .debug_info    0x00c6a990    0x15055 protocol/src/offload_mgr/stub/.output/AR6320/hw.3/lib/liboffload_mgr_stub.a(wlan_wow_stub.o)
 .debug_info    0x00c7f9e5     0x8386 mac_core/src/misc/codeswap/.output/AR6320/hw.3/lib/libcodeswap.a(codeswap.o)
 .debug_info    0x00c87d6b     0x82a3 mac_core/src/misc/codeswap/.output/AR6320/hw.3/lib/libcodeswap.a(codeswap_dmamgr.o)
 .debug_info    0x00c9000e    0x16743 protocol/src/scan/stub/.output/AR6320/hw.3/lib/libscan_stub.a(wlan_scan_sch_stub.o)
 .debug_info    0x00ca6751    0x2105a protocol/src/blockack/.output/AR6320/hw.3/lib/libblockack.a(wlan_blockack.o)
 .debug_info    0x00cc77ab    0x15330 protocol/src/init/stub/.output/AR6320/hw.3/lib/libwlaninit_stub.a(wlan_buf_stub.o)
 .debug_info    0x00cdcadb    0x1582d protocol/src/init/stub/.output/AR6320/hw.3/lib/libwlaninit_stub.a(wlan_dev_stub.o)
 .debug_info    0x00cf2308    0x14ecc protocol/src/init/stub/.output/AR6320/hw.3/lib/libwlaninit_stub.a(wlan_peer_stub.o)
 .debug_info    0x00d071d4    0x14f16 mac_core/src/data_txrx/stub/.output/AR6320/hw.3/lib/libdatatxrx_stub.a(ieee80211_hdr_stub.o)
 .debug_info    0x00d1c0ea    0x154c2 protocol/src/vdev_mgr/stub/.output/AR6320/hw.3/lib/libvdevmgr_stub.a(wlan_vdev_stub.o)
 .debug_info    0x00d315ac    0x15980 protocol/src/mgmt_txrx/stub/.output/AR6320/hw.3/lib/libmgmttxrx_stub.a(wlan_mgmt_local_txrx_stub.o)
 .debug_info    0x00d46f2c    0x1070e protocol/src/mgmt_txrx/stub/.output/AR6320/hw.3/lib/libmgmttxrx_stub.a(ieee_mgmt_rx_stub.o)
 .debug_info    0x00d5763a    0x15b1a protocol/src/mgmt/stub/.output/AR6320/hw.3/lib/libmgmt_stub.a(wlan_beacon_stub.o)
 .debug_info    0x00d6d154    0x14eda protocol/src/mgmt/stub/.output/AR6320/hw.3/lib/libmgmt_stub.a(wlan_ie_utils_stub.o)
 .debug_info    0x00d8202e    0x154fb protocol/src/p2p/stub/.output/AR6320/hw.3/lib/libp2p_stub.a(p2p_stub.o)
 .debug_info    0x00d97529    0x130f1 mac_core/src/wal/whal/reset/.output/AR6320/hw.3/lib/ar6000_cal.a(ar6320_cal.o)
 .debug_info    0x00daa61a    0x15353 mac_core/src/wal/whal/reset/.output/AR6320/hw.3/lib/ar6000_cal.a(ar6320_rxdc_cal.o)
 .debug_info    0x00dbf96d    0x15198 mac_core/src/wal/whal/reset/.output/AR6320/hw.3/lib/ar6000_cal.a(ar6320_iq_cal.o)
 .debug_info    0x00dd4b05    0x111c2 mac_core/src/wal/whal/reset/.output/AR6320/hw.3/lib/ar6000_cal.a(ar6320_pef_cal.o)
 .debug_info    0x00de5cc7    0x11205 protocol/src/unit_test/.output/AR6320/hw.3/lib/libunittest.a(unit_test.o)
 .debug_info    0x00df6ecc    0x17a3d protocol/src/frameparse/.output/AR6320/hw.3/lib/libframeparse.a(wlan_frameparse.o)
 .debug_info    0x00e0e909    0x1ac21 protocol/src/nan/.output/AR6320/hw.3/lib/libnanwlan.a(wlan_nan.o)
 .debug_info    0x00e2952a    0x1bca2 protocol/src/nan/.output/AR6320/hw.3/lib/libnanwlan.a(wlan_nan_sync.o)
 .debug_info    0x00e451cc    0x1e17f protocol/src/nan/.output/AR6320/hw.3/lib/libnanwlan.a(wlan_nan_mac.o)
 .debug_info    0x00e6334b    0x1cd0a protocol/src/nan/.output/AR6320/hw.3/lib/libnanwlan.a(wlan_nan_publish.o)
 .debug_info    0x00e80055    0x1ce1e protocol/src/nan/.output/AR6320/hw.3/lib/libnanwlan.a(wlan_nan_subscribe.o)
 .debug_info    0x00e9ce73    0x1e826 protocol/src/nan/.output/AR6320/hw.3/lib/libnanwlan.a(wlan_nan_ctrl.o)
 .debug_info    0x00ebb699    0x1ddaa protocol/src/nan/.output/AR6320/hw.3/lib/libnanwlan.a(wlan_nan_de_if.o)
 .debug_info    0x00ed9443    0x1a91b protocol/src/nan/.output/AR6320/hw.3/lib/libnanwlan.a(wlan_nan_rx.o)
 .debug_info    0x00ef3d5e    0x1ba2f protocol/src/nan/.output/AR6320/hw.3/lib/libnanwlan.a(wlan_nan_match.o)
 .debug_info    0x00f0f78d    0x1111d protocol/src/nan/.output/AR6320/hw.3/lib/libnanwlan.a(wconn_util_list.o)
 .debug_info    0x00f208aa    0x1d729 protocol/src/nan/.output/AR6320/hw.3/lib/libnanwlan.a(wlan_nan_attr.o)
 .debug_info    0x00f3dfd3    0x112b7 protocol/src/nan/.output/AR6320/hw.3/lib/libnanwlan.a(wlan_nan_bloom_filter.o)
 .debug_info    0x00f4f28a    0x10756 protocol/src/nan/.output/AR6320/hw.3/lib/libnanwlan.a(wlan_nan_crc.o)
 .debug_info    0x00f5f9e0    0x1094b protocol/src/nan/.output/AR6320/hw.3/lib/libnanwlan.a(wlan_nan_log.o)
 .debug_info    0x00f7032b    0x10734 protocol/src/nan/.output/AR6320/hw.3/lib/libnanwlan.a(wlan_nan_time.o)
 .debug_info    0x00f80a5f    0x10805 protocol/src/nan/.output/AR6320/hw.3/lib/libnanwlan.a(wlan_nan_tlv.o)
 .debug_info    0x00f91264    0x10871 protocol/src/nan/.output/AR6320/hw.3/lib/libnanwlan.a(wlan_nan_util.o)
 .debug_info    0x00fa1ad5    0x1b17e protocol/src/nan/.output/AR6320/hw.3/lib/libnanwlan.a(wlan_nan_beacon_ie.o)
 .debug_info    0x00fbcc53    0x1b190 protocol/src/nan/.output/AR6320/hw.3/lib/libnanwlan.a(wlan_nan_beacon_rx.o)
 .debug_info    0x00fd7de3    0x1adcb protocol/src/nan/.output/AR6320/hw.3/lib/libnanwlan.a(wlan_nan_beacon_tx.o)
 .debug_info    0x00ff2bae    0x1c0e3 protocol/src/nan/.output/AR6320/hw.3/lib/libnanwlan.a(wlan_nan_cluster_sm.o)
 .debug_info    0x0100ec91    0x1a808 protocol/src/nan/.output/AR6320/hw.3/lib/libnanwlan.a(wlan_nan_scan.o)
 .debug_info    0x01029499    0x1c834 protocol/src/nan/.output/AR6320/hw.3/lib/libnanwlan.a(wlan_nan_sched.o)
 .debug_info    0x01045ccd     0x7f6f protocol/src/nan/.output/AR6320/hw.3/lib/libnanwlan.a(sha2.o)
 .debug_info    0x0104dc3c    0x18402 protocol/src/extscan/.output/AR6320/hw.3/lib/libextscan.a(wlan_extscan_main.o)
 .debug_info    0x0106603e    0x12189 protocol/src/extscan/.output/AR6320/hw.3/lib/libextscan.a(wlan_extscan_wlan_change.o)
 .debug_info    0x010781c7    0x18baf protocol/src/extscan/.output/AR6320/hw.3/lib/libextscan.a(wlan_extscan_wmi.o)
 .debug_info    0x01090d76    0x128e2 protocol/src/extscan/.output/AR6320/hw.3/lib/libextscan.a(wlan_extscan_bssid.o)
 .debug_info    0x010a3658    0x18d8f protocol/src/extscan/.output/AR6320/hw.3/lib/libextscan.a(wlan_extscan_bucket.o)
 .debug_info    0x010bc3e7    0x116b9 protocol/src/extscan/.output/AR6320/hw.3/lib/libextscan.a(wlan_extscan_hotlist.o)
 .debug_info    0x010cdaa0    0x17b38 mac_core/src/wal/AR/rtt/.output/AR6320/hw.3/lib/ar_wal_rtt.a(wal_rtt.o)
 .debug_info    0x010e55d8     0x7cd3 mac_core/patch/AR6320/v3/.output/AR6320/hw.3/lib/lib_maccore_patches.a(install_patches.o)
 .debug_info    0x010ed2ab     0x7d07 mac_core/patch/AR6320/v3/.output/AR6320/hw.3/lib/lib_maccore_patches.a(whal_install_patches.o)
 .debug_info    0x010f4fb2    0x10670 mac_core/patch/AR6320/v3/.output/AR6320/hw.3/lib/lib_maccore_patches.a(wal_install_patches.o)
 .debug_info    0x01105622    0x18cd8 mac_core/patch/AR6320/v3/.output/AR6320/hw.3/lib/lib_maccore_patches.a(ar_wal_connection_pause_patch.o)
 .debug_info    0x0111e2fa    0x1e839 mac_core/patch/AR6320/v3/.output/AR6320/hw.3/lib/lib_maccore_patches.a(ar_wal_phy_dev_patch.o)
 .debug_info    0x0113cb33    0x194fd mac_core/patch/AR6320/v3/.output/AR6320/hw.3/lib/lib_maccore_patches.a(cmnos_retention_patch.o)
 .debug_info    0x01156030    0x1a87f mac_core/patch/AR6320/v3/.output/AR6320/hw.3/lib/lib_maccore_patches.a(ar_wal_tx_de_patch.o)
 .debug_info    0x011708af    0x174aa mac_core/patch/AR6320/v3/.output/AR6320/hw.3/lib/lib_maccore_patches.a(ar_wal_local_frames_wifi_ip01_patch.o)
 .debug_info    0x01187d59     0x8383 mac_core/patch/AR6320/v3/.output/AR6320/hw.3/lib/lib_maccore_patches.a(pool_mgr_patch.o)
 .debug_info    0x011900dc    0x1dc13 mac_core/patch/AR6320/v3/.output/AR6320/hw.3/lib/lib_maccore_patches.a(ar_wal_rx_patch.o)
 .debug_info    0x011adcef    0x19977 mac_core/patch/AR6320/v3/.output/AR6320/hw.3/lib/lib_maccore_patches.a(ar_wal_rx_offload_patch.o)
 .debug_info    0x011c7666    0x1767a mac_core/patch/AR6320/v3/.output/AR6320/hw.3/lib/lib_maccore_patches.a(ar_wal_rx_common_patch.o)
 .debug_info    0x011dece0    0x1acbc mac_core/patch/AR6320/v3/.output/AR6320/hw.3/lib/lib_maccore_patches.a(ar_wal_vdev_patch.o)
 .debug_info    0x011f999c    0x1765a mac_core/patch/AR6320/v3/.output/AR6320/hw.3/lib/lib_maccore_patches.a(ar_tx_q_enque_patch.o)
 .debug_info    0x01210ff6    0x18310 mac_core/patch/AR6320/v3/.output/AR6320/hw.3/lib/lib_maccore_patches.a(tx_sched_patch.o)
 .debug_info    0x01229306    0x20970 mac_core/patch/AR6320/v3/.output/AR6320/hw.3/lib/lib_maccore_patches.a(ar_wal_tx_send_patch.o)
 .debug_info    0x01249c76    0x189ac mac_core/patch/AR6320/v3/.output/AR6320/hw.3/lib/lib_maccore_patches.a(ar_wal_chain_mgmt_patch.o)
 .debug_info    0x01262622    0x1d5f7 mac_core/patch/AR6320/v3/.output/AR6320/hw.3/lib/lib_maccore_patches.a(ar_wal_peer_patch.o)
 .debug_info    0x0127fc19    0x12333 mac_core/patch/AR6320/v3/.output/AR6320/hw.3/lib/lib_maccore_patches.a(ar600P_txbf_patch.o)
 .debug_info    0x01291f4c    0x16c36 mac_core/patch/AR6320/v3/.output/AR6320/hw.3/lib/lib_maccore_patches.a(wal_pps_patch.o)
 .debug_info    0x012a8b82    0x12dcc mac_core/patch/AR6320/v3/.output/AR6320/hw.3/lib/lib_maccore_patches.a(ar_xmit_wifi_ip01_patch.o)
 .debug_info    0x012bb94e    0x191bb mac_core/patch/AR6320/v3/.output/AR6320/hw.3/lib/lib_maccore_patches.a(ar_wal_channel_change_patch.o)
 .debug_info    0x012d4b09    0x1aa46 mac_core/patch/AR6320/v3/.output/AR6320/hw.3/lib/lib_maccore_patches.a(ar_wal_rc_patch.o)
 .debug_info    0x012ef54f    0x159f9 mac_core/patch/AR6320/v3/.output/AR6320/hw.3/lib/lib_maccore_patches.a(wal_rtt_patch.o)
 .debug_info    0x01304f48     0xf961 mac_core/patch/AR6320/v3/.output/AR6320/hw.3/lib/lib_maccore_patches.a(whal_rtt_patch.o)
 .debug_info    0x013148a9     0x895e mac_core/patch/AR6320/v3/.output/AR6320/hw.3/lib/lib_maccore_patches.a(dbglog_patch.o)
 .debug_info    0x0131d207    0x10089 mac_core/patch/AR6320/v3/.output/AR6320/hw.3/lib/lib_maccore_patches.a(ar600p_beacon_patch.o)
 .debug_info    0x0132d290    0x10efe mac_core/patch/AR6320/v3/.output/AR6320/hw.3/lib/lib_maccore_patches.a(ar6000_power_patch.o)
 .debug_info    0x0133e18e     0xfc52 mac_core/patch/AR6320/v3/.output/AR6320/hw.3/lib/lib_maccore_patches.a(ar6000_interrupt_patch.o)
 .debug_info    0x0134dde0     0x8251 mac_core/patch/AR6320/v3/.output/AR6320/hw.3/lib/lib_maccore_patches.a(cmnos_intrinf_patch.o)
 .debug_info    0x01356031     0x856e mac_core/patch/AR6320/v3/.output/AR6320/hw.3/lib/lib_maccore_patches.a(patch_pcie.o)
 .debug_info    0x0135e59f     0xc68b mac_core/patch/AR6320/v3/.output/AR6320/hw.3/lib/lib_maccore_patches.a(patch_usb.o)
 .debug_info    0x0136ac2a    0x16372 mac_core/patch/AR6320/v3/.output/AR6320/hw.3/lib/lib_maccore_patches.a(wal_beacon_patch.o)
 .debug_info    0x01380f9c    0x1726f mac_core/patch/AR6320/v3/.output/AR6320/hw.3/lib/lib_maccore_patches.a(wal_swba_patch.o)
 .debug_info    0x0139820b    0x1024a mac_core/patch/AR6320/v3/.output/AR6320/hw.3/lib/lib_maccore_patches.a(ar600P_retention_patch.o)
 .debug_info    0x013a8455    0x10814 mac_core/patch/AR6320/v3/.output/AR6320/hw.3/lib/lib_maccore_patches.a(ar_wal_rmc_patch.o)
 .debug_info    0x013b8c69     0x7d31 mac_core/patch/AR6320/v3/.output/AR6320/hw.3/lib/lib_maccore_patches.a(whal_rgc_patch.o)
 .debug_info    0x013c099a     0x86af mac_core/patch/AR6320/v3/.output/AR6320/hw.3/lib/lib_maccore_patches.a(patch_hif_ce.o)
 .debug_info    0x013c9049    0x101a8 mac_core/patch/AR6320/v3/.output/AR6320/hw.3/lib/lib_maccore_patches.a(patch_whal_coex.o)
 .debug_info    0x013d91f1     0xfc8e mac_core/patch/AR6320/v3/.output/AR6320/hw.3/lib/lib_maccore_patches.a(patch_whal_mws.o)
 .debug_info    0x013e8e7f    0x10f50 mac_core/patch/AR6320/v3/.output/AR6320/hw.3/lib/lib_maccore_patches.a(patch_whal_mci.o)
 .debug_info    0x013f9dcf    0x16499 mac_core/patch/AR6320/v3/.output/AR6320/hw.3/lib/lib_maccore_patches.a(ar_wal_tx_dm_patch.o)
 .debug_info    0x01410268    0x110e7 mac_core/patch/AR6320/v3/.output/AR6320/hw.3/lib/lib_maccore_patches.a(patch_copy_engine.o)
 .debug_info    0x0142134f    0x166ef mac_core/patch/AR6320/v3/.output/AR6320/hw.3/lib/lib_maccore_patches.a(wal_concurrency_patch.o)
 .debug_info    0x01437a3e    0x17d78 mac_core/patch/AR6320/v3/.output/AR6320/hw.3/lib/lib_maccore_patches.a(ar_wal_tdls_patch.o)
 .debug_info    0x0144f7b6     0x7db6 mac_core/patch/AR6320/v3/.output/AR6320/hw.3/lib/lib_maccore_patches.a(cmnos_timer_patch.o)
 .debug_info    0x0145756c    0x160aa mac_core/patch/AR6320/v3/.output/AR6320/hw.3/lib/lib_maccore_patches.a(ar_wal_tx_hcm_patch.o)
 .debug_info    0x0146d616    0x173f7 mac_core/patch/AR6320/v3/.output/AR6320/hw.3/lib/lib_maccore_patches.a(ar_wal_tdls_conn_table_patch.o)
 .debug_info    0x01484a0d     0xff24 mac_core/patch/AR6320/v3/.output/AR6320/hw.3/lib/lib_maccore_patches.a(ar600P_recv_patch.o)
 .debug_info    0x01494931     0x7b66 mac_core/patch/AR6320/v3/.output/AR6320/hw.3/lib/lib_maccore_patches.a(patch_gpio.o)
 .debug_info    0x0149c497     0x8386 mac_core/patch/AR6320/v3/.output/AR6320/hw.3/lib/lib_maccore_patches.a(os_install_wlan_extra_memory_patches.o)
 .debug_info    0x014a481d     0x7d04 mac_core/patch/AR6320/v3/.output/AR6320/hw.3/lib/lib_maccore_patches.a(patch_athos_main.o)
 .debug_info    0x014ac521     0x8139 mac_core/patch/AR6320/v3/.output/AR6320/hw.3/lib/lib_maccore_patches.a(cmnos_misc_patch.o)
 .debug_info    0x014b465a     0x7f0b mac_core/patch/AR6320/v3/.output/AR6320/hw.3/lib/lib_maccore_patches.a(sha1_patch.o)
 .debug_info    0x014bc565     0x7b46 mac_core/patch/AR6320/v3/.output/AR6320/hw.3/lib/lib_maccore_patches.a(qheap_patch.o)
 .debug_info    0x014c40ab     0x8638 mac_core/patch/AR6320/v3/.output/AR6320/hw.3/lib/lib_maccore_patches.a(patch_hif_sdio.o)
 .debug_info    0x014cc6e3    0x16f44 mac_core/patch/AR6320/v3/.output/AR6320/hw.3/lib/lib_maccore_patches.a(ar_wal_txbf_patch.o)
 .debug_info    0x014e3627     0x7d77 mac_core/patch/AR6320/v3/.output/AR6320/hw.3/lib/lib_maccore_patches.a(wmi_dbgloghook_patch.o)
 .debug_info    0x014eb39e     0x8084 mac_core/patch/AR6320/v3/.output/AR6320/hw.3/lib/lib_maccore_patches.a(cmnos_allocram_patch.o)
 .debug_info    0x014f3422    0x1cbf7 protocol/src/extwow/.output/AR6320/hw.3/lib/libextwow.a(wlan_extwow.o)
 .debug_info    0x01510019     0x7cdd halphy/patch/AR6320/v3/.output/AR6320/hw.3/lib/lib_halphy_patches.a(halphy_install_patches.o)
 .debug_info    0x01517cf6    0x112a3 halphy/patch/AR6320/v3/.output/AR6320/hw.3/lib/lib_halphy_patches.a(ar6000_nf_cal_patch.o)
 .debug_info    0x01528f99    0x1127a halphy/patch/AR6320/v3/.output/AR6320/hw.3/lib/lib_halphy_patches.a(ar6000_ani_patch.o)
 .debug_info    0x0153a213    0x10be3 halphy/patch/AR6320/v3/.output/AR6320/hw.3/lib/lib_halphy_patches.a(ar6320_ini_patch.o)
 .debug_info    0x0154adf6    0x15071 halphy/patch/AR6320/v3/.output/AR6320/hw.3/lib/lib_halphy_patches.a(ar6320_tpc_config_patch.o)
 .debug_info    0x0155fe67    0x15977 halphy/patch/AR6320/v3/.output/AR6320/hw.3/lib/lib_halphy_patches.a(ar6320_eeprom_patch.o)
 .debug_info    0x015757de    0x14ec1 halphy/patch/AR6320/v3/.output/AR6320/hw.3/lib/lib_halphy_patches.a(ar600P_reset_patch.o)
 .debug_info    0x0158a69f    0x161cb halphy/patch/AR6320/v3/.output/AR6320/hw.3/lib/lib_halphy_patches.a(ar6000_paprd_patch.o)
 .debug_info    0x015a086a     0xfc20 halphy/patch/AR6320/v3/.output/AR6320/hw.3/lib/lib_halphy_patches.a(ar6000_phy_patch.o)
 .debug_info    0x015b048a      0x100 /cad/tensilica/chips/peregrine/RE-2013.3-linux/peregrine/xtensa-elf/lib/xcc//libgcc.a(_divsi3.o)
 .debug_info    0x015b058a      0x100 /cad/tensilica/chips/peregrine/RE-2013.3-linux/peregrine/xtensa-elf/lib/xcc//libgcc.a(_modsi3.o)
 .debug_info    0x015b068a      0x100 /cad/tensilica/chips/peregrine/RE-2013.3-linux/peregrine/xtensa-elf/lib/xcc//libgcc.a(_udivsi3.o)
 .debug_info    0x015b078a      0x100 /cad/tensilica/chips/peregrine/RE-2013.3-linux/peregrine/xtensa-elf/lib/xcc//libgcc.a(_umodsi3.o)
 .debug_info    0x015b088a      0x100 /cad/tensilica/chips/peregrine/RE-2013.3-linux/peregrine/xtensa-elf/lib/xcc//libgcc.a(_ashldi3.o)
 .debug_info    0x015b098a      0x100 /cad/tensilica/chips/peregrine/RE-2013.3-linux/peregrine/xtensa-elf/lib/xcc//libgcc.a(_ashrdi3.o)
 .debug_info    0x015b0a8a      0x100 /cad/tensilica/chips/peregrine/RE-2013.3-linux/peregrine/xtensa-elf/lib/xcc//libgcc.a(_lshrdi3.o)
 .debug_info    0x015b0b8a       0xff /cad/tensilica/chips/peregrine/RE-2013.3-linux/peregrine/xtensa-elf/lib/xcc//libgcc.a(_muldf3.o)
 .debug_info    0x015b0c89       0xff /cad/tensilica/chips/peregrine/RE-2013.3-linux/peregrine/xtensa-elf/lib/xcc//libgcc.a(_fixunsdfsi.o)
 .debug_info    0x015b0d88       0xff /cad/tensilica/chips/peregrine/RE-2013.3-linux/peregrine/xtensa-elf/lib/xcc//libgcc.a(_floatsidf.o)
 .debug_info    0x015b0e87      0x26c /cad/tensilica/chips/peregrine/RE-2013.3-linux/peregrine/xtensa-elf/lib/xcc//libgcc.a(_muldi3.o)
 .debug_info    0x015b10f3      0x277 /cad/tensilica/chips/peregrine/RE-2013.3-linux/peregrine/xtensa-elf/lib/xcc//libgcc.a(_udivdi3.o)
 .debug_info    0x015b136a      0x281 /cad/tensilica/chips/peregrine/RE-2013.3-linux/peregrine/xtensa-elf/lib/xcc//libgcc.a(_umoddi3.o)
 .debug_info    0x015b15eb       0xfa /cad/tensilica/chips/peregrine/RE-2013.3-linux/peregrine/xtensa-elf/lib/xcc//libgcc.a(lib2funcs.o)
 .debug_info    0x015b16e5     0x7cf9 protocol/src/tcpip/.output/AR6320/hw.3/lib/libtcpip.a(wlan_pb.o)
 .debug_info    0x015b93de     0x81e7 protocol/src/tcpip/.output/AR6320/hw.3/lib/libtcpip.a(wlan_tcpip.o)
 .debug_info    0x015c15c5     0x84f0 mac_core/src/misc/serport/.output/AR6320/hw.3/lib/libserport.a(serial_if.o)
 .debug_info    0x015c9ab5     0x832e mac_core/src/misc/serport/.output/AR6320/hw.3/lib/libserport.a(serial_port.o)
 .debug_info    0x015d1de3     0x893c mac_core/src/misc/uartserp/.output/AR6320/hw.3/lib/libuartserp.a(uartserp.o)
 .debug_info    0x015da71f    0x17597 mac_core/src/wal/AR/nan/.output/AR6320/hw.3/lib/ar_wal_nan.a(wal_nan_mac.o)
 .debug_info    0x015f1cb6    0x11d85 mac_core/src/wal/whal/rtt/.output/AR6320/hw.3/lib/whal_rtt.a(whal_rtt.o)

.debug_abbrev   0x00000000    0x2d927
 *(.debug_abbrev)
 .debug_abbrev  0x00000000      0x22e mac_core/patch/AR6320/v3/.output/AR6320/hw.3/obj/app_start.o
 .debug_abbrev  0x0000022e      0x319 protocol/src/init/.output/AR6320/hw.3/lib/libwlaninit.a(wlan_init.o)
 .debug_abbrev  0x00000547      0x373 protocol/src/init/.output/AR6320/hw.3/lib/libwlaninit.a(wlan_peer.o)
 .debug_abbrev  0x000008ba      0x296 protocol/src/init/.output/AR6320/hw.3/lib/libwlaninit.a(umac_init.o)
 .debug_abbrev  0x00000b50      0x2be protocol/src/init/.output/AR6320/hw.3/lib/libwlaninit.a(wlan_bss.o)
 .debug_abbrev  0x00000e0e      0x30f protocol/src/init/.output/AR6320/hw.3/lib/libwlaninit.a(wlan_buf.o)
 .debug_abbrev  0x0000111d      0x3c8 protocol/src/init/.output/AR6320/hw.3/lib/libwlaninit.a(wlan_dev.o)
 .debug_abbrev  0x000014e5      0x36a mac_core/src/mac_core_init/.output/AR6320/hw.3/lib/libmaccoreinit.a(mac_core_init.o)
 .debug_abbrev  0x0000184f      0x298 protocol/src/cfg/.output/AR6320/hw.3/lib/libcfg.a(cfg.o)
 .debug_abbrev  0x00001ae7      0x3b4 mac_core/src/wal/AR/coex/.output/AR6320/hw.3/lib/wal_coex.a(wal_coex.o)
 .debug_abbrev  0x00001e9b      0x380 mac_core/src/wal/AR/coex/.output/AR6320/hw.3/lib/wal_coex.a(wal_btcoex.o)
 .debug_abbrev  0x0000221b      0x349 mac_core/src/wal/AR/coex/.output/AR6320/hw.3/lib/wal_coex.a(wal_mwscoex.o)
 .debug_abbrev  0x00002564      0x251 mac_core/src/wal/AR/coex/.output/AR6320/hw.3/lib/wal_coex.a(wal_mwscoex_crc.o)
 .debug_abbrev  0x000027b5      0x2b8 mac_core/src/wal/AR/coex/.output/AR6320/hw.3/lib/wal_coex.a(qmi_idl_lib.o)
 .debug_abbrev  0x00002a6d      0x286 mac_core/src/wal/AR/coex/.output/AR6320/hw.3/lib/wal_coex.a(qmi_idl_accessor.o)
 .debug_abbrev  0x00002cf3      0x247 mac_core/src/wal/AR/coex/.output/AR6320/hw.3/lib/wal_coex.a(coexistence_service_v02.o)
 .debug_abbrev  0x00002f3a      0x200 mac_core/src/wal/whal/ini/.output/AR6320/hw.3/lib/libwhalini.a(whalini.o)
 .debug_abbrev  0x0000313a      0x2d6 mac_core/src/data_txrx/.output/AR6320/hw.3/lib/libdatatxrx.a(data_txrx.o)
 .debug_abbrev  0x00003410      0x2af mac_core/src/data_txrx/.output/AR6320/hw.3/lib/libdatatxrx.a(ieee80211_hdr.o)
 .debug_abbrev  0x000036bf      0x392 mac_core/src/data_txrx/.output/AR6320/hw.3/lib/libdatatxrx.a(data_rx.o)
 .debug_abbrev  0x00003a51      0x331 mac_core/src/data_txrx/.output/AR6320/hw.3/lib/libdatatxrx.a(data_rx_peer.o)
 .debug_abbrev  0x00003d82      0x2a2 mac_core/src/data_txrx/.output/AR6320/hw.3/lib/libdatatxrx.a(data_rx_pn.o)
 .debug_abbrev  0x00004024      0x396 mac_core/src/data_txrx/.output/AR6320/hw.3/lib/libdatatxrx.a(data_rx_reorder.o)
 .debug_abbrev  0x000043ba      0x296 protocol/src/mgmt_txrx/.output/AR6320/hw.3/lib/libmgmttxrx.a(ieee_mgmt_rx.o)
 .debug_abbrev  0x00004650      0x2eb protocol/src/mgmt_txrx/.output/AR6320/hw.3/lib/libmgmttxrx.a(wlan_mgmt_local_txrx.o)
 .debug_abbrev  0x0000493b      0x39e protocol/src/mgmt_txrx/.output/AR6320/hw.3/lib/libmgmttxrx.a(wlan_mgmt_txrx.o)
 .debug_abbrev  0x00004cd9      0x350 protocol/src/vdev_mgr/.output/AR6320/hw.3/lib/libvdevmgr.a(wlan_vdev.o)
 .debug_abbrev  0x00005029      0x2fe protocol/src/vdev_mgr/.output/AR6320/hw.3/lib/libvdevmgr.a(wlan_vdev_keepalive.o)
 .debug_abbrev  0x00005327      0x343 protocol/src/vdev_mgr/.output/AR6320/hw.3/lib/libvdevmgr.a(wlan_vdev_misc.o)
 .debug_abbrev  0x0000566a      0x304 protocol/src/vdev_mgr/.output/AR6320/hw.3/lib/libvdevmgr.a(wlan_vdev_pause.o)
 .debug_abbrev  0x0000596e      0x322 protocol/src/vdev_mgr/.output/AR6320/hw.3/lib/libvdevmgr.a(wlan_vdev_schedule.o)
 .debug_abbrev  0x00005c90      0x28c protocol/src/key_mgmt/.output/AR6320/hw.3/lib/libkeymgmt.a(wlan_key_mgmt.o)
 .debug_abbrev  0x00005f1c      0x37f mac_core/src/ratectrl/.output/AR6320/hw.3/lib/libratectrl_11ac.a(ratectrl_11ac.o)
 .debug_abbrev  0x0000629b      0x354 mac_core/src/ratectrl/.output/AR6320/hw.3/lib/libratectrl_11ac.a(ratectrl_11ac_if.o)
 .debug_abbrev  0x000065ef      0x2ad mac_core/src/ratectrl/.output/AR6320/hw.3/lib/libratectrl_11ac.a(ratectrl_peer_state.o)
 .debug_abbrev  0x0000689c      0x31b protocol/src/rtt/.output/AR6320/hw.3/lib/librtt.a(wlan_rtt.o)
 .debug_abbrev  0x00006bb7      0x30c protocol/src/phyerr/.output/AR6320/hw.3/lib/libphyerr.a(wlan_dfs_phyerr_filter.o)
 .debug_abbrev  0x00006ec3      0x336 protocol/src/phyerr/.output/AR6320/hw.3/lib/libphyerr.a(wlan_phyerr.o)
 .debug_abbrev  0x000071f9      0x2fc protocol/src/rfkill/.output/AR6320/hw.3/lib/librfkill.a(wlan_rfkill.o)
 .debug_abbrev  0x000074f5      0x2d8 protocol/src/wmi/.output/AR6320/hw.3/lib/libumacwmi.a(umac_wmi_events.o)
 .debug_abbrev  0x000077cd      0x37e protocol/src/wmi/.output/AR6320/hw.3/lib/libumacwmi.a(wlan_wmi.o)
 .debug_abbrev  0x00007b4b      0x31b protocol/src/wmi/.output/AR6320/hw.3/lib/libumacwmi.a(wlan_wmi_events.o)
 .debug_abbrev  0x00007e66      0x2ab protocol/src/wmi/.output/AR6320/hw.3/lib/libumacwmi.a(wmi_gpiohook.o)
 .debug_abbrev  0x00008111      0x2af protocol/src/wmi/.output/AR6320/hw.3/lib/libumacwmi.a(wmi_tlv_helper.o)
 .debug_abbrev  0x000083c0      0x2ae protocol/src/wmi/.output/AR6320/hw.3/lib/libumacwmi.a(umac_wmi.o)
 .debug_abbrev  0x0000866e      0x361 protocol/src/offload_mgr/.output/AR6320/hw.3/lib/liboffload_mgr.a(beacon_filter.o)
 .debug_abbrev  0x000089cf      0x385 protocol/src/offload_mgr/.output/AR6320/hw.3/lib/liboffload_mgr.a(csa_offload_main.o)
 .debug_abbrev  0x00008d54      0x350 protocol/src/offload_mgr/.output/AR6320/hw.3/lib/liboffload_mgr.a(offload_mgr.o)
 .debug_abbrev  0x000090a4      0x2e9 protocol/src/offload_mgr/.output/AR6320/hw.3/lib/liboffload_mgr.a(wlan_d0wow.o)
 .debug_abbrev  0x0000938d      0x33b protocol/src/offload_mgr/.output/AR6320/hw.3/lib/liboffload_mgr.a(wlan_gtk_offload.o)
 .debug_abbrev  0x000096c8      0x380 protocol/src/offload_mgr/.output/AR6320/hw.3/lib/liboffload_mgr.a(wlan_wow.o)
 .debug_abbrev  0x00009a48      0x32e protocol/src/mgmt/.output/AR6320/hw.3/lib/libmgmt.a(wlan_beacon.o)
 .debug_abbrev  0x00009d76      0x364 protocol/src/mgmt/.output/AR6320/hw.3/lib/libmgmt.a(wlan_early_rx_sm.o)
 .debug_abbrev  0x0000a0da      0x296 protocol/src/mgmt/.output/AR6320/hw.3/lib/libmgmt.a(wlan_ie_utils.o)
 .debug_abbrev  0x0000a370      0x279 protocol/src/mgmt/.output/AR6320/hw.3/lib/libmgmt.a(wlan_wnm.o)
 .debug_abbrev  0x0000a5e9      0x2be protocol/src/power/.output/AR6320/hw.3/lib/libpower.a(wlan_pm_arbiter.o)
 .debug_abbrev  0x0000a8a7      0x269 protocol/src/power/.output/AR6320/hw.3/lib/libpower.a(wlan_powersave.o)
 .debug_abbrev  0x0000ab10      0x321 protocol/src/power/.output/AR6320/hw.3/lib/libpower.a(wlan_powersave_ap.o)
 .debug_abbrev  0x0000ae31      0x319 protocol/src/power/.output/AR6320/hw.3/lib/libpower.a(wlan_powersave_ibss.o)
 .debug_abbrev  0x0000b14a      0x36c protocol/src/power/.output/AR6320/hw.3/lib/libpower.a(wlan_powersave_ibss_nw_sm.o)
 .debug_abbrev  0x0000b4b6      0x349 protocol/src/power/.output/AR6320/hw.3/lib/libpower.a(wlan_powersave_ibss_peer_ps_sm.o)
 .debug_abbrev  0x0000b7ff      0x329 protocol/src/power/.output/AR6320/hw.3/lib/libpower.a(wlan_powersave_ibss_self_ps_sm.o)
 .debug_abbrev  0x0000bb28      0x2fb protocol/src/power/.output/AR6320/hw.3/lib/libpower.a(wlan_powersave_sta.o)
 .debug_abbrev  0x0000be23      0x31e protocol/src/power/.output/AR6320/hw.3/lib/libpower.a(wlan_powersave_sta_sm.o)
 .debug_abbrev  0x0000c141      0x266 protocol/src/power/.output/AR6320/hw.3/lib/libpower.a(wlan_powersave_tdls.o)
 .debug_abbrev  0x0000c3a7      0x27b protocol/src/power/.output/AR6320/hw.3/lib/libpower.a(wlan_qpower.o)
 .debug_abbrev  0x0000c622      0x345 protocol/src/power/smps/.output/AR6320/hw.3/lib/libsmps.a(wlan_smps.o)
 .debug_abbrev  0x0000c967      0x30b protocol/src/power/smps/.output/AR6320/hw.3/lib/libsmps.a(wlan_smps_sm.o)
 .debug_abbrev  0x0000cc72      0x34d protocol/src/resmgr/.output/AR6320/hw.3/lib/libresmgr.a(channel_mgr.o)
 .debug_abbrev  0x0000cfbf      0x34a protocol/src/resmgr/.output/AR6320/hw.3/lib/libresmgr.a(resmgr.o)
 .debug_abbrev  0x0000d309      0x2ef protocol/src/resmgr/.output/AR6320/hw.3/lib/libresmgr.a(resmgr_dyn_sch.o)
 .debug_abbrev  0x0000d5f8      0x338 protocol/src/resmgr/.output/AR6320/hw.3/lib/libresmgr.a(resmgr_ocs.o)
 .debug_abbrev  0x0000d930      0x39f protocol/src/resmgr/.output/AR6320/hw.3/lib/libresmgr.a(virtual_channel.o)
 .debug_abbrev  0x0000dccf      0x2a7 protocol/src/resmgr/.output/AR6320/hw.3/lib/libresmgr.a(virtual_channel_arbiter.o)
 .debug_abbrev  0x0000df76      0x2c1 mac_core/src/hostif/htc/.output/AR6320/hw.3/lib/libhtc.a(htc.o)
 .debug_abbrev  0x0000e237      0x332 mac_core/src/hostif/htt/.output/AR6320/hw.3/lib/libhtt.a(htt_tgt_hif_svc.o)
 .debug_abbrev  0x0000e569      0x368 mac_core/src/hostif/htt/.output/AR6320/hw.3/lib/libhtt.a(htt_tgt_rx.o)
 .debug_abbrev  0x0000e8d1      0x31c mac_core/src/hostif/htt/.output/AR6320/hw.3/lib/libhtt.a(htt_tgt_rx_event.o)
 .debug_abbrev  0x0000ebed      0x303 mac_core/src/hostif/htt/.output/AR6320/hw.3/lib/libhtt.a(htt_tgt_stats.o)
 .debug_abbrev  0x0000eef0      0x361 mac_core/src/hostif/htt/.output/AR6320/hw.3/lib/libhtt.a(htt_tgt_tx.o)
 .debug_abbrev  0x0000f251      0x257 mac_core/src/utils/sm/.output/AR6320/hw.3/lib/libsm.a(sm.o)
 .debug_abbrev  0x0000f4a8      0x3aa protocol/src/coex/.output/AR6320/hw.3/lib/libcoex.a(coex.o)
 .debug_abbrev  0x0000f852      0x284 mac_core/src/hostif/wmisvc/.output/AR6320/hw.3/lib/libwmisvc.a(wmi_svc.o)
 .debug_abbrev  0x0000fad6      0x2b8 protocol/src/scan/.output/AR6320/hw.3/lib/libscan.a(wlan_dcs.o)
 .debug_abbrev  0x0000fd8e      0x36f protocol/src/scan/.output/AR6320/hw.3/lib/libscan.a(wlan_scan_sch.o)
 .debug_abbrev  0x000100fd      0x379 protocol/src/scan/.output/AR6320/hw.3/lib/libscan.a(wlan_scan_sm.o)
 .debug_abbrev  0x00010476      0x332 protocol/src/scan/.output/AR6320/hw.3/lib/libscan.a(wlan_scan.o)
 .debug_abbrev  0x000107a8      0x2f5 protocol/src/roam/.output/AR6320/hw.3/lib/libroam.a(wlan_roam.o)
 .debug_abbrev  0x00010a9d      0x31d protocol/src/roam/.output/AR6320/hw.3/lib/libroam.a(wlan_roam_internal.o)
 .debug_abbrev  0x00010dba      0x2a1 protocol/src/roam/.output/AR6320/hw.3/lib/libroam.a(wlan_roam_wmi.o)
 .debug_abbrev  0x0001105b      0x30e protocol/src/pps/.output/AR6320/hw.3/lib/libpps.a(wlan_pps.o)
 .debug_abbrev  0x00011369      0x37d protocol/src/stats/.output/AR6320/hw.3/lib/libstats.a(wlan_stats.o)
 .debug_abbrev  0x000116e6      0x2f5 protocol/src/stats/.output/AR6320/hw.3/lib/libstats.a(wlan_estimate_linkspeed.o)
 .debug_abbrev  0x000119db      0x350 mac_core/src/soc/pcielp/.output/AR6320/hw.3/lib/libpcielp.a(pcielp_core.o)
 .debug_abbrev  0x00011d2b      0x267 mac_core/src/soc/pcielp/.output/AR6320/hw.3/lib/libpcielp.a(pcielp_ltr.o)
 .debug_abbrev  0x00011f92      0x1f9 mac_core/src/soc/pcielp/.output/AR6320/hw.3/lib/libpcielp.a(pcielp_dsleep.o)
 .debug_abbrev  0x0001218b      0x208 mac_core/src/soc/pcielp/.output/AR6320/hw.3/lib/libpcielp.a(pcielp_l1ss.o)
 .debug_abbrev  0x00012393      0x174 mac_core/src/soc/pcielp/.output/AR6320/hw.3/lib/libpcielp.a(pcielp_buffering.o)
 .debug_abbrev  0x00012507      0x2ee mac_core/src/pktlog/.output/AR6320/hw.3/lib/libpktlog.a(pktlog.o)
 .debug_abbrev  0x000127f5      0x2af protocol/src/tbd/.output/AR6320/hw.3/lib/libtbd.a(tbd.o)
 .debug_abbrev  0x00012aa4      0x343 protocol/src/p2p/.output/AR6320/hw.3/lib/libp2p.a(p2p_main.o)
 .debug_abbrev  0x00012de7      0x287 protocol/src/p2p/.output/AR6320/hw.3/lib/libp2p.a(p2p_parse.o)
 .debug_abbrev  0x0001306e      0x30c protocol/src/p2p/.output/AR6320/hw.3/lib/libp2p.a(p2p_schedules.o)
 .debug_abbrev  0x0001337a      0x359 protocol/src/p2p/.output/AR6320/hw.3/lib/libp2p.a(p2p_go_ps.o)
 .debug_abbrev  0x000136d3      0x34b protocol/src/chatter/.output/AR6320/hw.3/lib/libchatter.a(wlan_chatter.o)
 .debug_abbrev  0x00013a1e      0x2e2 protocol/src/chatter/.output/AR6320/hw.3/lib/libchatter.a(wlan_coalescing.o)
 .debug_abbrev  0x00013d00      0x195 mac_core/src/retention/.output/AR6320/hw.3/lib/libretention.a(wlan_retention.o)
 .debug_abbrev  0x00013e95      0x20d mac_core/src/utils/buf_chunk/.output/AR6320/hw.3/lib/libbufchunk.a(buf_chunk_api.o)
 .debug_abbrev  0x000140a2      0x328 protocol/src/txbf/.output/AR6320/hw.3/lib/libtxbf.a(wlan_txbf.o)
 .debug_abbrev  0x000143ca      0x334 protocol/src/tdls/.output/AR6320/hw.3/lib/libtdls.a(wlan_tdls.o)
 .debug_abbrev  0x000146fe      0x356 protocol/src/tdls/.output/AR6320/hw.3/lib/libtdls.a(wlan_tdls_peer.o)
 .debug_abbrev  0x00014a54      0x321 protocol/src/tdls/.output/AR6320/hw.3/lib/libtdls.a(wlan_tdls_uapsd.o)
 .debug_abbrev  0x00014d75      0x1f0 protocol/src/tcpip/.output/AR6320/hw.3/lib/libtcpip.a(wlan_ipv6.o)
 .debug_abbrev  0x00014f65      0x21f mac_core/src/misc/extend_alloc/.output/AR6320/hw.3/lib/libextendalloc.a(extend_allocate.o)
 .debug_abbrev  0x00015184      0x2be protocol/src/thermal_mgr/.output/AR6320/hw.3/lib/libthermalmgr.a(wlan_thermal_mgr.o)
 .debug_abbrev  0x00015442      0x216 mac_core/src/wal/AR/init/.output/AR6320/hw.3/lib/ar_wal_init.a(ar_wal_init.o)
 .debug_abbrev  0x00015658      0x1cb mac_core/src/wal/whal/init/.output/AR6320/hw.3/lib/libwhal_init.a(whal_init.o)
 .debug_abbrev  0x00015823      0x280 mac_core/src/hostif/wdi_ipa/.output/AR6320/hw.3/lib/libwdi_ipa.a(wdi_ipa.o)
 .debug_abbrev  0x00015aa3      0x3cc mac_core/src/hostif/wdi_ipa/.output/AR6320/hw.3/lib/libwdi_ipa.a(wdi_ipa_rx.o)
 .debug_abbrev  0x00015e6f      0x34f mac_core/src/hostif/wdi_ipa/.output/AR6320/hw.3/lib/libwdi_ipa.a(wdi_ipa_tx.o)
 .debug_abbrev  0x000161be      0x19f mac_core/src/hostif/hif/hif_dbguart/.output/AR6320/hw.3/lib/lib_hif_dbguart.a(hif_dbguart_install.o)
 .debug_abbrev  0x0001635d      0x317 mac_core/src/hostif/hif/hif_dbguart/.output/AR6320/hw.3/lib/lib_hif_dbguart.a(hif_dbguart.o)
 .debug_abbrev  0x00016674      0x32c protocol/src/lpi/.output/AR6320/hw.3/lib/liblpi.a(wlan_lpi.o)
 .debug_abbrev  0x000169a0      0x2dc protocol/src/profile/.output/AR6320/hw.3/lib/libwlanprofile.a(wlan_profile.o)
 .debug_abbrev  0x00016c7c      0x36e protocol/src/offload/.output/AR6320/hw.3/lib/liboffload.a(wlan_arp_ns_offload.o)
 .debug_abbrev  0x00016fea      0x338 protocol/src/offload/.output/AR6320/hw.3/lib/liboffload.a(wlan_beacon_tx_offload.o)
 .debug_abbrev  0x00017322      0x37c protocol/src/offload/.output/AR6320/hw.3/lib/liboffload.a(wlan_network_list_offload.o)
 .debug_abbrev  0x0001769e      0x33b protocol/src/offload/.output/AR6320/hw.3/lib/liboffload.a(wlan_swbmiss_offload.o)
 .debug_abbrev  0x000179d9      0x322 protocol/src/framegen/.output/AR6320/hw.3/lib/libframegen.a(wlan_framegen.o)
 .debug_abbrev  0x00017cfb      0x1ff protocol/src/offload_mgr/stub/.output/AR6320/hw.3/lib/liboffload_mgr_stub.a(offload_mgr_stub.o)
 .debug_abbrev  0x00017efa      0x246 protocol/src/offload_mgr/stub/.output/AR6320/hw.3/lib/liboffload_mgr_stub.a(wlan_wow_stub.o)
 .debug_abbrev  0x00018140      0x243 mac_core/src/misc/codeswap/.output/AR6320/hw.3/lib/libcodeswap.a(codeswap.o)
 .debug_abbrev  0x00018383      0x1f5 mac_core/src/misc/codeswap/.output/AR6320/hw.3/lib/libcodeswap.a(codeswap_dmamgr.o)
 .debug_abbrev  0x00018578      0x246 protocol/src/scan/stub/.output/AR6320/hw.3/lib/libscan_stub.a(wlan_scan_sch_stub.o)
 .debug_abbrev  0x000187be      0x32c protocol/src/blockack/.output/AR6320/hw.3/lib/libblockack.a(wlan_blockack.o)
 .debug_abbrev  0x00018aea      0x246 protocol/src/init/stub/.output/AR6320/hw.3/lib/libwlaninit_stub.a(wlan_buf_stub.o)
 .debug_abbrev  0x00018d30      0x246 protocol/src/init/stub/.output/AR6320/hw.3/lib/libwlaninit_stub.a(wlan_dev_stub.o)
 .debug_abbrev  0x00018f76      0x246 protocol/src/init/stub/.output/AR6320/hw.3/lib/libwlaninit_stub.a(wlan_peer_stub.o)
 .debug_abbrev  0x000191bc      0x246 mac_core/src/data_txrx/stub/.output/AR6320/hw.3/lib/libdatatxrx_stub.a(ieee80211_hdr_stub.o)
 .debug_abbrev  0x00019402      0x246 protocol/src/vdev_mgr/stub/.output/AR6320/hw.3/lib/libvdevmgr_stub.a(wlan_vdev_stub.o)
 .debug_abbrev  0x00019648      0x246 protocol/src/mgmt_txrx/stub/.output/AR6320/hw.3/lib/libmgmttxrx_stub.a(wlan_mgmt_local_txrx_stub.o)
 .debug_abbrev  0x0001988e      0x1ff protocol/src/mgmt_txrx/stub/.output/AR6320/hw.3/lib/libmgmttxrx_stub.a(ieee_mgmt_rx_stub.o)
 .debug_abbrev  0x00019a8d      0x246 protocol/src/mgmt/stub/.output/AR6320/hw.3/lib/libmgmt_stub.a(wlan_beacon_stub.o)
 .debug_abbrev  0x00019cd3      0x246 protocol/src/mgmt/stub/.output/AR6320/hw.3/lib/libmgmt_stub.a(wlan_ie_utils_stub.o)
 .debug_abbrev  0x00019f19      0x246 protocol/src/p2p/stub/.output/AR6320/hw.3/lib/libp2p_stub.a(p2p_stub.o)
 .debug_abbrev  0x0001a15f      0x331 mac_core/src/wal/whal/reset/.output/AR6320/hw.3/lib/ar6000_cal.a(ar6320_cal.o)
 .debug_abbrev  0x0001a490      0x2fd mac_core/src/wal/whal/reset/.output/AR6320/hw.3/lib/ar6000_cal.a(ar6320_rxdc_cal.o)
 .debug_abbrev  0x0001a78d      0x26e mac_core/src/wal/whal/reset/.output/AR6320/hw.3/lib/ar6000_cal.a(ar6320_iq_cal.o)
 .debug_abbrev  0x0001a9fb      0x2b2 mac_core/src/wal/whal/reset/.output/AR6320/hw.3/lib/ar6000_cal.a(ar6320_pef_cal.o)
 .debug_abbrev  0x0001acad      0x28a protocol/src/unit_test/.output/AR6320/hw.3/lib/libunittest.a(unit_test.o)
 .debug_abbrev  0x0001af37      0x2ef protocol/src/frameparse/.output/AR6320/hw.3/lib/libframeparse.a(wlan_frameparse.o)
 .debug_abbrev  0x0001b226      0x373 protocol/src/nan/.output/AR6320/hw.3/lib/libnanwlan.a(wlan_nan.o)
 .debug_abbrev  0x0001b599      0x3b8 protocol/src/nan/.output/AR6320/hw.3/lib/libnanwlan.a(wlan_nan_sync.o)
 .debug_abbrev  0x0001b951      0x3b3 protocol/src/nan/.output/AR6320/hw.3/lib/libnanwlan.a(wlan_nan_mac.o)
 .debug_abbrev  0x0001bd04      0x3bc protocol/src/nan/.output/AR6320/hw.3/lib/libnanwlan.a(wlan_nan_publish.o)
 .debug_abbrev  0x0001c0c0      0x3a3 protocol/src/nan/.output/AR6320/hw.3/lib/libnanwlan.a(wlan_nan_subscribe.o)
 .debug_abbrev  0x0001c463      0x3ad protocol/src/nan/.output/AR6320/hw.3/lib/libnanwlan.a(wlan_nan_ctrl.o)
 .debug_abbrev  0x0001c810      0x35e protocol/src/nan/.output/AR6320/hw.3/lib/libnanwlan.a(wlan_nan_de_if.o)
 .debug_abbrev  0x0001cb6e      0x2d8 protocol/src/nan/.output/AR6320/hw.3/lib/libnanwlan.a(wlan_nan_rx.o)
 .debug_abbrev  0x0001ce46      0x343 protocol/src/nan/.output/AR6320/hw.3/lib/libnanwlan.a(wlan_nan_match.o)
 .debug_abbrev  0x0001d189      0x2ba protocol/src/nan/.output/AR6320/hw.3/lib/libnanwlan.a(wconn_util_list.o)
 .debug_abbrev  0x0001d443      0x381 protocol/src/nan/.output/AR6320/hw.3/lib/libnanwlan.a(wlan_nan_attr.o)
 .debug_abbrev  0x0001d7c4      0x308 protocol/src/nan/.output/AR6320/hw.3/lib/libnanwlan.a(wlan_nan_bloom_filter.o)
 .debug_abbrev  0x0001dacc      0x245 protocol/src/nan/.output/AR6320/hw.3/lib/libnanwlan.a(wlan_nan_crc.o)
 .debug_abbrev  0x0001dd11      0x25c protocol/src/nan/.output/AR6320/hw.3/lib/libnanwlan.a(wlan_nan_log.o)
 .debug_abbrev  0x0001df6d      0x236 protocol/src/nan/.output/AR6320/hw.3/lib/libnanwlan.a(wlan_nan_time.o)
 .debug_abbrev  0x0001e1a3      0x251 protocol/src/nan/.output/AR6320/hw.3/lib/libnanwlan.a(wlan_nan_tlv.o)
 .debug_abbrev  0x0001e3f4      0x268 protocol/src/nan/.output/AR6320/hw.3/lib/libnanwlan.a(wlan_nan_util.o)
 .debug_abbrev  0x0001e65c      0x2ae protocol/src/nan/.output/AR6320/hw.3/lib/libnanwlan.a(wlan_nan_beacon_ie.o)
 .debug_abbrev  0x0001e90a      0x342 protocol/src/nan/.output/AR6320/hw.3/lib/libnanwlan.a(wlan_nan_beacon_rx.o)
 .debug_abbrev  0x0001ec4c      0x2cb protocol/src/nan/.output/AR6320/hw.3/lib/libnanwlan.a(wlan_nan_beacon_tx.o)
 .debug_abbrev  0x0001ef17      0x32c protocol/src/nan/.output/AR6320/hw.3/lib/libnanwlan.a(wlan_nan_cluster_sm.o)
 .debug_abbrev  0x0001f243      0x334 protocol/src/nan/.output/AR6320/hw.3/lib/libnanwlan.a(wlan_nan_scan.o)
 .debug_abbrev  0x0001f577      0x304 protocol/src/nan/.output/AR6320/hw.3/lib/libnanwlan.a(wlan_nan_sched.o)
 .debug_abbrev  0x0001f87b      0x1d3 protocol/src/nan/.output/AR6320/hw.3/lib/libnanwlan.a(sha2.o)
 .debug_abbrev  0x0001fa4e      0x330 protocol/src/extscan/.output/AR6320/hw.3/lib/libextscan.a(wlan_extscan_main.o)
 .debug_abbrev  0x0001fd7e      0x31b protocol/src/extscan/.output/AR6320/hw.3/lib/libextscan.a(wlan_extscan_wlan_change.o)
 .debug_abbrev  0x00020099      0x2ab protocol/src/extscan/.output/AR6320/hw.3/lib/libextscan.a(wlan_extscan_wmi.o)
 .debug_abbrev  0x00020344      0x319 protocol/src/extscan/.output/AR6320/hw.3/lib/libextscan.a(wlan_extscan_bssid.o)
 .debug_abbrev  0x0002065d      0x353 protocol/src/extscan/.output/AR6320/hw.3/lib/libextscan.a(wlan_extscan_bucket.o)
 .debug_abbrev  0x000209b0      0x336 protocol/src/extscan/.output/AR6320/hw.3/lib/libextscan.a(wlan_extscan_hotlist.o)
 .debug_abbrev  0x00020ce6      0x368 mac_core/src/wal/AR/rtt/.output/AR6320/hw.3/lib/ar_wal_rtt.a(wal_rtt.o)
 .debug_abbrev  0x0002104e      0x181 mac_core/patch/AR6320/v3/.output/AR6320/hw.3/lib/lib_maccore_patches.a(install_patches.o)
 .debug_abbrev  0x000211cf      0x1b4 mac_core/patch/AR6320/v3/.output/AR6320/hw.3/lib/lib_maccore_patches.a(whal_install_patches.o)
 .debug_abbrev  0x00021383      0x205 mac_core/patch/AR6320/v3/.output/AR6320/hw.3/lib/lib_maccore_patches.a(wal_install_patches.o)
 .debug_abbrev  0x00021588      0x2cf mac_core/patch/AR6320/v3/.output/AR6320/hw.3/lib/lib_maccore_patches.a(ar_wal_connection_pause_patch.o)
 .debug_abbrev  0x00021857      0x385 mac_core/patch/AR6320/v3/.output/AR6320/hw.3/lib/lib_maccore_patches.a(ar_wal_phy_dev_patch.o)
 .debug_abbrev  0x00021bdc      0x31d mac_core/patch/AR6320/v3/.output/AR6320/hw.3/lib/lib_maccore_patches.a(cmnos_retention_patch.o)
 .debug_abbrev  0x00021ef9      0x365 mac_core/patch/AR6320/v3/.output/AR6320/hw.3/lib/lib_maccore_patches.a(ar_wal_tx_de_patch.o)
 .debug_abbrev  0x0002225e      0x33f mac_core/patch/AR6320/v3/.output/AR6320/hw.3/lib/lib_maccore_patches.a(ar_wal_local_frames_wifi_ip01_patch.o)
 .debug_abbrev  0x0002259d      0x23c mac_core/patch/AR6320/v3/.output/AR6320/hw.3/lib/lib_maccore_patches.a(pool_mgr_patch.o)
 .debug_abbrev  0x000227d9      0x35f mac_core/patch/AR6320/v3/.output/AR6320/hw.3/lib/lib_maccore_patches.a(ar_wal_rx_patch.o)
 .debug_abbrev  0x00022b38      0x341 mac_core/patch/AR6320/v3/.output/AR6320/hw.3/lib/lib_maccore_patches.a(ar_wal_rx_offload_patch.o)
 .debug_abbrev  0x00022e79      0x274 mac_core/patch/AR6320/v3/.output/AR6320/hw.3/lib/lib_maccore_patches.a(ar_wal_rx_common_patch.o)
 .debug_abbrev  0x000230ed      0x327 mac_core/patch/AR6320/v3/.output/AR6320/hw.3/lib/lib_maccore_patches.a(ar_wal_vdev_patch.o)
 .debug_abbrev  0x00023414      0x2f9 mac_core/patch/AR6320/v3/.output/AR6320/hw.3/lib/lib_maccore_patches.a(ar_tx_q_enque_patch.o)
 .debug_abbrev  0x0002370d      0x35d mac_core/patch/AR6320/v3/.output/AR6320/hw.3/lib/lib_maccore_patches.a(tx_sched_patch.o)
 .debug_abbrev  0x00023a6a      0x2f1 mac_core/patch/AR6320/v3/.output/AR6320/hw.3/lib/lib_maccore_patches.a(ar_wal_tx_send_patch.o)
 .debug_abbrev  0x00023d5b      0x2b5 mac_core/patch/AR6320/v3/.output/AR6320/hw.3/lib/lib_maccore_patches.a(ar_wal_chain_mgmt_patch.o)
 .debug_abbrev  0x00024010      0x364 mac_core/patch/AR6320/v3/.output/AR6320/hw.3/lib/lib_maccore_patches.a(ar_wal_peer_patch.o)
 .debug_abbrev  0x00024374      0x356 mac_core/patch/AR6320/v3/.output/AR6320/hw.3/lib/lib_maccore_patches.a(ar600P_txbf_patch.o)
 .debug_abbrev  0x000246ca      0x29f mac_core/patch/AR6320/v3/.output/AR6320/hw.3/lib/lib_maccore_patches.a(wal_pps_patch.o)
 .debug_abbrev  0x00024969      0x2d8 mac_core/patch/AR6320/v3/.output/AR6320/hw.3/lib/lib_maccore_patches.a(ar_xmit_wifi_ip01_patch.o)
 .debug_abbrev  0x00024c41      0x2f3 mac_core/patch/AR6320/v3/.output/AR6320/hw.3/lib/lib_maccore_patches.a(ar_wal_channel_change_patch.o)
 .debug_abbrev  0x00024f34      0x325 mac_core/patch/AR6320/v3/.output/AR6320/hw.3/lib/lib_maccore_patches.a(ar_wal_rc_patch.o)
 .debug_abbrev  0x00025259      0x24c mac_core/patch/AR6320/v3/.output/AR6320/hw.3/lib/lib_maccore_patches.a(wal_rtt_patch.o)
 .debug_abbrev  0x000254a5      0x205 mac_core/patch/AR6320/v3/.output/AR6320/hw.3/lib/lib_maccore_patches.a(whal_rtt_patch.o)
 .debug_abbrev  0x000256aa      0x25f mac_core/patch/AR6320/v3/.output/AR6320/hw.3/lib/lib_maccore_patches.a(dbglog_patch.o)
 .debug_abbrev  0x00025909      0x24f mac_core/patch/AR6320/v3/.output/AR6320/hw.3/lib/lib_maccore_patches.a(ar600p_beacon_patch.o)
 .debug_abbrev  0x00025b58      0x2da mac_core/patch/AR6320/v3/.output/AR6320/hw.3/lib/lib_maccore_patches.a(ar6000_power_patch.o)
 .debug_abbrev  0x00025e32      0x266 mac_core/patch/AR6320/v3/.output/AR6320/hw.3/lib/lib_maccore_patches.a(ar6000_interrupt_patch.o)
 .debug_abbrev  0x00026098      0x250 mac_core/patch/AR6320/v3/.output/AR6320/hw.3/lib/lib_maccore_patches.a(cmnos_intrinf_patch.o)
 .debug_abbrev  0x000262e8      0x28d mac_core/patch/AR6320/v3/.output/AR6320/hw.3/lib/lib_maccore_patches.a(patch_pcie.o)
 .debug_abbrev  0x00026575      0x375 mac_core/patch/AR6320/v3/.output/AR6320/hw.3/lib/lib_maccore_patches.a(patch_usb.o)
 .debug_abbrev  0x000268ea      0x29e mac_core/patch/AR6320/v3/.output/AR6320/hw.3/lib/lib_maccore_patches.a(wal_beacon_patch.o)
 .debug_abbrev  0x00026b88      0x285 mac_core/patch/AR6320/v3/.output/AR6320/hw.3/lib/lib_maccore_patches.a(wal_swba_patch.o)
 .debug_abbrev  0x00026e0d      0x2e7 mac_core/patch/AR6320/v3/.output/AR6320/hw.3/lib/lib_maccore_patches.a(ar600P_retention_patch.o)
 .debug_abbrev  0x000270f4      0x216 mac_core/patch/AR6320/v3/.output/AR6320/hw.3/lib/lib_maccore_patches.a(ar_wal_rmc_patch.o)
 .debug_abbrev  0x0002730a      0x1d5 mac_core/patch/AR6320/v3/.output/AR6320/hw.3/lib/lib_maccore_patches.a(whal_rgc_patch.o)
 .debug_abbrev  0x000274df      0x212 mac_core/patch/AR6320/v3/.output/AR6320/hw.3/lib/lib_maccore_patches.a(patch_hif_ce.o)
 .debug_abbrev  0x000276f1      0x2ef mac_core/patch/AR6320/v3/.output/AR6320/hw.3/lib/lib_maccore_patches.a(patch_whal_coex.o)
 .debug_abbrev  0x000279e0      0x24b mac_core/patch/AR6320/v3/.output/AR6320/hw.3/lib/lib_maccore_patches.a(patch_whal_mws.o)
 .debug_abbrev  0x00027c2b      0x2b2 mac_core/patch/AR6320/v3/.output/AR6320/hw.3/lib/lib_maccore_patches.a(patch_whal_mci.o)
 .debug_abbrev  0x00027edd      0x2af mac_core/patch/AR6320/v3/.output/AR6320/hw.3/lib/lib_maccore_patches.a(ar_wal_tx_dm_patch.o)
 .debug_abbrev  0x0002818c      0x2e1 mac_core/patch/AR6320/v3/.output/AR6320/hw.3/lib/lib_maccore_patches.a(patch_copy_engine.o)
 .debug_abbrev  0x0002846d      0x283 mac_core/patch/AR6320/v3/.output/AR6320/hw.3/lib/lib_maccore_patches.a(wal_concurrency_patch.o)
 .debug_abbrev  0x000286f0      0x2e6 mac_core/patch/AR6320/v3/.output/AR6320/hw.3/lib/lib_maccore_patches.a(ar_wal_tdls_patch.o)
 .debug_abbrev  0x000289d6      0x1ed mac_core/patch/AR6320/v3/.output/AR6320/hw.3/lib/lib_maccore_patches.a(cmnos_timer_patch.o)
 .debug_abbrev  0x00028bc3      0x28f mac_core/patch/AR6320/v3/.output/AR6320/hw.3/lib/lib_maccore_patches.a(ar_wal_tx_hcm_patch.o)
 .debug_abbrev  0x00028e52      0x2e2 mac_core/patch/AR6320/v3/.output/AR6320/hw.3/lib/lib_maccore_patches.a(ar_wal_tdls_conn_table_patch.o)
 .debug_abbrev  0x00029134      0x28e mac_core/patch/AR6320/v3/.output/AR6320/hw.3/lib/lib_maccore_patches.a(ar600P_recv_patch.o)
 .debug_abbrev  0x000293c2      0x1c5 mac_core/patch/AR6320/v3/.output/AR6320/hw.3/lib/lib_maccore_patches.a(patch_gpio.o)
 .debug_abbrev  0x00029587      0x1ff mac_core/patch/AR6320/v3/.output/AR6320/hw.3/lib/lib_maccore_patches.a(os_install_wlan_extra_memory_patches.o)
 .debug_abbrev  0x00029786      0x1b8 mac_core/patch/AR6320/v3/.output/AR6320/hw.3/lib/lib_maccore_patches.a(patch_athos_main.o)
 .debug_abbrev  0x0002993e      0x234 mac_core/patch/AR6320/v3/.output/AR6320/hw.3/lib/lib_maccore_patches.a(cmnos_misc_patch.o)
 .debug_abbrev  0x00029b72      0x1ea mac_core/patch/AR6320/v3/.output/AR6320/hw.3/lib/lib_maccore_patches.a(sha1_patch.o)
 .debug_abbrev  0x00029d5c      0x1ab mac_core/patch/AR6320/v3/.output/AR6320/hw.3/lib/lib_maccore_patches.a(qheap_patch.o)
 .debug_abbrev  0x00029f07      0x1fb mac_core/patch/AR6320/v3/.output/AR6320/hw.3/lib/lib_maccore_patches.a(patch_hif_sdio.o)
 .debug_abbrev  0x0002a102      0x2b3 mac_core/patch/AR6320/v3/.output/AR6320/hw.3/lib/lib_maccore_patches.a(ar_wal_txbf_patch.o)
 .debug_abbrev  0x0002a3b5      0x1fd mac_core/patch/AR6320/v3/.output/AR6320/hw.3/lib/lib_maccore_patches.a(wmi_dbgloghook_patch.o)
 .debug_abbrev  0x0002a5b2      0x2a5 mac_core/patch/AR6320/v3/.output/AR6320/hw.3/lib/lib_maccore_patches.a(cmnos_allocram_patch.o)
 .debug_abbrev  0x0002a857      0x3ac protocol/src/extwow/.output/AR6320/hw.3/lib/libextwow.a(wlan_extwow.o)
 .debug_abbrev  0x0002ac03      0x19f halphy/patch/AR6320/v3/.output/AR6320/hw.3/lib/lib_halphy_patches.a(halphy_install_patches.o)
 .debug_abbrev  0x0002ada2      0x306 halphy/patch/AR6320/v3/.output/AR6320/hw.3/lib/lib_halphy_patches.a(ar6000_nf_cal_patch.o)
 .debug_abbrev  0x0002b0a8      0x2f2 halphy/patch/AR6320/v3/.output/AR6320/hw.3/lib/lib_halphy_patches.a(ar6000_ani_patch.o)
 .debug_abbrev  0x0002b39a      0x2a0 halphy/patch/AR6320/v3/.output/AR6320/hw.3/lib/lib_halphy_patches.a(ar6320_ini_patch.o)
 .debug_abbrev  0x0002b63a      0x299 halphy/patch/AR6320/v3/.output/AR6320/hw.3/lib/lib_halphy_patches.a(ar6320_tpc_config_patch.o)
 .debug_abbrev  0x0002b8d3      0x3aa halphy/patch/AR6320/v3/.output/AR6320/hw.3/lib/lib_halphy_patches.a(ar6320_eeprom_patch.o)
 .debug_abbrev  0x0002bc7d      0x345 halphy/patch/AR6320/v3/.output/AR6320/hw.3/lib/lib_halphy_patches.a(ar600P_reset_patch.o)
 .debug_abbrev  0x0002bfc2      0x407 halphy/patch/AR6320/v3/.output/AR6320/hw.3/lib/lib_halphy_patches.a(ar6000_paprd_patch.o)
 .debug_abbrev  0x0002c3c9      0x24b halphy/patch/AR6320/v3/.output/AR6320/hw.3/lib/lib_halphy_patches.a(ar6000_phy_patch.o)
 .debug_abbrev  0x0002c614       0x14 /cad/tensilica/chips/peregrine/RE-2013.3-linux/peregrine/xtensa-elf/lib/xcc//libgcc.a(_divsi3.o)
 .debug_abbrev  0x0002c628       0x14 /cad/tensilica/chips/peregrine/RE-2013.3-linux/peregrine/xtensa-elf/lib/xcc//libgcc.a(_modsi3.o)
 .debug_abbrev  0x0002c63c       0x14 /cad/tensilica/chips/peregrine/RE-2013.3-linux/peregrine/xtensa-elf/lib/xcc//libgcc.a(_udivsi3.o)
 .debug_abbrev  0x0002c650       0x14 /cad/tensilica/chips/peregrine/RE-2013.3-linux/peregrine/xtensa-elf/lib/xcc//libgcc.a(_umodsi3.o)
 .debug_abbrev  0x0002c664       0x14 /cad/tensilica/chips/peregrine/RE-2013.3-linux/peregrine/xtensa-elf/lib/xcc//libgcc.a(_ashldi3.o)
 .debug_abbrev  0x0002c678       0x14 /cad/tensilica/chips/peregrine/RE-2013.3-linux/peregrine/xtensa-elf/lib/xcc//libgcc.a(_ashrdi3.o)
 .debug_abbrev  0x0002c68c       0x14 /cad/tensilica/chips/peregrine/RE-2013.3-linux/peregrine/xtensa-elf/lib/xcc//libgcc.a(_lshrdi3.o)
 .debug_abbrev  0x0002c6a0       0x14 /cad/tensilica/chips/peregrine/RE-2013.3-linux/peregrine/xtensa-elf/lib/xcc//libgcc.a(_muldf3.o)
 .debug_abbrev  0x0002c6b4       0x14 /cad/tensilica/chips/peregrine/RE-2013.3-linux/peregrine/xtensa-elf/lib/xcc//libgcc.a(_fixunsdfsi.o)
 .debug_abbrev  0x0002c6c8       0x14 /cad/tensilica/chips/peregrine/RE-2013.3-linux/peregrine/xtensa-elf/lib/xcc//libgcc.a(_floatsidf.o)
 .debug_abbrev  0x0002c6dc       0x9c /cad/tensilica/chips/peregrine/RE-2013.3-linux/peregrine/xtensa-elf/lib/xcc//libgcc.a(_muldi3.o)
 .debug_abbrev  0x0002c778       0x9b /cad/tensilica/chips/peregrine/RE-2013.3-linux/peregrine/xtensa-elf/lib/xcc//libgcc.a(_udivdi3.o)
 .debug_abbrev  0x0002c813       0xa8 /cad/tensilica/chips/peregrine/RE-2013.3-linux/peregrine/xtensa-elf/lib/xcc//libgcc.a(_umoddi3.o)
 .debug_abbrev  0x0002c8bb       0x12 /cad/tensilica/chips/peregrine/RE-2013.3-linux/peregrine/xtensa-elf/lib/xcc//libgcc.a(lib2funcs.o)
 .debug_abbrev  0x0002c8cd      0x1cb protocol/src/tcpip/.output/AR6320/hw.3/lib/libtcpip.a(wlan_pb.o)
 .debug_abbrev  0x0002ca98      0x1e0 protocol/src/tcpip/.output/AR6320/hw.3/lib/libtcpip.a(wlan_tcpip.o)
 .debug_abbrev  0x0002cc78      0x258 mac_core/src/misc/serport/.output/AR6320/hw.3/lib/libserport.a(serial_if.o)
 .debug_abbrev  0x0002ced0      0x246 mac_core/src/misc/serport/.output/AR6320/hw.3/lib/libserport.a(serial_port.o)
 .debug_abbrev  0x0002d116      0x298 mac_core/src/misc/uartserp/.output/AR6320/hw.3/lib/libuartserp.a(uartserp.o)
 .debug_abbrev  0x0002d3ae      0x30a mac_core/src/wal/AR/nan/.output/AR6320/hw.3/lib/ar_wal_nan.a(wal_nan_mac.o)
 .debug_abbrev  0x0002d6b8      0x26f mac_core/src/wal/whal/rtt/.output/AR6320/hw.3/lib/whal_rtt.a(whal_rtt.o)

.debug_line     0x00000000    0xb5079
 *(.debug_line)
 .debug_line    0x00000000      0x4b0 mac_core/patch/AR6320/v3/.output/AR6320/hw.3/obj/app_start.o
 .debug_line    0x000004b0      0x958 protocol/src/init/.output/AR6320/hw.3/lib/libwlaninit.a(wlan_init.o)
 .debug_line    0x00000e08      0xff5 protocol/src/init/.output/AR6320/hw.3/lib/libwlaninit.a(wlan_peer.o)
 .debug_line    0x00001dfd      0x44e protocol/src/init/.output/AR6320/hw.3/lib/libwlaninit.a(umac_init.o)
 .debug_line    0x0000224b      0x2d6 protocol/src/init/.output/AR6320/hw.3/lib/libwlaninit.a(wlan_bss.o)
 .debug_line    0x00002521      0xb51 protocol/src/init/.output/AR6320/hw.3/lib/libwlaninit.a(wlan_buf.o)
 .debug_line    0x00003072     0x12d3 protocol/src/init/.output/AR6320/hw.3/lib/libwlaninit.a(wlan_dev.o)
 .debug_line    0x00004345      0x5e1 mac_core/src/mac_core_init/.output/AR6320/hw.3/lib/libmaccoreinit.a(mac_core_init.o)
 .debug_line    0x00004926      0x2ac protocol/src/cfg/.output/AR6320/hw.3/lib/libcfg.a(cfg.o)
 .debug_line    0x00004bd2     0x56c6 mac_core/src/wal/AR/coex/.output/AR6320/hw.3/lib/wal_coex.a(wal_coex.o)
 .debug_line    0x0000a298     0x3626 mac_core/src/wal/AR/coex/.output/AR6320/hw.3/lib/wal_coex.a(wal_btcoex.o)
 .debug_line    0x0000d8be     0x22ec mac_core/src/wal/AR/coex/.output/AR6320/hw.3/lib/wal_coex.a(wal_mwscoex.o)
 .debug_line    0x0000fbaa      0x402 mac_core/src/wal/AR/coex/.output/AR6320/hw.3/lib/wal_coex.a(wal_mwscoex_crc.o)
 .debug_line    0x0000ffac     0x11b3 mac_core/src/wal/AR/coex/.output/AR6320/hw.3/lib/wal_coex.a(qmi_idl_lib.o)
 .debug_line    0x0001115f      0x515 mac_core/src/wal/AR/coex/.output/AR6320/hw.3/lib/wal_coex.a(qmi_idl_accessor.o)
 .debug_line    0x00011674      0x28f mac_core/src/wal/AR/coex/.output/AR6320/hw.3/lib/wal_coex.a(coexistence_service_v02.o)
 .debug_line    0x00011903      0x36b mac_core/src/wal/whal/ini/.output/AR6320/hw.3/lib/libwhalini.a(whalini.o)
 .debug_line    0x00011c6e      0x58c mac_core/src/data_txrx/.output/AR6320/hw.3/lib/libdatatxrx.a(data_txrx.o)
 .debug_line    0x000121fa      0x38e mac_core/src/data_txrx/.output/AR6320/hw.3/lib/libdatatxrx.a(ieee80211_hdr.o)
 .debug_line    0x00012588     0x13c2 mac_core/src/data_txrx/.output/AR6320/hw.3/lib/libdatatxrx.a(data_rx.o)
 .debug_line    0x0001394a      0x73f mac_core/src/data_txrx/.output/AR6320/hw.3/lib/libdatatxrx.a(data_rx_peer.o)
 .debug_line    0x00014089      0x3f0 mac_core/src/data_txrx/.output/AR6320/hw.3/lib/libdatatxrx.a(data_rx_pn.o)
 .debug_line    0x00014479     0x1338 mac_core/src/data_txrx/.output/AR6320/hw.3/lib/libdatatxrx.a(data_rx_reorder.o)
 .debug_line    0x000157b1      0x398 protocol/src/mgmt_txrx/.output/AR6320/hw.3/lib/libmgmttxrx.a(ieee_mgmt_rx.o)
 .debug_line    0x00015b49      0x94b protocol/src/mgmt_txrx/.output/AR6320/hw.3/lib/libmgmttxrx.a(wlan_mgmt_local_txrx.o)
 .debug_line    0x00016494      0xbdc protocol/src/mgmt_txrx/.output/AR6320/hw.3/lib/libmgmttxrx.a(wlan_mgmt_txrx.o)
 .debug_line    0x00017070     0x2476 protocol/src/vdev_mgr/.output/AR6320/hw.3/lib/libvdevmgr.a(wlan_vdev.o)
 .debug_line    0x000194e6      0x8e1 protocol/src/vdev_mgr/.output/AR6320/hw.3/lib/libvdevmgr.a(wlan_vdev_keepalive.o)
 .debug_line    0x00019dc7      0xf39 protocol/src/vdev_mgr/.output/AR6320/hw.3/lib/libvdevmgr.a(wlan_vdev_misc.o)
 .debug_line    0x0001ad00      0xc48 protocol/src/vdev_mgr/.output/AR6320/hw.3/lib/libvdevmgr.a(wlan_vdev_pause.o)
 .debug_line    0x0001b948     0x19b2 protocol/src/vdev_mgr/.output/AR6320/hw.3/lib/libvdevmgr.a(wlan_vdev_schedule.o)
 .debug_line    0x0001d2fa      0x470 protocol/src/key_mgmt/.output/AR6320/hw.3/lib/libkeymgmt.a(wlan_key_mgmt.o)
 .debug_line    0x0001d76a     0x2906 mac_core/src/ratectrl/.output/AR6320/hw.3/lib/libratectrl_11ac.a(ratectrl_11ac.o)
 .debug_line    0x00020070      0xbf6 mac_core/src/ratectrl/.output/AR6320/hw.3/lib/libratectrl_11ac.a(ratectrl_11ac_if.o)
 .debug_line    0x00020c66      0x363 mac_core/src/ratectrl/.output/AR6320/hw.3/lib/libratectrl_11ac.a(ratectrl_peer_state.o)
 .debug_line    0x00020fc9     0x2753 protocol/src/rtt/.output/AR6320/hw.3/lib/librtt.a(wlan_rtt.o)
 .debug_line    0x0002371c      0x75a protocol/src/phyerr/.output/AR6320/hw.3/lib/libphyerr.a(wlan_dfs_phyerr_filter.o)
 .debug_line    0x00023e76      0x83e protocol/src/phyerr/.output/AR6320/hw.3/lib/libphyerr.a(wlan_phyerr.o)
 .debug_line    0x000246b4      0x76e protocol/src/rfkill/.output/AR6320/hw.3/lib/librfkill.a(wlan_rfkill.o)
 .debug_line    0x00024e22      0x7c6 protocol/src/wmi/.output/AR6320/hw.3/lib/libumacwmi.a(umac_wmi_events.o)
 .debug_line    0x000255e8      0x720 protocol/src/wmi/.output/AR6320/hw.3/lib/libumacwmi.a(wlan_wmi.o)
 .debug_line    0x00025d08      0x898 protocol/src/wmi/.output/AR6320/hw.3/lib/libumacwmi.a(wlan_wmi_events.o)
 .debug_line    0x000265a0      0x424 protocol/src/wmi/.output/AR6320/hw.3/lib/libumacwmi.a(wmi_gpiohook.o)
 .debug_line    0x000269c4      0x88e protocol/src/wmi/.output/AR6320/hw.3/lib/libumacwmi.a(wmi_tlv_helper.o)
 .debug_line    0x00027252      0x2b9 protocol/src/wmi/.output/AR6320/hw.3/lib/libumacwmi.a(umac_wmi.o)
 .debug_line    0x0002750b      0x7f5 protocol/src/offload_mgr/.output/AR6320/hw.3/lib/liboffload_mgr.a(beacon_filter.o)
 .debug_line    0x00027d00      0xa46 protocol/src/offload_mgr/.output/AR6320/hw.3/lib/liboffload_mgr.a(csa_offload_main.o)
 .debug_line    0x00028746      0xc8b protocol/src/offload_mgr/.output/AR6320/hw.3/lib/liboffload_mgr.a(offload_mgr.o)
 .debug_line    0x000293d1      0x4ad protocol/src/offload_mgr/.output/AR6320/hw.3/lib/liboffload_mgr.a(wlan_d0wow.o)
 .debug_line    0x0002987e      0xf0f protocol/src/offload_mgr/.output/AR6320/hw.3/lib/liboffload_mgr.a(wlan_gtk_offload.o)
 .debug_line    0x0002a78d     0x17d3 protocol/src/offload_mgr/.output/AR6320/hw.3/lib/liboffload_mgr.a(wlan_wow.o)
 .debug_line    0x0002bf60     0x13a8 protocol/src/mgmt/.output/AR6320/hw.3/lib/libmgmt.a(wlan_beacon.o)
 .debug_line    0x0002d308      0xeae protocol/src/mgmt/.output/AR6320/hw.3/lib/libmgmt.a(wlan_early_rx_sm.o)
 .debug_line    0x0002e1b6      0x40d protocol/src/mgmt/.output/AR6320/hw.3/lib/libmgmt.a(wlan_ie_utils.o)
 .debug_line    0x0002e5c3      0x3a8 protocol/src/mgmt/.output/AR6320/hw.3/lib/libmgmt.a(wlan_wnm.o)
 .debug_line    0x0002e96b      0x446 protocol/src/power/.output/AR6320/hw.3/lib/libpower.a(wlan_pm_arbiter.o)
 .debug_line    0x0002edb1      0x3af protocol/src/power/.output/AR6320/hw.3/lib/libpower.a(wlan_powersave.o)
 .debug_line    0x0002f160     0x1918 protocol/src/power/.output/AR6320/hw.3/lib/libpower.a(wlan_powersave_ap.o)
 .debug_line    0x00030a78     0x14f8 protocol/src/power/.output/AR6320/hw.3/lib/libpower.a(wlan_powersave_ibss.o)
 .debug_line    0x00031f70     0x1713 protocol/src/power/.output/AR6320/hw.3/lib/libpower.a(wlan_powersave_ibss_nw_sm.o)
 .debug_line    0x00033683      0x60d protocol/src/power/.output/AR6320/hw.3/lib/libpower.a(wlan_powersave_ibss_peer_ps_sm.o)
 .debug_line    0x00033c90      0xd3b protocol/src/power/.output/AR6320/hw.3/lib/libpower.a(wlan_powersave_ibss_self_ps_sm.o)
 .debug_line    0x000349cb     0x12fa protocol/src/power/.output/AR6320/hw.3/lib/libpower.a(wlan_powersave_sta.o)
 .debug_line    0x00035cc5     0x1b7b protocol/src/power/.output/AR6320/hw.3/lib/libpower.a(wlan_powersave_sta_sm.o)
 .debug_line    0x00037840      0x481 protocol/src/power/.output/AR6320/hw.3/lib/libpower.a(wlan_powersave_tdls.o)
 .debug_line    0x00037cc1      0x2dc protocol/src/power/.output/AR6320/hw.3/lib/libpower.a(wlan_qpower.o)
 .debug_line    0x00037f9d     0x10aa protocol/src/power/smps/.output/AR6320/hw.3/lib/libsmps.a(wlan_smps.o)
 .debug_line    0x00039047      0x791 protocol/src/power/smps/.output/AR6320/hw.3/lib/libsmps.a(wlan_smps_sm.o)
 .debug_line    0x000397d8      0x6f0 protocol/src/resmgr/.output/AR6320/hw.3/lib/libresmgr.a(channel_mgr.o)
 .debug_line    0x00039ec8      0x972 protocol/src/resmgr/.output/AR6320/hw.3/lib/libresmgr.a(resmgr.o)
 .debug_line    0x0003a83a      0x845 protocol/src/resmgr/.output/AR6320/hw.3/lib/libresmgr.a(resmgr_dyn_sch.o)
 .debug_line    0x0003b07f     0x298c protocol/src/resmgr/.output/AR6320/hw.3/lib/libresmgr.a(resmgr_ocs.o)
 .debug_line    0x0003da0b      0xecd protocol/src/resmgr/.output/AR6320/hw.3/lib/libresmgr.a(virtual_channel.o)
 .debug_line    0x0003e8d8      0x521 protocol/src/resmgr/.output/AR6320/hw.3/lib/libresmgr.a(virtual_channel_arbiter.o)
 .debug_line    0x0003edf9     0x1b87 mac_core/src/hostif/htc/.output/AR6320/hw.3/lib/libhtc.a(htc.o)
 .debug_line    0x00040980     0x1428 mac_core/src/hostif/htt/.output/AR6320/hw.3/lib/libhtt.a(htt_tgt_hif_svc.o)
 .debug_line    0x00041da8      0xc4c mac_core/src/hostif/htt/.output/AR6320/hw.3/lib/libhtt.a(htt_tgt_rx.o)
 .debug_line    0x000429f4     0x12f8 mac_core/src/hostif/htt/.output/AR6320/hw.3/lib/libhtt.a(htt_tgt_rx_event.o)
 .debug_line    0x00043cec      0x784 mac_core/src/hostif/htt/.output/AR6320/hw.3/lib/libhtt.a(htt_tgt_stats.o)
 .debug_line    0x00044470      0xb93 mac_core/src/hostif/htt/.output/AR6320/hw.3/lib/libhtt.a(htt_tgt_tx.o)
 .debug_line    0x00045003      0x5d0 mac_core/src/utils/sm/.output/AR6320/hw.3/lib/libsm.a(sm.o)
 .debug_line    0x000455d3     0x2784 protocol/src/coex/.output/AR6320/hw.3/lib/libcoex.a(coex.o)
 .debug_line    0x00047d57      0xe50 mac_core/src/hostif/wmisvc/.output/AR6320/hw.3/lib/libwmisvc.a(wmi_svc.o)
 .debug_line    0x00048ba7      0x4bf protocol/src/scan/.output/AR6320/hw.3/lib/libscan.a(wlan_dcs.o)
 .debug_line    0x00049066     0x1209 protocol/src/scan/.output/AR6320/hw.3/lib/libscan.a(wlan_scan_sch.o)
 .debug_line    0x0004a26f     0x108a protocol/src/scan/.output/AR6320/hw.3/lib/libscan.a(wlan_scan_sm.o)
 .debug_line    0x0004b2f9      0x986 protocol/src/scan/.output/AR6320/hw.3/lib/libscan.a(wlan_scan.o)
 .debug_line    0x0004bc7f      0x998 protocol/src/roam/.output/AR6320/hw.3/lib/libroam.a(wlan_roam.o)
 .debug_line    0x0004c617     0x17f8 protocol/src/roam/.output/AR6320/hw.3/lib/libroam.a(wlan_roam_internal.o)
 .debug_line    0x0004de0f      0x403 protocol/src/roam/.output/AR6320/hw.3/lib/libroam.a(wlan_roam_wmi.o)
 .debug_line    0x0004e212      0xaf8 protocol/src/pps/.output/AR6320/hw.3/lib/libpps.a(wlan_pps.o)
 .debug_line    0x0004ed0a     0x1a4b protocol/src/stats/.output/AR6320/hw.3/lib/libstats.a(wlan_stats.o)
 .debug_line    0x00050755      0x7b1 protocol/src/stats/.output/AR6320/hw.3/lib/libstats.a(wlan_estimate_linkspeed.o)
 .debug_line    0x00050f06      0xb4b mac_core/src/soc/pcielp/.output/AR6320/hw.3/lib/libpcielp.a(pcielp_core.o)
 .debug_line    0x00051a51      0x645 mac_core/src/soc/pcielp/.output/AR6320/hw.3/lib/libpcielp.a(pcielp_ltr.o)
 .debug_line    0x00052096      0x378 mac_core/src/soc/pcielp/.output/AR6320/hw.3/lib/libpcielp.a(pcielp_dsleep.o)
 .debug_line    0x0005240e      0x49c mac_core/src/soc/pcielp/.output/AR6320/hw.3/lib/libpcielp.a(pcielp_l1ss.o)
 .debug_line    0x000528aa      0x269 mac_core/src/soc/pcielp/.output/AR6320/hw.3/lib/libpcielp.a(pcielp_buffering.o)
 .debug_line    0x00052b13      0x486 mac_core/src/pktlog/.output/AR6320/hw.3/lib/libpktlog.a(pktlog.o)
 .debug_line    0x00052f99      0x3c1 protocol/src/tbd/.output/AR6320/hw.3/lib/libtbd.a(tbd.o)
 .debug_line    0x0005335a      0xdea protocol/src/p2p/.output/AR6320/hw.3/lib/libp2p.a(p2p_main.o)
 .debug_line    0x00054144      0x393 protocol/src/p2p/.output/AR6320/hw.3/lib/libp2p.a(p2p_parse.o)
 .debug_line    0x000544d7      0xedf protocol/src/p2p/.output/AR6320/hw.3/lib/libp2p.a(p2p_schedules.o)
 .debug_line    0x000553b6     0x14bb protocol/src/p2p/.output/AR6320/hw.3/lib/libp2p.a(p2p_go_ps.o)
 .debug_line    0x00056871      0xa2c protocol/src/chatter/.output/AR6320/hw.3/lib/libchatter.a(wlan_chatter.o)
 .debug_line    0x0005729d      0xa6b protocol/src/chatter/.output/AR6320/hw.3/lib/libchatter.a(wlan_coalescing.o)
 .debug_line    0x00057d08      0x2cf mac_core/src/retention/.output/AR6320/hw.3/lib/libretention.a(wlan_retention.o)
 .debug_line    0x00057fd7      0x424 mac_core/src/utils/buf_chunk/.output/AR6320/hw.3/lib/libbufchunk.a(buf_chunk_api.o)
 .debug_line    0x000583fb      0xa0f protocol/src/txbf/.output/AR6320/hw.3/lib/libtxbf.a(wlan_txbf.o)
 .debug_line    0x00058e0a      0xd6c protocol/src/tdls/.output/AR6320/hw.3/lib/libtdls.a(wlan_tdls.o)
 .debug_line    0x00059b76     0x27a1 protocol/src/tdls/.output/AR6320/hw.3/lib/libtdls.a(wlan_tdls_peer.o)
 .debug_line    0x0005c317      0x6e9 protocol/src/tdls/.output/AR6320/hw.3/lib/libtdls.a(wlan_tdls_uapsd.o)
 .debug_line    0x0005ca00      0x45a protocol/src/tcpip/.output/AR6320/hw.3/lib/libtcpip.a(wlan_ipv6.o)
 .debug_line    0x0005ce5a      0x4ba mac_core/src/misc/extend_alloc/.output/AR6320/hw.3/lib/libextendalloc.a(extend_allocate.o)
 .debug_line    0x0005d314      0x40b protocol/src/thermal_mgr/.output/AR6320/hw.3/lib/libthermalmgr.a(wlan_thermal_mgr.o)
 .debug_line    0x0005d71f      0x270 mac_core/src/wal/AR/init/.output/AR6320/hw.3/lib/ar_wal_init.a(ar_wal_init.o)
 .debug_line    0x0005d98f      0x291 mac_core/src/wal/whal/init/.output/AR6320/hw.3/lib/libwhal_init.a(whal_init.o)
 .debug_line    0x0005dc20      0x414 mac_core/src/hostif/wdi_ipa/.output/AR6320/hw.3/lib/libwdi_ipa.a(wdi_ipa.o)
 .debug_line    0x0005e034      0xb68 mac_core/src/hostif/wdi_ipa/.output/AR6320/hw.3/lib/libwdi_ipa.a(wdi_ipa_rx.o)
 .debug_line    0x0005eb9c      0xb44 mac_core/src/hostif/wdi_ipa/.output/AR6320/hw.3/lib/libwdi_ipa.a(wdi_ipa_tx.o)
 .debug_line    0x0005f6e0      0x27a mac_core/src/hostif/hif/hif_dbguart/.output/AR6320/hw.3/lib/lib_hif_dbguart.a(hif_dbguart_install.o)
 .debug_line    0x0005f95a      0xe19 mac_core/src/hostif/hif/hif_dbguart/.output/AR6320/hw.3/lib/lib_hif_dbguart.a(hif_dbguart.o)
 .debug_line    0x00060773     0x1644 protocol/src/lpi/.output/AR6320/hw.3/lib/liblpi.a(wlan_lpi.o)
 .debug_line    0x00061db7      0x67e protocol/src/profile/.output/AR6320/hw.3/lib/libwlanprofile.a(wlan_profile.o)
 .debug_line    0x00062435     0x1110 protocol/src/offload/.output/AR6320/hw.3/lib/liboffload.a(wlan_arp_ns_offload.o)
 .debug_line    0x00063545     0x11b6 protocol/src/offload/.output/AR6320/hw.3/lib/liboffload.a(wlan_beacon_tx_offload.o)
 .debug_line    0x000646fb      0xfef protocol/src/offload/.output/AR6320/hw.3/lib/liboffload.a(wlan_network_list_offload.o)
 .debug_line    0x000656ea      0xbec protocol/src/offload/.output/AR6320/hw.3/lib/liboffload.a(wlan_swbmiss_offload.o)
 .debug_line    0x000662d6     0x1931 protocol/src/framegen/.output/AR6320/hw.3/lib/libframegen.a(wlan_framegen.o)
 .debug_line    0x00067c07      0x261 protocol/src/offload_mgr/stub/.output/AR6320/hw.3/lib/liboffload_mgr_stub.a(offload_mgr_stub.o)
 .debug_line    0x00067e68      0x285 protocol/src/offload_mgr/stub/.output/AR6320/hw.3/lib/liboffload_mgr_stub.a(wlan_wow_stub.o)
 .debug_line    0x000680ed      0x4c6 mac_core/src/misc/codeswap/.output/AR6320/hw.3/lib/libcodeswap.a(codeswap.o)
 .debug_line    0x000685b3      0x35a mac_core/src/misc/codeswap/.output/AR6320/hw.3/lib/libcodeswap.a(codeswap_dmamgr.o)
 .debug_line    0x0006890d      0x283 protocol/src/scan/stub/.output/AR6320/hw.3/lib/libscan_stub.a(wlan_scan_sch_stub.o)
 .debug_line    0x00068b90     0x169b protocol/src/blockack/.output/AR6320/hw.3/lib/libblockack.a(wlan_blockack.o)
 .debug_line    0x0006a22b      0x291 protocol/src/init/stub/.output/AR6320/hw.3/lib/libwlaninit_stub.a(wlan_buf_stub.o)
 .debug_line    0x0006a4bc      0x27e protocol/src/init/stub/.output/AR6320/hw.3/lib/libwlaninit_stub.a(wlan_dev_stub.o)
 .debug_line    0x0006a73a      0x292 protocol/src/init/stub/.output/AR6320/hw.3/lib/libwlaninit_stub.a(wlan_peer_stub.o)
 .debug_line    0x0006a9cc      0x2d2 mac_core/src/data_txrx/stub/.output/AR6320/hw.3/lib/libdatatxrx_stub.a(ieee80211_hdr_stub.o)
 .debug_line    0x0006ac9e      0x283 protocol/src/vdev_mgr/stub/.output/AR6320/hw.3/lib/libvdevmgr_stub.a(wlan_vdev_stub.o)
 .debug_line    0x0006af21      0x2b7 protocol/src/mgmt_txrx/stub/.output/AR6320/hw.3/lib/libmgmttxrx_stub.a(wlan_mgmt_local_txrx_stub.o)
 .debug_line    0x0006b1d8      0x29a protocol/src/mgmt_txrx/stub/.output/AR6320/hw.3/lib/libmgmttxrx_stub.a(ieee_mgmt_rx_stub.o)
 .debug_line    0x0006b472      0x2a9 protocol/src/mgmt/stub/.output/AR6320/hw.3/lib/libmgmt_stub.a(wlan_beacon_stub.o)
 .debug_line    0x0006b71b      0x2ab protocol/src/mgmt/stub/.output/AR6320/hw.3/lib/libmgmt_stub.a(wlan_ie_utils_stub.o)
 .debug_line    0x0006b9c6      0x278 protocol/src/p2p/stub/.output/AR6320/hw.3/lib/libp2p_stub.a(p2p_stub.o)
 .debug_line    0x0006bc3e     0x184c mac_core/src/wal/whal/reset/.output/AR6320/hw.3/lib/ar6000_cal.a(ar6320_cal.o)
 .debug_line    0x0006d48a     0x259c mac_core/src/wal/whal/reset/.output/AR6320/hw.3/lib/ar6000_cal.a(ar6320_rxdc_cal.o)
 .debug_line    0x0006fa26     0x3022 mac_core/src/wal/whal/reset/.output/AR6320/hw.3/lib/ar6000_cal.a(ar6320_iq_cal.o)
 .debug_line    0x00072a48      0xbc6 mac_core/src/wal/whal/reset/.output/AR6320/hw.3/lib/ar6000_cal.a(ar6320_pef_cal.o)
 .debug_line    0x0007360e      0x360 protocol/src/unit_test/.output/AR6320/hw.3/lib/libunittest.a(unit_test.o)
 .debug_line    0x0007396e      0x673 protocol/src/frameparse/.output/AR6320/hw.3/lib/libframeparse.a(wlan_frameparse.o)
 .debug_line    0x00073fe1      0x6c8 protocol/src/nan/.output/AR6320/hw.3/lib/libnanwlan.a(wlan_nan.o)
 .debug_line    0x000746a9     0x1064 protocol/src/nan/.output/AR6320/hw.3/lib/libnanwlan.a(wlan_nan_sync.o)
 .debug_line    0x0007570d     0x2089 protocol/src/nan/.output/AR6320/hw.3/lib/libnanwlan.a(wlan_nan_mac.o)
 .debug_line    0x00077796     0x131f protocol/src/nan/.output/AR6320/hw.3/lib/libnanwlan.a(wlan_nan_publish.o)
 .debug_line    0x00078ab5     0x1355 protocol/src/nan/.output/AR6320/hw.3/lib/libnanwlan.a(wlan_nan_subscribe.o)
 .debug_line    0x00079e0a     0x28f3 protocol/src/nan/.output/AR6320/hw.3/lib/libnanwlan.a(wlan_nan_ctrl.o)
 .debug_line    0x0007c6fd      0xd5d protocol/src/nan/.output/AR6320/hw.3/lib/libnanwlan.a(wlan_nan_de_if.o)
 .debug_line    0x0007d45a      0x510 protocol/src/nan/.output/AR6320/hw.3/lib/libnanwlan.a(wlan_nan_rx.o)
 .debug_line    0x0007d96a      0xf6c protocol/src/nan/.output/AR6320/hw.3/lib/libnanwlan.a(wlan_nan_match.o)
 .debug_line    0x0007e8d6      0x5fb protocol/src/nan/.output/AR6320/hw.3/lib/libnanwlan.a(wconn_util_list.o)
 .debug_line    0x0007eed1     0x1f8e protocol/src/nan/.output/AR6320/hw.3/lib/libnanwlan.a(wlan_nan_attr.o)
 .debug_line    0x00080e5f      0x737 protocol/src/nan/.output/AR6320/hw.3/lib/libnanwlan.a(wlan_nan_bloom_filter.o)
 .debug_line    0x00081596      0x2ae protocol/src/nan/.output/AR6320/hw.3/lib/libnanwlan.a(wlan_nan_crc.o)
 .debug_line    0x00081844      0x36d protocol/src/nan/.output/AR6320/hw.3/lib/libnanwlan.a(wlan_nan_log.o)
 .debug_line    0x00081bb1      0x2c6 protocol/src/nan/.output/AR6320/hw.3/lib/libnanwlan.a(wlan_nan_time.o)
 .debug_line    0x00081e77      0x391 protocol/src/nan/.output/AR6320/hw.3/lib/libnanwlan.a(wlan_nan_tlv.o)
 .debug_line    0x00082208      0x38a protocol/src/nan/.output/AR6320/hw.3/lib/libnanwlan.a(wlan_nan_util.o)
 .debug_line    0x00082592      0x502 protocol/src/nan/.output/AR6320/hw.3/lib/libnanwlan.a(wlan_nan_beacon_ie.o)
 .debug_line    0x00082a94      0xbff protocol/src/nan/.output/AR6320/hw.3/lib/libnanwlan.a(wlan_nan_beacon_rx.o)
 .debug_line    0x00083693      0x581 protocol/src/nan/.output/AR6320/hw.3/lib/libnanwlan.a(wlan_nan_beacon_tx.o)
 .debug_line    0x00083c14      0x8bb protocol/src/nan/.output/AR6320/hw.3/lib/libnanwlan.a(wlan_nan_cluster_sm.o)
 .debug_line    0x000844cf      0x610 protocol/src/nan/.output/AR6320/hw.3/lib/libnanwlan.a(wlan_nan_scan.o)
 .debug_line    0x00084adf      0xfff protocol/src/nan/.output/AR6320/hw.3/lib/libnanwlan.a(wlan_nan_sched.o)
 .debug_line    0x00085ade      0x921 protocol/src/nan/.output/AR6320/hw.3/lib/libnanwlan.a(sha2.o)
 .debug_line    0x000863ff      0x6bc protocol/src/extscan/.output/AR6320/hw.3/lib/libextscan.a(wlan_extscan_main.o)
 .debug_line    0x00086abb      0xb72 protocol/src/extscan/.output/AR6320/hw.3/lib/libextscan.a(wlan_extscan_wlan_change.o)
 .debug_line    0x0008762d      0x7fd protocol/src/extscan/.output/AR6320/hw.3/lib/libextscan.a(wlan_extscan_wmi.o)
 .debug_line    0x00087e2a      0xdbd protocol/src/extscan/.output/AR6320/hw.3/lib/libextscan.a(wlan_extscan_bssid.o)
 .debug_line    0x00088be7      0xa93 protocol/src/extscan/.output/AR6320/hw.3/lib/libextscan.a(wlan_extscan_bucket.o)
 .debug_line    0x0008967a      0x6ca protocol/src/extscan/.output/AR6320/hw.3/lib/libextscan.a(wlan_extscan_hotlist.o)
 .debug_line    0x00089d44     0x1082 mac_core/src/wal/AR/rtt/.output/AR6320/hw.3/lib/ar_wal_rtt.a(wal_rtt.o)
 .debug_line    0x0008adc6      0x302 mac_core/patch/AR6320/v3/.output/AR6320/hw.3/lib/lib_maccore_patches.a(install_patches.o)
 .debug_line    0x0008b0c8      0x2d3 mac_core/patch/AR6320/v3/.output/AR6320/hw.3/lib/lib_maccore_patches.a(whal_install_patches.o)
 .debug_line    0x0008b39b      0x305 mac_core/patch/AR6320/v3/.output/AR6320/hw.3/lib/lib_maccore_patches.a(wal_install_patches.o)
 .debug_line    0x0008b6a0      0x4dc mac_core/patch/AR6320/v3/.output/AR6320/hw.3/lib/lib_maccore_patches.a(ar_wal_connection_pause_patch.o)
 .debug_line    0x0008bb7c      0xd20 mac_core/patch/AR6320/v3/.output/AR6320/hw.3/lib/lib_maccore_patches.a(ar_wal_phy_dev_patch.o)
 .debug_line    0x0008c89c      0x8b9 mac_core/patch/AR6320/v3/.output/AR6320/hw.3/lib/lib_maccore_patches.a(cmnos_retention_patch.o)
 .debug_line    0x0008d155      0xe12 mac_core/patch/AR6320/v3/.output/AR6320/hw.3/lib/lib_maccore_patches.a(ar_wal_tx_de_patch.o)
 .debug_line    0x0008df67      0x93e mac_core/patch/AR6320/v3/.output/AR6320/hw.3/lib/lib_maccore_patches.a(ar_wal_local_frames_wifi_ip01_patch.o)
 .debug_line    0x0008e8a5      0x55f mac_core/patch/AR6320/v3/.output/AR6320/hw.3/lib/lib_maccore_patches.a(pool_mgr_patch.o)
 .debug_line    0x0008ee04     0x29ad mac_core/patch/AR6320/v3/.output/AR6320/hw.3/lib/lib_maccore_patches.a(ar_wal_rx_patch.o)
 .debug_line    0x000917b1      0xe7c mac_core/patch/AR6320/v3/.output/AR6320/hw.3/lib/lib_maccore_patches.a(ar_wal_rx_offload_patch.o)
 .debug_line    0x0009262d      0x3b3 mac_core/patch/AR6320/v3/.output/AR6320/hw.3/lib/lib_maccore_patches.a(ar_wal_rx_common_patch.o)
 .debug_line    0x000929e0      0xcb9 mac_core/patch/AR6320/v3/.output/AR6320/hw.3/lib/lib_maccore_patches.a(ar_wal_vdev_patch.o)
 .debug_line    0x00093699      0x827 mac_core/patch/AR6320/v3/.output/AR6320/hw.3/lib/lib_maccore_patches.a(ar_tx_q_enque_patch.o)
 .debug_line    0x00093ec0      0xbdc mac_core/patch/AR6320/v3/.output/AR6320/hw.3/lib/lib_maccore_patches.a(tx_sched_patch.o)
 .debug_line    0x00094a9c     0x37fa mac_core/patch/AR6320/v3/.output/AR6320/hw.3/lib/lib_maccore_patches.a(ar_wal_tx_send_patch.o)
 .debug_line    0x00098296      0x44a mac_core/patch/AR6320/v3/.output/AR6320/hw.3/lib/lib_maccore_patches.a(ar_wal_chain_mgmt_patch.o)
 .debug_line    0x000986e0     0x1b20 mac_core/patch/AR6320/v3/.output/AR6320/hw.3/lib/lib_maccore_patches.a(ar_wal_peer_patch.o)
 .debug_line    0x0009a200      0xd9f mac_core/patch/AR6320/v3/.output/AR6320/hw.3/lib/lib_maccore_patches.a(ar600P_txbf_patch.o)
 .debug_line    0x0009af9f      0x2ff mac_core/patch/AR6320/v3/.output/AR6320/hw.3/lib/lib_maccore_patches.a(wal_pps_patch.o)
 .debug_line    0x0009b29e      0xd50 mac_core/patch/AR6320/v3/.output/AR6320/hw.3/lib/lib_maccore_patches.a(ar_xmit_wifi_ip01_patch.o)
 .debug_line    0x0009bfee      0x7e4 mac_core/patch/AR6320/v3/.output/AR6320/hw.3/lib/lib_maccore_patches.a(ar_wal_channel_change_patch.o)
 .debug_line    0x0009c7d2      0xde7 mac_core/patch/AR6320/v3/.output/AR6320/hw.3/lib/lib_maccore_patches.a(ar_wal_rc_patch.o)
 .debug_line    0x0009d5b9      0x27b mac_core/patch/AR6320/v3/.output/AR6320/hw.3/lib/lib_maccore_patches.a(wal_rtt_patch.o)
 .debug_line    0x0009d834      0x267 mac_core/patch/AR6320/v3/.output/AR6320/hw.3/lib/lib_maccore_patches.a(whal_rtt_patch.o)
 .debug_line    0x0009da9b      0xa94 mac_core/patch/AR6320/v3/.output/AR6320/hw.3/lib/lib_maccore_patches.a(dbglog_patch.o)
 .debug_line    0x0009e52f      0x30c mac_core/patch/AR6320/v3/.output/AR6320/hw.3/lib/lib_maccore_patches.a(ar600p_beacon_patch.o)
 .debug_line    0x0009e83b      0x687 mac_core/patch/AR6320/v3/.output/AR6320/hw.3/lib/lib_maccore_patches.a(ar6000_power_patch.o)
 .debug_line    0x0009eec2      0x38f mac_core/patch/AR6320/v3/.output/AR6320/hw.3/lib/lib_maccore_patches.a(ar6000_interrupt_patch.o)
 .debug_line    0x0009f251      0x67d mac_core/patch/AR6320/v3/.output/AR6320/hw.3/lib/lib_maccore_patches.a(cmnos_intrinf_patch.o)
 .debug_line    0x0009f8ce      0x5db mac_core/patch/AR6320/v3/.output/AR6320/hw.3/lib/lib_maccore_patches.a(patch_pcie.o)
 .debug_line    0x0009fea9      0xca2 mac_core/patch/AR6320/v3/.output/AR6320/hw.3/lib/lib_maccore_patches.a(patch_usb.o)
 .debug_line    0x000a0b4b      0x331 mac_core/patch/AR6320/v3/.output/AR6320/hw.3/lib/lib_maccore_patches.a(wal_beacon_patch.o)
 .debug_line    0x000a0e7c      0x408 mac_core/patch/AR6320/v3/.output/AR6320/hw.3/lib/lib_maccore_patches.a(wal_swba_patch.o)
 .debug_line    0x000a1284      0x65e mac_core/patch/AR6320/v3/.output/AR6320/hw.3/lib/lib_maccore_patches.a(ar600P_retention_patch.o)
 .debug_line    0x000a18e2      0x279 mac_core/patch/AR6320/v3/.output/AR6320/hw.3/lib/lib_maccore_patches.a(ar_wal_rmc_patch.o)
 .debug_line    0x000a1b5b      0x2ec mac_core/patch/AR6320/v3/.output/AR6320/hw.3/lib/lib_maccore_patches.a(whal_rgc_patch.o)
 .debug_line    0x000a1e47      0x3d3 mac_core/patch/AR6320/v3/.output/AR6320/hw.3/lib/lib_maccore_patches.a(patch_hif_ce.o)
 .debug_line    0x000a221a      0x590 mac_core/patch/AR6320/v3/.output/AR6320/hw.3/lib/lib_maccore_patches.a(patch_whal_coex.o)
 .debug_line    0x000a27aa      0x3e7 mac_core/patch/AR6320/v3/.output/AR6320/hw.3/lib/lib_maccore_patches.a(patch_whal_mws.o)
 .debug_line    0x000a2b91      0x56a mac_core/patch/AR6320/v3/.output/AR6320/hw.3/lib/lib_maccore_patches.a(patch_whal_mci.o)
 .debug_line    0x000a30fb      0x4c6 mac_core/patch/AR6320/v3/.output/AR6320/hw.3/lib/lib_maccore_patches.a(ar_wal_tx_dm_patch.o)
 .debug_line    0x000a35c1      0x74b mac_core/patch/AR6320/v3/.output/AR6320/hw.3/lib/lib_maccore_patches.a(patch_copy_engine.o)
 .debug_line    0x000a3d0c      0x55d mac_core/patch/AR6320/v3/.output/AR6320/hw.3/lib/lib_maccore_patches.a(wal_concurrency_patch.o)
 .debug_line    0x000a4269      0x638 mac_core/patch/AR6320/v3/.output/AR6320/hw.3/lib/lib_maccore_patches.a(ar_wal_tdls_patch.o)
 .debug_line    0x000a48a1      0x377 mac_core/patch/AR6320/v3/.output/AR6320/hw.3/lib/lib_maccore_patches.a(cmnos_timer_patch.o)
 .debug_line    0x000a4c18      0x2eb mac_core/patch/AR6320/v3/.output/AR6320/hw.3/lib/lib_maccore_patches.a(ar_wal_tx_hcm_patch.o)
 .debug_line    0x000a4f03      0x847 mac_core/patch/AR6320/v3/.output/AR6320/hw.3/lib/lib_maccore_patches.a(ar_wal_tdls_conn_table_patch.o)
 .debug_line    0x000a574a      0x3a1 mac_core/patch/AR6320/v3/.output/AR6320/hw.3/lib/lib_maccore_patches.a(ar600P_recv_patch.o)
 .debug_line    0x000a5aeb      0x2ab mac_core/patch/AR6320/v3/.output/AR6320/hw.3/lib/lib_maccore_patches.a(patch_gpio.o)
 .debug_line    0x000a5d96      0x2fb mac_core/patch/AR6320/v3/.output/AR6320/hw.3/lib/lib_maccore_patches.a(os_install_wlan_extra_memory_patches.o)
 .debug_line    0x000a6091      0x371 mac_core/patch/AR6320/v3/.output/AR6320/hw.3/lib/lib_maccore_patches.a(patch_athos_main.o)
 .debug_line    0x000a6402      0x3d1 mac_core/patch/AR6320/v3/.output/AR6320/hw.3/lib/lib_maccore_patches.a(cmnos_misc_patch.o)
 .debug_line    0x000a67d3      0x4fc mac_core/patch/AR6320/v3/.output/AR6320/hw.3/lib/lib_maccore_patches.a(sha1_patch.o)
 .debug_line    0x000a6ccf      0x270 mac_core/patch/AR6320/v3/.output/AR6320/hw.3/lib/lib_maccore_patches.a(qheap_patch.o)
 .debug_line    0x000a6f3f      0x28b mac_core/patch/AR6320/v3/.output/AR6320/hw.3/lib/lib_maccore_patches.a(patch_hif_sdio.o)
 .debug_line    0x000a71ca      0x37a mac_core/patch/AR6320/v3/.output/AR6320/hw.3/lib/lib_maccore_patches.a(ar_wal_txbf_patch.o)
 .debug_line    0x000a7544      0x33f mac_core/patch/AR6320/v3/.output/AR6320/hw.3/lib/lib_maccore_patches.a(wmi_dbgloghook_patch.o)
 .debug_line    0x000a7883      0x545 mac_core/patch/AR6320/v3/.output/AR6320/hw.3/lib/lib_maccore_patches.a(cmnos_allocram_patch.o)
 .debug_line    0x000a7dc8     0x143e protocol/src/extwow/.output/AR6320/hw.3/lib/libextwow.a(wlan_extwow.o)
 .debug_line    0x000a9206      0x29d halphy/patch/AR6320/v3/.output/AR6320/hw.3/lib/lib_halphy_patches.a(halphy_install_patches.o)
 .debug_line    0x000a94a3      0x842 halphy/patch/AR6320/v3/.output/AR6320/hw.3/lib/lib_halphy_patches.a(ar6000_nf_cal_patch.o)
 .debug_line    0x000a9ce5      0x87a halphy/patch/AR6320/v3/.output/AR6320/hw.3/lib/lib_halphy_patches.a(ar6000_ani_patch.o)
 .debug_line    0x000aa55f      0x7af halphy/patch/AR6320/v3/.output/AR6320/hw.3/lib/lib_halphy_patches.a(ar6320_ini_patch.o)
 .debug_line    0x000aad0e     0x151e halphy/patch/AR6320/v3/.output/AR6320/hw.3/lib/lib_halphy_patches.a(ar6320_tpc_config_patch.o)
 .debug_line    0x000ac22c     0x1728 halphy/patch/AR6320/v3/.output/AR6320/hw.3/lib/lib_halphy_patches.a(ar6320_eeprom_patch.o)
 .debug_line    0x000ad954      0xa5c halphy/patch/AR6320/v3/.output/AR6320/hw.3/lib/lib_halphy_patches.a(ar600P_reset_patch.o)
 .debug_line    0x000ae3b0     0x1f80 halphy/patch/AR6320/v3/.output/AR6320/hw.3/lib/lib_halphy_patches.a(ar6000_paprd_patch.o)
 .debug_line    0x000b0330      0x2c5 halphy/patch/AR6320/v3/.output/AR6320/hw.3/lib/lib_halphy_patches.a(ar6000_phy_patch.o)
 .debug_line    0x000b05f5      0x16f /cad/tensilica/chips/peregrine/RE-2013.3-linux/peregrine/xtensa-elf/lib/xcc//libgcc.a(_divsi3.o)
 .debug_line    0x000b0764      0x127 /cad/tensilica/chips/peregrine/RE-2013.3-linux/peregrine/xtensa-elf/lib/xcc//libgcc.a(_modsi3.o)
 .debug_line    0x000b088b      0x139 /cad/tensilica/chips/peregrine/RE-2013.3-linux/peregrine/xtensa-elf/lib/xcc//libgcc.a(_udivsi3.o)
 .debug_line    0x000b09c4      0x109 /cad/tensilica/chips/peregrine/RE-2013.3-linux/peregrine/xtensa-elf/lib/xcc//libgcc.a(_umodsi3.o)
 .debug_line    0x000b0acd       0xcd /cad/tensilica/chips/peregrine/RE-2013.3-linux/peregrine/xtensa-elf/lib/xcc//libgcc.a(_ashldi3.o)
 .debug_line    0x000b0b9a       0xcd /cad/tensilica/chips/peregrine/RE-2013.3-linux/peregrine/xtensa-elf/lib/xcc//libgcc.a(_ashrdi3.o)
 .debug_line    0x000b0c67       0xcd /cad/tensilica/chips/peregrine/RE-2013.3-linux/peregrine/xtensa-elf/lib/xcc//libgcc.a(_lshrdi3.o)
 .debug_line    0x000b0d34      0x4c5 /cad/tensilica/chips/peregrine/RE-2013.3-linux/peregrine/xtensa-elf/lib/xcc//libgcc.a(_muldf3.o)
 .debug_line    0x000b11f9      0x168 /cad/tensilica/chips/peregrine/RE-2013.3-linux/peregrine/xtensa-elf/lib/xcc//libgcc.a(_fixunsdfsi.o)
 .debug_line    0x000b1361      0x11a /cad/tensilica/chips/peregrine/RE-2013.3-linux/peregrine/xtensa-elf/lib/xcc//libgcc.a(_floatsidf.o)
 .debug_line    0x000b147b       0xbb /cad/tensilica/chips/peregrine/RE-2013.3-linux/peregrine/xtensa-elf/lib/xcc//libgcc.a(_muldi3.o)
 .debug_line    0x000b1536      0x1e3 /cad/tensilica/chips/peregrine/RE-2013.3-linux/peregrine/xtensa-elf/lib/xcc//libgcc.a(_udivdi3.o)
 .debug_line    0x000b1719      0x21e /cad/tensilica/chips/peregrine/RE-2013.3-linux/peregrine/xtensa-elf/lib/xcc//libgcc.a(_umoddi3.o)
 .debug_line    0x000b1937      0x1e5 /cad/tensilica/chips/peregrine/RE-2013.3-linux/peregrine/xtensa-elf/lib/xcc//libgcc.a(lib2funcs.o)
 .debug_line    0x000b1b1c      0x3f6 protocol/src/tcpip/.output/AR6320/hw.3/lib/libtcpip.a(wlan_pb.o)
 .debug_line    0x000b1f12      0x774 protocol/src/tcpip/.output/AR6320/hw.3/lib/libtcpip.a(wlan_tcpip.o)
 .debug_line    0x000b2686      0x733 mac_core/src/misc/serport/.output/AR6320/hw.3/lib/libserport.a(serial_if.o)
 .debug_line    0x000b2db9      0x517 mac_core/src/misc/serport/.output/AR6320/hw.3/lib/libserport.a(serial_port.o)
 .debug_line    0x000b32d0      0xa31 mac_core/src/misc/uartserp/.output/AR6320/hw.3/lib/libuartserp.a(uartserp.o)
 .debug_line    0x000b3d01      0x766 mac_core/src/wal/AR/nan/.output/AR6320/hw.3/lib/ar_wal_nan.a(wal_nan_mac.o)
 .debug_line    0x000b4467      0xc12 mac_core/src/wal/whal/rtt/.output/AR6320/hw.3/lib/whal_rtt.a(whal_rtt.o)

.debug_frame
 *(.debug_frame)

.debug_str
 *(.debug_str)

.debug_loc
 *(.debug_loc)

.debug_macinfo
 *(.debug_macinfo)

.debug_weaknames
 *(.debug_weaknames)

.debug_funcnames
 *(.debug_funcnames)

.debug_typenames
 *(.debug_typenames)

.debug_varnames
 *(.debug_varnames)

.xt.insn
 *(.xt.insn)
 *(.gnu.linkonce.x.*)

.xt.prop        0x00000000    0x5f9ac
 *(.xt.prop)
 .xt.prop       0x00000000      0x168 mac_core/patch/AR6320/v3/.output/AR6320/hw.3/obj/app_start.o
                                0x3a8 (size before relaxing)
 .xt.prop       0x00000168      0x42c protocol/src/init/.output/AR6320/hw.3/lib/libwlaninit.a(wlan_init.o)
                                0xaf8 (size before relaxing)
 .xt.prop       0x00000594      0x7f8 protocol/src/init/.output/AR6320/hw.3/lib/libwlaninit.a(wlan_peer.o)
                                0xca8 (size before relaxing)
 .xt.prop       0x00000d8c       0x48 protocol/src/init/.output/AR6320/hw.3/lib/libwlaninit.a(umac_init.o)
                                0x180 (size before relaxing)
 .xt.prop       0x00000dd4       0x6c protocol/src/init/.output/AR6320/hw.3/lib/libwlaninit.a(wlan_bss.o)
                                 0x90 (size before relaxing)
 .xt.prop       0x00000e40      0x624 protocol/src/init/.output/AR6320/hw.3/lib/libwlaninit.a(wlan_buf.o)
                                0xa08 (size before relaxing)
 .xt.prop       0x00001464      0xc90 protocol/src/init/.output/AR6320/hw.3/lib/libwlaninit.a(wlan_dev.o)
                               0x135c (size before relaxing)
 .xt.prop       0x000020f4      0x348 mac_core/src/mac_core_init/.output/AR6320/hw.3/lib/libmaccoreinit.a(mac_core_init.o)
                                0x594 (size before relaxing)
 .xt.prop       0x0000243c       0x30 protocol/src/cfg/.output/AR6320/hw.3/lib/libcfg.a(cfg.o)
                                 0x3c (size before relaxing)
 .xt.prop       0x0000246c     0x4314 mac_core/src/wal/AR/coex/.output/AR6320/hw.3/lib/wal_coex.a(wal_coex.o)
                               0x6774 (size before relaxing)
 .xt.prop       0x00006780     0x2b74 mac_core/src/wal/AR/coex/.output/AR6320/hw.3/lib/wal_coex.a(wal_btcoex.o)
                               0x38b8 (size before relaxing)
 .xt.prop       0x000092f4     0x1590 mac_core/src/wal/AR/coex/.output/AR6320/hw.3/lib/wal_coex.a(wal_mwscoex.o)
                               0x204c (size before relaxing)
 .xt.prop       0x0000a884      0x180 mac_core/src/wal/AR/coex/.output/AR6320/hw.3/lib/wal_coex.a(wal_mwscoex_crc.o)
                                0x210 (size before relaxing)
 .xt.prop       0x0000aa04      0xc18 mac_core/src/wal/AR/coex/.output/AR6320/hw.3/lib/wal_coex.a(qmi_idl_lib.o)
                                0xd14 (size before relaxing)
 .xt.prop       0x0000b61c      0x378 mac_core/src/wal/AR/coex/.output/AR6320/hw.3/lib/wal_coex.a(qmi_idl_accessor.o)
 .xt.prop       0x0000b994      0x3e4 mac_core/src/wal/AR/coex/.output/AR6320/hw.3/lib/wal_coex.a(coexistence_service_v02.o)
                                0x3f0 (size before relaxing)
 .xt.prop       0x0000bd78       0xd8 mac_core/src/wal/whal/ini/.output/AR6320/hw.3/lib/libwhalini.a(whalini.o)
                                0x168 (size before relaxing)
 .xt.prop       0x0000be50      0x21c mac_core/src/data_txrx/.output/AR6320/hw.3/lib/libdatatxrx.a(data_txrx.o)
                                0x420 (size before relaxing)
 .xt.prop       0x0000c06c       0x90 mac_core/src/data_txrx/.output/AR6320/hw.3/lib/libdatatxrx.a(ieee80211_hdr.o)
                                 0xcc (size before relaxing)
 .xt.prop       0x0000c0fc      0xaf8 mac_core/src/data_txrx/.output/AR6320/hw.3/lib/libdatatxrx.a(data_rx.o)
                               0x1314 (size before relaxing)
 .xt.prop       0x0000cbf4      0x3e4 mac_core/src/data_txrx/.output/AR6320/hw.3/lib/libdatatxrx.a(data_rx_peer.o)
                                0x684 (size before relaxing)
 .xt.prop       0x0000cfd8      0x1a4 mac_core/src/data_txrx/.output/AR6320/hw.3/lib/libdatatxrx.a(data_rx_pn.o)
                                0x210 (size before relaxing)
 .xt.prop       0x0000d17c      0xb34 mac_core/src/data_txrx/.output/AR6320/hw.3/lib/libdatatxrx.a(data_rx_reorder.o)
                               0x1134 (size before relaxing)
 .xt.prop       0x0000dcb0      0x114 protocol/src/mgmt_txrx/.output/AR6320/hw.3/lib/libmgmttxrx.a(ieee_mgmt_rx.o)
                                0x1b0 (size before relaxing)
 .xt.prop       0x0000ddc4      0x648 protocol/src/mgmt_txrx/.output/AR6320/hw.3/lib/libmgmttxrx.a(wlan_mgmt_local_txrx.o)
                                0x8c4 (size before relaxing)
 .xt.prop       0x0000e40c      0x540 protocol/src/mgmt_txrx/.output/AR6320/hw.3/lib/libmgmttxrx.a(wlan_mgmt_txrx.o)
                                0x84c (size before relaxing)
 .xt.prop       0x0000e94c     0x1638 protocol/src/vdev_mgr/.output/AR6320/hw.3/lib/libvdevmgr.a(wlan_vdev.o)
                               0x27c0 (size before relaxing)
 .xt.prop       0x0000ff84      0x39c protocol/src/vdev_mgr/.output/AR6320/hw.3/lib/libvdevmgr.a(wlan_vdev_keepalive.o)
                                0x69c (size before relaxing)
 .xt.prop       0x00010320      0x7e0 protocol/src/vdev_mgr/.output/AR6320/hw.3/lib/libvdevmgr.a(wlan_vdev_misc.o)
                                0xc00 (size before relaxing)
 .xt.prop       0x00010b00      0x810 protocol/src/vdev_mgr/.output/AR6320/hw.3/lib/libvdevmgr.a(wlan_vdev_pause.o)
                                0xc6c (size before relaxing)
 .xt.prop       0x00011310      0xc78 protocol/src/vdev_mgr/.output/AR6320/hw.3/lib/libvdevmgr.a(wlan_vdev_schedule.o)
                               0x13ec (size before relaxing)
 .xt.prop       0x00011f88      0x15c protocol/src/key_mgmt/.output/AR6320/hw.3/lib/libkeymgmt.a(wlan_key_mgmt.o)
                                0x1a4 (size before relaxing)
 .xt.prop       0x000120e4     0x1cbc mac_core/src/ratectrl/.output/AR6320/hw.3/lib/libratectrl_11ac.a(ratectrl_11ac.o)
                               0x25a4 (size before relaxing)
 .xt.prop       0x00013da0      0x630 mac_core/src/ratectrl/.output/AR6320/hw.3/lib/libratectrl_11ac.a(ratectrl_11ac_if.o)
                                0x90c (size before relaxing)
 .xt.prop       0x000143d0       0x78 mac_core/src/ratectrl/.output/AR6320/hw.3/lib/libratectrl_11ac.a(ratectrl_peer_state.o)
                                 0x84 (size before relaxing)
 .xt.prop       0x00014448     0x174c protocol/src/rtt/.output/AR6320/hw.3/lib/librtt.a(wlan_rtt.o)
                               0x25b0 (size before relaxing)
 .xt.prop       0x00015b94      0x3fc protocol/src/phyerr/.output/AR6320/hw.3/lib/libphyerr.a(wlan_dfs_phyerr_filter.o)
                                0x564 (size before relaxing)
 .xt.prop       0x00015f90      0x3c0 protocol/src/phyerr/.output/AR6320/hw.3/lib/libphyerr.a(wlan_phyerr.o)
                                0x594 (size before relaxing)
 .xt.prop       0x00016350      0x204 protocol/src/rfkill/.output/AR6320/hw.3/lib/librfkill.a(wlan_rfkill.o)
                                0x378 (size before relaxing)
 .xt.prop       0x00016554      0x2ac protocol/src/wmi/.output/AR6320/hw.3/lib/libumacwmi.a(umac_wmi_events.o)
                                0x4d4 (size before relaxing)
 .xt.prop       0x00016800      0x2e8 protocol/src/wmi/.output/AR6320/hw.3/lib/libumacwmi.a(wlan_wmi.o)
                                0x5e8 (size before relaxing)
 .xt.prop       0x00016ae8      0x2b8 protocol/src/wmi/.output/AR6320/hw.3/lib/libumacwmi.a(wlan_wmi_events.o)
                                0x528 (size before relaxing)
 .xt.prop       0x00016da0      0x1b0 protocol/src/wmi/.output/AR6320/hw.3/lib/libumacwmi.a(wmi_gpiohook.o)
                                0x264 (size before relaxing)
 .xt.prop       0x00016f50      0x4bc protocol/src/wmi/.output/AR6320/hw.3/lib/libumacwmi.a(wmi_tlv_helper.o)
                                0x5c4 (size before relaxing)
 .xt.prop       0x0001740c       0x60 protocol/src/wmi/.output/AR6320/hw.3/lib/libumacwmi.a(umac_wmi.o)
                                 0x9c (size before relaxing)
 .xt.prop       0x0001746c      0x57c protocol/src/offload_mgr/.output/AR6320/hw.3/lib/liboffload_mgr.a(beacon_filter.o)
                                0x720 (size before relaxing)
 .xt.prop       0x000179e8      0x4d4 protocol/src/offload_mgr/.output/AR6320/hw.3/lib/liboffload_mgr.a(csa_offload_main.o)
                                0x7e0 (size before relaxing)
 .xt.prop       0x00017ebc      0x6e4 protocol/src/offload_mgr/.output/AR6320/hw.3/lib/liboffload_mgr.a(offload_mgr.o)
                                0xac8 (size before relaxing)
 .xt.prop       0x000185a0      0x174 protocol/src/offload_mgr/.output/AR6320/hw.3/lib/liboffload_mgr.a(wlan_d0wow.o)
                                0x258 (size before relaxing)
 .xt.prop       0x00018714      0x7b0 protocol/src/offload_mgr/.output/AR6320/hw.3/lib/liboffload_mgr.a(wlan_gtk_offload.o)
                                0xc6c (size before relaxing)
 .xt.prop       0x00018ec4     0x10a4 protocol/src/offload_mgr/.output/AR6320/hw.3/lib/liboffload_mgr.a(wlan_wow.o)
                               0x198c (size before relaxing)
 .xt.prop       0x00019f68      0xb28 protocol/src/mgmt/.output/AR6320/hw.3/lib/libmgmt.a(wlan_beacon.o)
                               0x11d0 (size before relaxing)
 .xt.prop       0x0001aa90      0x96c protocol/src/mgmt/.output/AR6320/hw.3/lib/libmgmt.a(wlan_early_rx_sm.o)
                                0xdbc (size before relaxing)
 .xt.prop       0x0001b3fc      0x228 protocol/src/mgmt/.output/AR6320/hw.3/lib/libmgmt.a(wlan_ie_utils.o)
                                0x234 (size before relaxing)
 .xt.prop       0x0001b624       0x60 protocol/src/mgmt/.output/AR6320/hw.3/lib/libmgmt.a(wlan_wnm.o)
                                 0xa8 (size before relaxing)
 .xt.prop       0x0001b684      0x174 protocol/src/power/.output/AR6320/hw.3/lib/libpower.a(wlan_pm_arbiter.o)
                                0x1e0 (size before relaxing)
 .xt.prop       0x0001b7f8      0x108 protocol/src/power/.output/AR6320/hw.3/lib/libpower.a(wlan_powersave.o)
                                0x180 (size before relaxing)
 .xt.prop       0x0001b900      0xdf8 protocol/src/power/.output/AR6320/hw.3/lib/libpower.a(wlan_powersave_ap.o)
                               0x15b4 (size before relaxing)
 .xt.prop       0x0001c6f8      0xdf8 protocol/src/power/.output/AR6320/hw.3/lib/libpower.a(wlan_powersave_ibss.o)
                               0x141c (size before relaxing)
 .xt.prop       0x0001d4f0     0x11c4 protocol/src/power/.output/AR6320/hw.3/lib/libpower.a(wlan_powersave_ibss_nw_sm.o)
                               0x16f8 (size before relaxing)
 .xt.prop       0x0001e6b4      0x2d0 protocol/src/power/.output/AR6320/hw.3/lib/libpower.a(wlan_powersave_ibss_peer_ps_sm.o)
                                0x3e4 (size before relaxing)
 .xt.prop       0x0001e984      0xb70 protocol/src/power/.output/AR6320/hw.3/lib/libpower.a(wlan_powersave_ibss_self_ps_sm.o)
                                0xe58 (size before relaxing)
 .xt.prop       0x0001f4f4      0xe34 protocol/src/power/.output/AR6320/hw.3/lib/libpower.a(wlan_powersave_sta.o)
                               0x13bc (size before relaxing)
 .xt.prop       0x00020328     0x19a4 protocol/src/power/.output/AR6320/hw.3/lib/libpower.a(wlan_powersave_sta_sm.o)
                               0x2118 (size before relaxing)
 .xt.prop       0x00021ccc      0x174 protocol/src/power/.output/AR6320/hw.3/lib/libpower.a(wlan_powersave_tdls.o)
                                0x294 (size before relaxing)
 .xt.prop       0x00021e40       0x54 protocol/src/power/.output/AR6320/hw.3/lib/libpower.a(wlan_qpower.o)
                                 0x78 (size before relaxing)
 .xt.prop       0x00021e94      0xa44 protocol/src/power/smps/.output/AR6320/hw.3/lib/libsmps.a(wlan_smps.o)
                                0xf48 (size before relaxing)
 .xt.prop       0x000228d8      0x5dc protocol/src/power/smps/.output/AR6320/hw.3/lib/libsmps.a(wlan_smps_sm.o)
                                0x6e4 (size before relaxing)
 .xt.prop       0x00022eb4      0x2c4 protocol/src/resmgr/.output/AR6320/hw.3/lib/libresmgr.a(channel_mgr.o)
                                0x4f8 (size before relaxing)
 .xt.prop       0x00023178      0x528 protocol/src/resmgr/.output/AR6320/hw.3/lib/libresmgr.a(resmgr.o)
                                0x804 (size before relaxing)
 .xt.prop       0x000236a0      0x30c protocol/src/resmgr/.output/AR6320/hw.3/lib/libresmgr.a(resmgr_dyn_sch.o)
                                0x57c (size before relaxing)
 .xt.prop       0x000239ac     0x20b8 protocol/src/resmgr/.output/AR6320/hw.3/lib/libresmgr.a(resmgr_ocs.o)
                               0x294c (size before relaxing)
 .xt.prop       0x00025a64      0x9f0 protocol/src/resmgr/.output/AR6320/hw.3/lib/libresmgr.a(virtual_channel.o)
                                0xd14 (size before relaxing)
 .xt.prop       0x00026454      0x300 protocol/src/resmgr/.output/AR6320/hw.3/lib/libresmgr.a(virtual_channel_arbiter.o)
                                0x3fc (size before relaxing)
 .xt.prop       0x00026754      0xf00 mac_core/src/hostif/htc/.output/AR6320/hw.3/lib/libhtc.a(htc.o)
                               0x16a4 (size before relaxing)
 .xt.prop       0x00027654      0xab0 mac_core/src/hostif/htt/.output/AR6320/hw.3/lib/libhtt.a(htt_tgt_hif_svc.o)
                               0x126c (size before relaxing)
 .xt.prop       0x00028104      0x540 mac_core/src/hostif/htt/.output/AR6320/hw.3/lib/libhtt.a(htt_tgt_rx.o)
                                0xa20 (size before relaxing)
 .xt.prop       0x00028644      0x8a0 mac_core/src/hostif/htt/.output/AR6320/hw.3/lib/libhtt.a(htt_tgt_rx_event.o)
                                0xe58 (size before relaxing)
 .xt.prop       0x00028ee4      0x210 mac_core/src/hostif/htt/.output/AR6320/hw.3/lib/libhtt.a(htt_tgt_stats.o)
                                0x3f0 (size before relaxing)
 .xt.prop       0x000290f4      0x618 mac_core/src/hostif/htt/.output/AR6320/hw.3/lib/libhtt.a(htt_tgt_tx.o)
                                0xa8c (size before relaxing)
 .xt.prop       0x0002970c      0x204 mac_core/src/utils/sm/.output/AR6320/hw.3/lib/libsm.a(sm.o)
                                0x378 (size before relaxing)
 .xt.prop       0x00029910     0x1b90 protocol/src/coex/.output/AR6320/hw.3/lib/libcoex.a(coex.o)
                               0x2cc4 (size before relaxing)
 .xt.prop       0x0002b4a0      0x690 mac_core/src/hostif/wmisvc/.output/AR6320/hw.3/lib/libwmisvc.a(wmi_svc.o)
                                0xba0 (size before relaxing)
 .xt.prop       0x0002bb30      0x144 protocol/src/scan/.output/AR6320/hw.3/lib/libscan.a(wlan_dcs.o)
                                0x204 (size before relaxing)
 .xt.prop       0x0002bc74      0xad4 protocol/src/scan/.output/AR6320/hw.3/lib/libscan.a(wlan_scan_sch.o)
                                0xf3c (size before relaxing)
 .xt.prop       0x0002c748      0xb1c protocol/src/scan/.output/AR6320/hw.3/lib/libscan.a(wlan_scan_sm.o)
                               0x120c (size before relaxing)
 .xt.prop       0x0002d264      0x474 protocol/src/scan/.output/AR6320/hw.3/lib/libscan.a(wlan_scan.o)
                                0x6e4 (size before relaxing)
 .xt.prop       0x0002d6d8      0x498 protocol/src/roam/.output/AR6320/hw.3/lib/libroam.a(wlan_roam.o)
                                0x5c4 (size before relaxing)
 .xt.prop       0x0002db70     0x1158 protocol/src/roam/.output/AR6320/hw.3/lib/libroam.a(wlan_roam_internal.o)
                               0x17a0 (size before relaxing)
 .xt.prop       0x0002ecc8      0x114 protocol/src/roam/.output/AR6320/hw.3/lib/libroam.a(wlan_roam_wmi.o)
                                0x18c (size before relaxing)
 .xt.prop       0x0002eddc      0x6fc protocol/src/pps/.output/AR6320/hw.3/lib/libpps.a(wlan_pps.o)
                                0x960 (size before relaxing)
 .xt.prop       0x0002f4d8      0xf30 protocol/src/stats/.output/AR6320/hw.3/lib/libstats.a(wlan_stats.o)
                               0x177c (size before relaxing)
 .xt.prop       0x00030408      0x2dc protocol/src/stats/.output/AR6320/hw.3/lib/libstats.a(wlan_estimate_linkspeed.o)
                                0x498 (size before relaxing)
 .xt.prop       0x000306e4      0x8e8 mac_core/src/soc/pcielp/.output/AR6320/hw.3/lib/libpcielp.a(pcielp_core.o)
                                0xc0c (size before relaxing)
 .xt.prop       0x00030fcc      0x468 mac_core/src/soc/pcielp/.output/AR6320/hw.3/lib/libpcielp.a(pcielp_ltr.o)
                                0x5a0 (size before relaxing)
 .xt.prop       0x00031434       0xd8 mac_core/src/soc/pcielp/.output/AR6320/hw.3/lib/libpcielp.a(pcielp_dsleep.o)
                                0x150 (size before relaxing)
 .xt.prop       0x0003150c      0x1ec mac_core/src/soc/pcielp/.output/AR6320/hw.3/lib/libpcielp.a(pcielp_l1ss.o)
                                0x2d0 (size before relaxing)
 .xt.prop       0x000316f8       0x18 mac_core/src/soc/pcielp/.output/AR6320/hw.3/lib/libpcielp.a(pcielp_buffering.o)
 .xt.prop       0x00031710      0x114 mac_core/src/pktlog/.output/AR6320/hw.3/lib/libpktlog.a(pktlog.o)
                                0x21c (size before relaxing)
 .xt.prop       0x00031824      0x144 protocol/src/tbd/.output/AR6320/hw.3/lib/libtbd.a(tbd.o)
                                0x1a4 (size before relaxing)
 .xt.prop       0x00031968      0x6a8 protocol/src/p2p/.output/AR6320/hw.3/lib/libp2p.a(p2p_main.o)
                                0xbb8 (size before relaxing)
 .xt.prop       0x00032010       0xcc protocol/src/p2p/.output/AR6320/hw.3/lib/libp2p.a(p2p_parse.o)
                                 0xf0 (size before relaxing)
 .xt.prop       0x000320dc      0x6e4 protocol/src/p2p/.output/AR6320/hw.3/lib/libp2p.a(p2p_schedules.o)
                                0xb58 (size before relaxing)
 .xt.prop       0x000327c0      0xdb0 protocol/src/p2p/.output/AR6320/hw.3/lib/libp2p.a(p2p_go_ps.o)
                               0x12d8 (size before relaxing)
 .xt.prop       0x00033570      0x618 protocol/src/chatter/.output/AR6320/hw.3/lib/libchatter.a(wlan_chatter.o)
                                0x924 (size before relaxing)
 .xt.prop       0x00033b88      0x63c protocol/src/chatter/.output/AR6320/hw.3/lib/libchatter.a(wlan_coalescing.o)
                                0x7e0 (size before relaxing)
 .xt.prop       0x000341c4       0x60 mac_core/src/retention/.output/AR6320/hw.3/lib/libretention.a(wlan_retention.o)
                                 0xc0 (size before relaxing)
 .xt.prop       0x00034224      0x1a4 mac_core/src/utils/buf_chunk/.output/AR6320/hw.3/lib/libbufchunk.a(buf_chunk_api.o)
                                0x21c (size before relaxing)
 .xt.prop       0x000343c8      0x558 protocol/src/txbf/.output/AR6320/hw.3/lib/libtxbf.a(wlan_txbf.o)
                                0xa08 (size before relaxing)
 .xt.prop       0x00034920      0x798 protocol/src/tdls/.output/AR6320/hw.3/lib/libtdls.a(wlan_tdls.o)
                                0xcfc (size before relaxing)
 .xt.prop       0x000350b8     0x1800 protocol/src/tdls/.output/AR6320/hw.3/lib/libtdls.a(wlan_tdls_peer.o)
                               0x2bb0 (size before relaxing)
 .xt.prop       0x000368b8      0x384 protocol/src/tdls/.output/AR6320/hw.3/lib/libtdls.a(wlan_tdls_uapsd.o)
                                0x5e8 (size before relaxing)
 .xt.prop       0x00036c3c      0x234 protocol/src/tcpip/.output/AR6320/hw.3/lib/libtcpip.a(wlan_ipv6.o)
                                0x2a0 (size before relaxing)
 .xt.prop       0x00036e70      0x168 mac_core/src/misc/extend_alloc/.output/AR6320/hw.3/lib/libextendalloc.a(extend_allocate.o)
                                0x27c (size before relaxing)
 .xt.prop       0x00036fd8       0xe4 protocol/src/thermal_mgr/.output/AR6320/hw.3/lib/libthermalmgr.a(wlan_thermal_mgr.o)
                                0x198 (size before relaxing)
 .xt.prop       0x000370bc       0x18 mac_core/src/wal/AR/init/.output/AR6320/hw.3/lib/ar_wal_init.a(ar_wal_init.o)
                                 0x24 (size before relaxing)
 .xt.prop       0x000370d4       0x30 mac_core/src/wal/whal/init/.output/AR6320/hw.3/lib/libwhal_init.a(whal_init.o)
                                 0x60 (size before relaxing)
 .xt.prop       0x00037104      0x12c mac_core/src/hostif/wdi_ipa/.output/AR6320/hw.3/lib/libwdi_ipa.a(wdi_ipa.o)
                                0x1f8 (size before relaxing)
 .xt.prop       0x00037230      0x3d8 mac_core/src/hostif/wdi_ipa/.output/AR6320/hw.3/lib/libwdi_ipa.a(wdi_ipa_rx.o)
                                0x72c (size before relaxing)
 .xt.prop       0x00037608      0x3f0 mac_core/src/hostif/wdi_ipa/.output/AR6320/hw.3/lib/libwdi_ipa.a(wdi_ipa_tx.o)
                                0x738 (size before relaxing)
 .xt.prop       0x000379f8       0x24 mac_core/src/hostif/hif/hif_dbguart/.output/AR6320/hw.3/lib/lib_hif_dbguart.a(hif_dbguart_install.o)
                                 0x3c (size before relaxing)
 .xt.prop       0x00037a1c      0x7b0 mac_core/src/hostif/hif/hif_dbguart/.output/AR6320/hw.3/lib/lib_hif_dbguart.a(hif_dbguart.o)
                                0xbb8 (size before relaxing)
 .xt.prop       0x000381cc      0x894 protocol/src/lpi/.output/AR6320/hw.3/lib/liblpi.a(wlan_lpi.o)
                                0xef4 (size before relaxing)
 .xt.prop       0x00038a60      0x1c8 protocol/src/profile/.output/AR6320/hw.3/lib/libwlanprofile.a(wlan_profile.o)
                                0x324 (size before relaxing)
 .xt.prop       0x00038c28      0x7c8 protocol/src/offload/.output/AR6320/hw.3/lib/liboffload.a(wlan_arp_ns_offload.o)
                                0xc48 (size before relaxing)
 .xt.prop       0x000393f0      0x93c protocol/src/offload/.output/AR6320/hw.3/lib/liboffload.a(wlan_beacon_tx_offload.o)
                                0xe58 (size before relaxing)
 .xt.prop       0x00039d2c      0xae0 protocol/src/offload/.output/AR6320/hw.3/lib/liboffload.a(wlan_network_list_offload.o)
                               0x102c (size before relaxing)
 .xt.prop       0x0003a80c      0x738 protocol/src/offload/.output/AR6320/hw.3/lib/liboffload.a(wlan_swbmiss_offload.o)
                                0x9fc (size before relaxing)
 .xt.prop       0x0003af44      0x99c protocol/src/framegen/.output/AR6320/hw.3/lib/libframegen.a(wlan_framegen.o)
                                0xff0 (size before relaxing)
 .xt.prop       0x0003b8e0        0x0 protocol/src/offload_mgr/stub/.output/AR6320/hw.3/lib/liboffload_mgr_stub.a(offload_mgr_stub.o)
                                  0xc (size before relaxing)
 .xt.prop       0x0003b8e0        0x0 protocol/src/offload_mgr/stub/.output/AR6320/hw.3/lib/liboffload_mgr_stub.a(wlan_wow_stub.o)
                                  0xc (size before relaxing)
 .xt.prop       0x0003b8e0      0x198 mac_core/src/misc/codeswap/.output/AR6320/hw.3/lib/libcodeswap.a(codeswap.o)
                                0x324 (size before relaxing)
 .xt.prop       0x0003ba78       0x78 mac_core/src/misc/codeswap/.output/AR6320/hw.3/lib/libcodeswap.a(codeswap_dmamgr.o)
                                0x108 (size before relaxing)
 .xt.prop       0x0003baf0        0x0 protocol/src/scan/stub/.output/AR6320/hw.3/lib/libscan_stub.a(wlan_scan_sch_stub.o)
                                 0x3c (size before relaxing)
 .xt.prop       0x0003baf0      0xabc protocol/src/blockack/.output/AR6320/hw.3/lib/libblockack.a(wlan_blockack.o)
                               0x11ac (size before relaxing)
 .xt.prop       0x0003c5ac        0x0 protocol/src/init/stub/.output/AR6320/hw.3/lib/libwlaninit_stub.a(wlan_buf_stub.o)
                                  0xc (size before relaxing)
 .xt.prop       0x0003c5ac        0x0 protocol/src/init/stub/.output/AR6320/hw.3/lib/libwlaninit_stub.a(wlan_dev_stub.o)
                                 0x18 (size before relaxing)
 .xt.prop       0x0003c5ac        0x0 protocol/src/init/stub/.output/AR6320/hw.3/lib/libwlaninit_stub.a(wlan_peer_stub.o)
                                  0xc (size before relaxing)
 .xt.prop       0x0003c5ac        0x0 mac_core/src/data_txrx/stub/.output/AR6320/hw.3/lib/libdatatxrx_stub.a(ieee80211_hdr_stub.o)
                                  0xc (size before relaxing)
 .xt.prop       0x0003c5ac        0x0 protocol/src/vdev_mgr/stub/.output/AR6320/hw.3/lib/libvdevmgr_stub.a(wlan_vdev_stub.o)
                                  0xc (size before relaxing)
 .xt.prop       0x0003c5ac        0x0 protocol/src/mgmt_txrx/stub/.output/AR6320/hw.3/lib/libmgmttxrx_stub.a(wlan_mgmt_local_txrx_stub.o)
                                  0xc (size before relaxing)
 .xt.prop       0x0003c5ac        0x0 protocol/src/mgmt_txrx/stub/.output/AR6320/hw.3/lib/libmgmttxrx_stub.a(ieee_mgmt_rx_stub.o)
                                  0xc (size before relaxing)
 .xt.prop       0x0003c5ac        0x0 protocol/src/mgmt/stub/.output/AR6320/hw.3/lib/libmgmt_stub.a(wlan_beacon_stub.o)
                                  0xc (size before relaxing)
 .xt.prop       0x0003c5ac        0x0 protocol/src/mgmt/stub/.output/AR6320/hw.3/lib/libmgmt_stub.a(wlan_ie_utils_stub.o)
                                  0xc (size before relaxing)
 .xt.prop       0x0003c5ac        0x0 protocol/src/p2p/stub/.output/AR6320/hw.3/lib/libp2p_stub.a(p2p_stub.o)
                                  0xc (size before relaxing)
 .xt.prop       0x0003c5ac      0x8dc mac_core/src/wal/whal/reset/.output/AR6320/hw.3/lib/ar6000_cal.a(ar6320_cal.o)
                               0x2418 (size before relaxing)
 .xt.prop       0x0003ce88     0x1b84 mac_core/src/wal/whal/reset/.output/AR6320/hw.3/lib/ar6000_cal.a(ar6320_rxdc_cal.o)
                               0x3f48 (size before relaxing)
 .xt.prop       0x0003ea0c     0x177c mac_core/src/wal/whal/reset/.output/AR6320/hw.3/lib/ar6000_cal.a(ar6320_iq_cal.o)
                               0x4c08 (size before relaxing)
 .xt.prop       0x00040188      0x534 mac_core/src/wal/whal/reset/.output/AR6320/hw.3/lib/ar6000_cal.a(ar6320_pef_cal.o)
                                0xe88 (size before relaxing)
 .xt.prop       0x000406bc       0xe4 protocol/src/unit_test/.output/AR6320/hw.3/lib/libunittest.a(unit_test.o)
                                0x108 (size before relaxing)
 .xt.prop       0x000407a0      0x360 protocol/src/frameparse/.output/AR6320/hw.3/lib/libframeparse.a(wlan_frameparse.o)
                                0x3e4 (size before relaxing)
 .xt.prop       0x00040b00      0x48c protocol/src/nan/.output/AR6320/hw.3/lib/libnanwlan.a(wlan_nan.o)
                                0x714 (size before relaxing)
 .xt.prop       0x00040f8c      0x924 protocol/src/nan/.output/AR6320/hw.3/lib/libnanwlan.a(wlan_nan_sync.o)
                                0xed0 (size before relaxing)
 .xt.prop       0x000418b0     0x1374 protocol/src/nan/.output/AR6320/hw.3/lib/libnanwlan.a(wlan_nan_mac.o)
                               0x1ff8 (size before relaxing)
 .xt.prop       0x00042c24      0xa50 protocol/src/nan/.output/AR6320/hw.3/lib/libnanwlan.a(wlan_nan_publish.o)
                                0xf60 (size before relaxing)
 .xt.prop       0x00043674      0xa8c protocol/src/nan/.output/AR6320/hw.3/lib/libnanwlan.a(wlan_nan_subscribe.o)
                               0x102c (size before relaxing)
 .xt.prop       0x00044100     0x1ae8 protocol/src/nan/.output/AR6320/hw.3/lib/libnanwlan.a(wlan_nan_ctrl.o)
                               0x2550 (size before relaxing)
 .xt.prop       0x00045be8      0x8a0 protocol/src/nan/.output/AR6320/hw.3/lib/libnanwlan.a(wlan_nan_de_if.o)
                                0xdd4 (size before relaxing)
 .xt.prop       0x00046488      0x1bc protocol/src/nan/.output/AR6320/hw.3/lib/libnanwlan.a(wlan_nan_rx.o)
                                0x2f4 (size before relaxing)
 .xt.prop       0x00046644      0x624 protocol/src/nan/.output/AR6320/hw.3/lib/libnanwlan.a(wlan_nan_match.o)
                                0xa44 (size before relaxing)
 .xt.prop       0x00046c68      0x354 protocol/src/nan/.output/AR6320/hw.3/lib/libnanwlan.a(wconn_util_list.o)
                                0x360 (size before relaxing)
 .xt.prop       0x00046fbc     0x1104 protocol/src/nan/.output/AR6320/hw.3/lib/libnanwlan.a(wlan_nan_attr.o)
                               0x1788 (size before relaxing)
 .xt.prop       0x000480c0      0x3e4 protocol/src/nan/.output/AR6320/hw.3/lib/libnanwlan.a(wlan_nan_bloom_filter.o)
                                0x570 (size before relaxing)
 .xt.prop       0x000484a4       0x30 protocol/src/nan/.output/AR6320/hw.3/lib/libnanwlan.a(wlan_nan_crc.o)
                                 0x48 (size before relaxing)
 .xt.prop       0x000484d4       0x84 protocol/src/nan/.output/AR6320/hw.3/lib/libnanwlan.a(wlan_nan_log.o)
                                 0xfc (size before relaxing)
 .xt.prop       0x00048558       0x48 protocol/src/nan/.output/AR6320/hw.3/lib/libnanwlan.a(wlan_nan_time.o)
                                 0x54 (size before relaxing)
 .xt.prop       0x000485a0       0x9c protocol/src/nan/.output/AR6320/hw.3/lib/libnanwlan.a(wlan_nan_tlv.o)
                                 0xa8 (size before relaxing)
 .xt.prop       0x0004863c       0x9c protocol/src/nan/.output/AR6320/hw.3/lib/libnanwlan.a(wlan_nan_util.o)
 .xt.prop       0x000486d8      0x1a4 protocol/src/nan/.output/AR6320/hw.3/lib/libnanwlan.a(wlan_nan_beacon_ie.o)
                                0x1f8 (size before relaxing)
 .xt.prop       0x0004887c      0x7e0 protocol/src/nan/.output/AR6320/hw.3/lib/libnanwlan.a(wlan_nan_beacon_rx.o)
                                0xa14 (size before relaxing)
 .xt.prop       0x0004905c      0x18c protocol/src/nan/.output/AR6320/hw.3/lib/libnanwlan.a(wlan_nan_beacon_tx.o)
                                0x228 (size before relaxing)
 .xt.prop       0x000491e8      0x63c protocol/src/nan/.output/AR6320/hw.3/lib/libnanwlan.a(wlan_nan_cluster_sm.o)
                                0x894 (size before relaxing)
 .xt.prop       0x00049824      0x2c4 protocol/src/nan/.output/AR6320/hw.3/lib/libnanwlan.a(wlan_nan_scan.o)
                                0x450 (size before relaxing)
 .xt.prop       0x00049ae8      0xa8c protocol/src/nan/.output/AR6320/hw.3/lib/libnanwlan.a(wlan_nan_sched.o)
                               0x13c8 (size before relaxing)
 .xt.prop       0x0004a574      0x1b0 protocol/src/nan/.output/AR6320/hw.3/lib/libnanwlan.a(sha2.o)
                                0x258 (size before relaxing)
 .xt.prop       0x0004a724      0x288 protocol/src/extscan/.output/AR6320/hw.3/lib/libextscan.a(wlan_extscan_main.o)
                                0x474 (size before relaxing)
 .xt.prop       0x0004a9ac      0x528 protocol/src/extscan/.output/AR6320/hw.3/lib/libextscan.a(wlan_extscan_wlan_change.o)
                                0x8a0 (size before relaxing)
 .xt.prop       0x0004aed4      0x1d4 protocol/src/extscan/.output/AR6320/hw.3/lib/libextscan.a(wlan_extscan_wmi.o)
                                0x2f4 (size before relaxing)
 .xt.prop       0x0004b0a8      0x5c4 protocol/src/extscan/.output/AR6320/hw.3/lib/libextscan.a(wlan_extscan_bssid.o)
                                0xabc (size before relaxing)
 .xt.prop       0x0004b66c      0x498 protocol/src/extscan/.output/AR6320/hw.3/lib/libextscan.a(wlan_extscan_bucket.o)
                                0x81c (size before relaxing)
 .xt.prop       0x0004bb04      0x240 protocol/src/extscan/.output/AR6320/hw.3/lib/libextscan.a(wlan_extscan_hotlist.o)
                                0x420 (size before relaxing)
 .xt.prop       0x0004bd44      0x804 mac_core/src/wal/AR/rtt/.output/AR6320/hw.3/lib/ar_wal_rtt.a(wal_rtt.o)
                                0xc78 (size before relaxing)
 .xt.prop       0x0004c548       0xb4 mac_core/patch/AR6320/v3/.output/AR6320/hw.3/lib/lib_maccore_patches.a(install_patches.o)
                                0x150 (size before relaxing)
 .xt.prop       0x0004c5fc       0x60 mac_core/patch/AR6320/v3/.output/AR6320/hw.3/lib/lib_maccore_patches.a(whal_install_patches.o)
                                 0xe4 (size before relaxing)
 .xt.prop       0x0004c65c       0x30 mac_core/patch/AR6320/v3/.output/AR6320/hw.3/lib/lib_maccore_patches.a(wal_install_patches.o)
                                0x120 (size before relaxing)
 .xt.prop       0x0004c68c      0x198 mac_core/patch/AR6320/v3/.output/AR6320/hw.3/lib/lib_maccore_patches.a(ar_wal_connection_pause_patch.o)
                                0x330 (size before relaxing)
 .xt.prop       0x0004c824      0x654 mac_core/patch/AR6320/v3/.output/AR6320/hw.3/lib/lib_maccore_patches.a(ar_wal_phy_dev_patch.o)
                                0xedc (size before relaxing)
 .xt.prop       0x0004ce78      0x258 mac_core/patch/AR6320/v3/.output/AR6320/hw.3/lib/lib_maccore_patches.a(cmnos_retention_patch.o)
                                0x96c (size before relaxing)
 .xt.prop       0x0004d0d0      0x690 mac_core/patch/AR6320/v3/.output/AR6320/hw.3/lib/lib_maccore_patches.a(ar_wal_tx_de_patch.o)
                                0xbd0 (size before relaxing)
 .xt.prop       0x0004d760      0x4bc mac_core/patch/AR6320/v3/.output/AR6320/hw.3/lib/lib_maccore_patches.a(ar_wal_local_frames_wifi_ip01_patch.o)
                                0x744 (size before relaxing)
 .xt.prop       0x0004dc1c      0x1e0 mac_core/patch/AR6320/v3/.output/AR6320/hw.3/lib/lib_maccore_patches.a(pool_mgr_patch.o)
                                0x378 (size before relaxing)
 .xt.prop       0x0004ddfc     0x1a94 mac_core/patch/AR6320/v3/.output/AR6320/hw.3/lib/lib_maccore_patches.a(ar_wal_rx_patch.o)
                               0x31f8 (size before relaxing)
 .xt.prop       0x0004f890      0x66c mac_core/patch/AR6320/v3/.output/AR6320/hw.3/lib/lib_maccore_patches.a(ar_wal_rx_offload_patch.o)
                                0xab0 (size before relaxing)
 .xt.prop       0x0004fefc       0xc0 mac_core/patch/AR6320/v3/.output/AR6320/hw.3/lib/lib_maccore_patches.a(ar_wal_rx_common_patch.o)
                                 0xfc (size before relaxing)
 .xt.prop       0x0004ffbc      0x828 mac_core/patch/AR6320/v3/.output/AR6320/hw.3/lib/lib_maccore_patches.a(ar_wal_vdev_patch.o)
                                0xd20 (size before relaxing)
 .xt.prop       0x000507e4      0x2b8 mac_core/patch/AR6320/v3/.output/AR6320/hw.3/lib/lib_maccore_patches.a(ar_tx_q_enque_patch.o)
                                0x558 (size before relaxing)
 .xt.prop       0x00050a9c      0x594 mac_core/patch/AR6320/v3/.output/AR6320/hw.3/lib/lib_maccore_patches.a(tx_sched_patch.o)
                                0xa2c (size before relaxing)
 .xt.prop       0x00051030     0x1e48 mac_core/patch/AR6320/v3/.output/AR6320/hw.3/lib/lib_maccore_patches.a(ar_wal_tx_send_patch.o)
                               0x384c (size before relaxing)
 .xt.prop       0x00052e78       0xfc mac_core/patch/AR6320/v3/.output/AR6320/hw.3/lib/lib_maccore_patches.a(ar_wal_chain_mgmt_patch.o)
                                0x270 (size before relaxing)
 .xt.prop       0x00052f74     0x1104 mac_core/patch/AR6320/v3/.output/AR6320/hw.3/lib/lib_maccore_patches.a(ar_wal_peer_patch.o)
                               0x1c08 (size before relaxing)
 .xt.prop       0x00054078      0x504 mac_core/patch/AR6320/v3/.output/AR6320/hw.3/lib/lib_maccore_patches.a(ar600P_txbf_patch.o)
                                0xd14 (size before relaxing)
 .xt.prop       0x0005457c       0x90 mac_core/patch/AR6320/v3/.output/AR6320/hw.3/lib/lib_maccore_patches.a(wal_pps_patch.o)
                                0x12c (size before relaxing)
 .xt.prop       0x0005460c      0x6f0 mac_core/patch/AR6320/v3/.output/AR6320/hw.3/lib/lib_maccore_patches.a(ar_xmit_wifi_ip01_patch.o)
                               0x1098 (size before relaxing)
 .xt.prop       0x00054cfc      0x234 mac_core/patch/AR6320/v3/.output/AR6320/hw.3/lib/lib_maccore_patches.a(ar_wal_channel_change_patch.o)
                                0x570 (size before relaxing)
 .xt.prop       0x00054f30      0x7f8 mac_core/patch/AR6320/v3/.output/AR6320/hw.3/lib/lib_maccore_patches.a(ar_wal_rc_patch.o)
                                0xa2c (size before relaxing)
 .xt.prop       0x00055728       0x24 mac_core/patch/AR6320/v3/.output/AR6320/hw.3/lib/lib_maccore_patches.a(wal_rtt_patch.o)
                                 0x30 (size before relaxing)
 .xt.prop       0x0005574c       0x24 mac_core/patch/AR6320/v3/.output/AR6320/hw.3/lib/lib_maccore_patches.a(whal_rtt_patch.o)
                                 0x30 (size before relaxing)
 .xt.prop       0x00055770      0x444 mac_core/patch/AR6320/v3/.output/AR6320/hw.3/lib/lib_maccore_patches.a(dbglog_patch.o)
                                0x900 (size before relaxing)
 .xt.prop       0x00055bb4       0x84 mac_core/patch/AR6320/v3/.output/AR6320/hw.3/lib/lib_maccore_patches.a(ar600p_beacon_patch.o)
                                0x114 (size before relaxing)
 .xt.prop       0x00055c38      0x2f4 mac_core/patch/AR6320/v3/.output/AR6320/hw.3/lib/lib_maccore_patches.a(ar6000_power_patch.o)
                                0x5e8 (size before relaxing)
 .xt.prop       0x00055f2c       0xb4 mac_core/patch/AR6320/v3/.output/AR6320/hw.3/lib/lib_maccore_patches.a(ar6000_interrupt_patch.o)
                                0x24c (size before relaxing)
 .xt.prop       0x00055fe0      0x2dc mac_core/patch/AR6320/v3/.output/AR6320/hw.3/lib/lib_maccore_patches.a(cmnos_intrinf_patch.o)
                                0x72c (size before relaxing)
 .xt.prop       0x000562bc      0x288 mac_core/patch/AR6320/v3/.output/AR6320/hw.3/lib/lib_maccore_patches.a(patch_pcie.o)
                                0x6b4 (size before relaxing)
 .xt.prop       0x00056544      0x60c mac_core/patch/AR6320/v3/.output/AR6320/hw.3/lib/lib_maccore_patches.a(patch_usb.o)
                                0xa98 (size before relaxing)
 .xt.prop       0x00056b50       0x90 mac_core/patch/AR6320/v3/.output/AR6320/hw.3/lib/lib_maccore_patches.a(wal_beacon_patch.o)
                                 0xcc (size before relaxing)
 .xt.prop       0x00056be0      0x114 mac_core/patch/AR6320/v3/.output/AR6320/hw.3/lib/lib_maccore_patches.a(wal_swba_patch.o)
                                0x198 (size before relaxing)
 .xt.prop       0x00056cf4      0x2a0 mac_core/patch/AR6320/v3/.output/AR6320/hw.3/lib/lib_maccore_patches.a(ar600P_retention_patch.o)
                                0x5e8 (size before relaxing)
 .xt.prop       0x00056f94       0x18 mac_core/patch/AR6320/v3/.output/AR6320/hw.3/lib/lib_maccore_patches.a(ar_wal_rmc_patch.o)
                                 0x30 (size before relaxing)
 .xt.prop       0x00056fac       0xa8 mac_core/patch/AR6320/v3/.output/AR6320/hw.3/lib/lib_maccore_patches.a(whal_rgc_patch.o)
 .xt.prop       0x00057054      0x12c mac_core/patch/AR6320/v3/.output/AR6320/hw.3/lib/lib_maccore_patches.a(patch_hif_ce.o)
                                0x228 (size before relaxing)
 .xt.prop       0x00057180      0x2dc mac_core/patch/AR6320/v3/.output/AR6320/hw.3/lib/lib_maccore_patches.a(patch_whal_coex.o)
                                0x588 (size before relaxing)
 .xt.prop       0x0005745c       0xf0 mac_core/patch/AR6320/v3/.output/AR6320/hw.3/lib/lib_maccore_patches.a(patch_whal_mws.o)
                                0x228 (size before relaxing)
 .xt.prop       0x0005754c      0x2b8 mac_core/patch/AR6320/v3/.output/AR6320/hw.3/lib/lib_maccore_patches.a(patch_whal_mci.o)
                                0x444 (size before relaxing)
 .xt.prop       0x00057804       0xc0 mac_core/patch/AR6320/v3/.output/AR6320/hw.3/lib/lib_maccore_patches.a(ar_wal_tx_dm_patch.o)
                                0x168 (size before relaxing)
 .xt.prop       0x000578c4      0x2f4 mac_core/patch/AR6320/v3/.output/AR6320/hw.3/lib/lib_maccore_patches.a(patch_copy_engine.o)
                                0x630 (size before relaxing)
 .xt.prop       0x00057bb8      0x294 mac_core/patch/AR6320/v3/.output/AR6320/hw.3/lib/lib_maccore_patches.a(wal_concurrency_patch.o)
                                0x300 (size before relaxing)
 .xt.prop       0x00057e4c      0x450 mac_core/patch/AR6320/v3/.output/AR6320/hw.3/lib/lib_maccore_patches.a(ar_wal_tdls_patch.o)
                                0x654 (size before relaxing)
 .xt.prop       0x0005829c       0xcc mac_core/patch/AR6320/v3/.output/AR6320/hw.3/lib/lib_maccore_patches.a(cmnos_timer_patch.o)
                                0x15c (size before relaxing)
 .xt.prop       0x00058368       0x54 mac_core/patch/AR6320/v3/.output/AR6320/hw.3/lib/lib_maccore_patches.a(ar_wal_tx_hcm_patch.o)
                                 0x6c (size before relaxing)
 .xt.prop       0x000583bc      0x390 mac_core/patch/AR6320/v3/.output/AR6320/hw.3/lib/lib_maccore_patches.a(ar_wal_tdls_conn_table_patch.o)
                                0x57c (size before relaxing)
 .xt.prop       0x0005874c       0xf0 mac_core/patch/AR6320/v3/.output/AR6320/hw.3/lib/lib_maccore_patches.a(ar600P_recv_patch.o)
                                0x21c (size before relaxing)
 .xt.prop       0x0005883c       0x60 mac_core/patch/AR6320/v3/.output/AR6320/hw.3/lib/lib_maccore_patches.a(patch_gpio.o)
                                 0x90 (size before relaxing)
 .xt.prop       0x0005889c       0x6c mac_core/patch/AR6320/v3/.output/AR6320/hw.3/lib/lib_maccore_patches.a(os_install_wlan_extra_memory_patches.o)
                                 0xb4 (size before relaxing)
 .xt.prop       0x00058908       0x9c mac_core/patch/AR6320/v3/.output/AR6320/hw.3/lib/lib_maccore_patches.a(patch_athos_main.o)
                                0x1c8 (size before relaxing)
 .xt.prop       0x000589a4       0xe4 mac_core/patch/AR6320/v3/.output/AR6320/hw.3/lib/lib_maccore_patches.a(cmnos_misc_patch.o)
                                0x24c (size before relaxing)
 .xt.prop       0x00058a88       0xf0 mac_core/patch/AR6320/v3/.output/AR6320/hw.3/lib/lib_maccore_patches.a(sha1_patch.o)
                                0x144 (size before relaxing)
 .xt.prop       0x00058b78       0x30 mac_core/patch/AR6320/v3/.output/AR6320/hw.3/lib/lib_maccore_patches.a(qheap_patch.o)
 .xt.prop       0x00058ba8       0x60 mac_core/patch/AR6320/v3/.output/AR6320/hw.3/lib/lib_maccore_patches.a(patch_hif_sdio.o)
                                 0x78 (size before relaxing)
 .xt.prop       0x00058c08      0x12c mac_core/patch/AR6320/v3/.output/AR6320/hw.3/lib/lib_maccore_patches.a(ar_wal_txbf_patch.o)
                                0x21c (size before relaxing)
 .xt.prop       0x00058d34       0xfc mac_core/patch/AR6320/v3/.output/AR6320/hw.3/lib/lib_maccore_patches.a(wmi_dbgloghook_patch.o)
                                0x168 (size before relaxing)
 .xt.prop       0x00058e30      0x1f8 mac_core/patch/AR6320/v3/.output/AR6320/hw.3/lib/lib_maccore_patches.a(cmnos_allocram_patch.o)
                                0x30c (size before relaxing)
 .xt.prop       0x00059028      0xdb0 protocol/src/extwow/.output/AR6320/hw.3/lib/libextwow.a(wlan_extwow.o)
                               0x1464 (size before relaxing)
 .xt.prop       0x00059dd8       0x3c halphy/patch/AR6320/v3/.output/AR6320/hw.3/lib/lib_halphy_patches.a(halphy_install_patches.o)
                                 0x90 (size before relaxing)
 .xt.prop       0x00059e14      0x390 halphy/patch/AR6320/v3/.output/AR6320/hw.3/lib/lib_halphy_patches.a(ar6000_nf_cal_patch.o)
                                0x864 (size before relaxing)
 .xt.prop       0x0005a1a4      0x348 halphy/patch/AR6320/v3/.output/AR6320/hw.3/lib/lib_halphy_patches.a(ar6000_ani_patch.o)
                                0x78c (size before relaxing)
 .xt.prop       0x0005a4ec      0x4b0 halphy/patch/AR6320/v3/.output/AR6320/hw.3/lib/lib_halphy_patches.a(ar6320_ini_patch.o)
                                0x9a8 (size before relaxing)
 .xt.prop       0x0005a99c      0xb34 halphy/patch/AR6320/v3/.output/AR6320/hw.3/lib/lib_halphy_patches.a(ar6320_tpc_config_patch.o)
                               0x162c (size before relaxing)
 .xt.prop       0x0005b4d0      0xbf4 halphy/patch/AR6320/v3/.output/AR6320/hw.3/lib/lib_halphy_patches.a(ar6320_eeprom_patch.o)
                               0x1884 (size before relaxing)
 .xt.prop       0x0005c0c4      0x420 halphy/patch/AR6320/v3/.output/AR6320/hw.3/lib/lib_halphy_patches.a(ar600P_reset_patch.o)
                                0xc90 (size before relaxing)
 .xt.prop       0x0005c4e4     0x1008 halphy/patch/AR6320/v3/.output/AR6320/hw.3/lib/lib_halphy_patches.a(ar6000_paprd_patch.o)
                               0x21d8 (size before relaxing)
 .xt.prop       0x0005d4ec       0x48 halphy/patch/AR6320/v3/.output/AR6320/hw.3/lib/lib_halphy_patches.a(ar6000_phy_patch.o)
                                 0x9c (size before relaxing)
 .xt.prop       0x0005d534       0x90 /cad/tensilica/chips/peregrine/RE-2013.3-linux/peregrine/xtensa-elf/lib/xcc//libgcc.a(_divsi3.o)
 .xt.prop       0x0005d5c4       0x6c /cad/tensilica/chips/peregrine/RE-2013.3-linux/peregrine/xtensa-elf/lib/xcc//libgcc.a(_modsi3.o)
 .xt.prop       0x0005d630       0x90 /cad/tensilica/chips/peregrine/RE-2013.3-linux/peregrine/xtensa-elf/lib/xcc//libgcc.a(_udivsi3.o)
 .xt.prop       0x0005d6c0       0x60 /cad/tensilica/chips/peregrine/RE-2013.3-linux/peregrine/xtensa-elf/lib/xcc//libgcc.a(_umodsi3.o)
 .xt.prop       0x0005d720       0x30 /cad/tensilica/chips/peregrine/RE-2013.3-linux/peregrine/xtensa-elf/lib/xcc//libgcc.a(_ashldi3.o)
 .xt.prop       0x0005d750       0x30 /cad/tensilica/chips/peregrine/RE-2013.3-linux/peregrine/xtensa-elf/lib/xcc//libgcc.a(_ashrdi3.o)
 .xt.prop       0x0005d780       0x30 /cad/tensilica/chips/peregrine/RE-2013.3-linux/peregrine/xtensa-elf/lib/xcc//libgcc.a(_lshrdi3.o)
 .xt.prop       0x0005d7b0      0x228 /cad/tensilica/chips/peregrine/RE-2013.3-linux/peregrine/xtensa-elf/lib/xcc//libgcc.a(_muldf3.o)
                                0x240 (size before relaxing)
 .xt.prop       0x0005d9d8       0x90 /cad/tensilica/chips/peregrine/RE-2013.3-linux/peregrine/xtensa-elf/lib/xcc//libgcc.a(_fixunsdfsi.o)
 .xt.prop       0x0005da68       0x48 /cad/tensilica/chips/peregrine/RE-2013.3-linux/peregrine/xtensa-elf/lib/xcc//libgcc.a(_floatsidf.o)
 .xt.prop       0x0005dab0       0x18 /cad/tensilica/chips/peregrine/RE-2013.3-linux/peregrine/xtensa-elf/lib/xcc//libgcc.a(_muldi3.o)
 .xt.prop       0x0005dac8      0x12c /cad/tensilica/chips/peregrine/RE-2013.3-linux/peregrine/xtensa-elf/lib/xcc//libgcc.a(_udivdi3.o)
                                0x1e0 (size before relaxing)
 .xt.prop       0x0005dbf4      0x15c /cad/tensilica/chips/peregrine/RE-2013.3-linux/peregrine/xtensa-elf/lib/xcc//libgcc.a(_umoddi3.o)
                                0x210 (size before relaxing)
 .xt.prop       0x0005dd50       0x84 /cad/tensilica/chips/peregrine/RE-2013.3-linux/peregrine/xtensa-elf/lib/xcc//libgcc.a(lib2funcs.o)
                                 0x90 (size before relaxing)
 .xt.prop       0x0005ddd4      0x120 protocol/src/tcpip/.output/AR6320/hw.3/lib/libtcpip.a(wlan_pb.o)
                                0x144 (size before relaxing)
 .xt.prop       0x0005def4      0x144 protocol/src/tcpip/.output/AR6320/hw.3/lib/libtcpip.a(wlan_tcpip.o)
                                0x1bc (size before relaxing)
 .xt.prop       0x0005e038      0x3cc mac_core/src/misc/serport/.output/AR6320/hw.3/lib/libserport.a(serial_if.o)
                                0x564 (size before relaxing)
 .xt.prop       0x0005e404      0x210 mac_core/src/misc/serport/.output/AR6320/hw.3/lib/libserport.a(serial_port.o)
                                0x318 (size before relaxing)
 .xt.prop       0x0005e614      0x6cc mac_core/src/misc/uartserp/.output/AR6320/hw.3/lib/libuartserp.a(uartserp.o)
                                0xaec (size before relaxing)
 .xt.prop       0x0005ece0      0x300 mac_core/src/wal/AR/nan/.output/AR6320/hw.3/lib/ar_wal_nan.a(wal_nan_mac.o)
                                0x5c4 (size before relaxing)
 .xt.prop       0x0005efe0      0x9cc mac_core/src/wal/whal/rtt/.output/AR6320/hw.3/lib/whal_rtt.a(whal_rtt.o)
                               0x12b4 (size before relaxing)
 *(.gnu.linkonce.prop.*)

.xt.lit
 *(.xt.lit)
 *(.gnu.linkonce.p.*)

.athwlan.slc
 *(.athwlan.slc)

.athwlan.sla    0x00984234        0x0
                0x00984234                log_sla_start = ABSOLUTE (.)
 *(.athwlan.sla)
                0x00984234                log_sla_finish = ABSOLUTE (.)

.athwlan.pack
 *(.athwlan.pack)

.memstats_desc  0x01000000     0x4a43
                0x01000000                memstat_start = ABSOLUTE (.)
 *(.memstats_desc)
 .memstats_desc
                0x01000000       0x51 protocol/src/init/.output/AR6320/hw.3/lib/libwlaninit.a(wlan_init.o)
 *fill*         0x01000051        0xf 00
 .memstats_desc
                0x01000060       0x3a protocol/src/init/.output/AR6320/hw.3/lib/libwlaninit.a(wlan_bss.o)
 *fill*         0x0100009a        0x6 00
 .memstats_desc
                0x010000a0      0x2a0 protocol/src/init/.output/AR6320/hw.3/lib/libwlaninit.a(wlan_buf.o)
 .memstats_desc
                0x01000340       0xd5 protocol/src/init/.output/AR6320/hw.3/lib/libwlaninit.a(wlan_dev.o)
 *fill*         0x01000415        0xb 00
 .memstats_desc
                0x01000420      0x274 mac_core/src/wal/AR/coex/.output/AR6320/hw.3/lib/wal_coex.a(wal_coex.o)
 *fill*         0x01000694        0xc 00
 .memstats_desc
                0x010006a0       0x4b mac_core/src/wal/AR/coex/.output/AR6320/hw.3/lib/wal_coex.a(wal_btcoex.o)
 *fill*         0x010006eb        0x5 00
 .memstats_desc
                0x010006f0       0xe8 mac_core/src/wal/AR/coex/.output/AR6320/hw.3/lib/wal_coex.a(wal_mwscoex.o)
 *fill*         0x010007d8        0x8 00
 .memstats_desc
                0x010007e0       0x69 mac_core/src/wal/whal/ini/.output/AR6320/hw.3/lib/libwhalini.a(whalini.o)
 *fill*         0x01000849        0x7 00
 .memstats_desc
                0x01000850       0xba mac_core/src/data_txrx/.output/AR6320/hw.3/lib/libdatatxrx.a(data_rx.o)
 *fill*         0x0100090a        0x6 00
 .memstats_desc
                0x01000910       0x5a mac_core/src/data_txrx/.output/AR6320/hw.3/lib/libdatatxrx.a(data_rx_peer.o)
 *fill*         0x0100096a        0x6 00
 .memstats_desc
                0x01000970      0x146 mac_core/src/data_txrx/.output/AR6320/hw.3/lib/libdatatxrx.a(data_rx_reorder.o)
 *fill*         0x01000ab6        0xa 00
 .memstats_desc
                0x01000ac0      0x141 protocol/src/vdev_mgr/.output/AR6320/hw.3/lib/libvdevmgr.a(wlan_vdev.o)
 *fill*         0x01000c01        0xf 00
 .memstats_desc
                0x01000c10       0xfd mac_core/src/ratectrl/.output/AR6320/hw.3/lib/libratectrl_11ac.a(ratectrl_11ac_if.o)
 *fill*         0x01000d0d        0x3 00
 .memstats_desc
                0x01000d10       0x4c mac_core/src/ratectrl/.output/AR6320/hw.3/lib/libratectrl_11ac.a(ratectrl_peer_state.o)
 *fill*         0x01000d5c        0x4 00
 .memstats_desc
                0x01000d60       0x3e protocol/src/rtt/.output/AR6320/hw.3/lib/librtt.a(wlan_rtt.o)
 *fill*         0x01000d9e        0x2 00
 .memstats_desc
                0x01000da0       0x4a protocol/src/phyerr/.output/AR6320/hw.3/lib/libphyerr.a(wlan_dfs_phyerr_filter.o)
 *fill*         0x01000dea        0x6 00
 .memstats_desc
                0x01000df0       0xe8 protocol/src/rfkill/.output/AR6320/hw.3/lib/librfkill.a(wlan_rfkill.o)
 *fill*         0x01000ed8        0x8 00
 .memstats_desc
                0x01000ee0       0x4a protocol/src/wmi/.output/AR6320/hw.3/lib/libumacwmi.a(wlan_wmi.o)
 *fill*         0x01000f2a        0x6 00
 .memstats_desc
                0x01000f30       0xc3 protocol/src/offload_mgr/.output/AR6320/hw.3/lib/liboffload_mgr.a(beacon_filter.o)
 *fill*         0x01000ff3        0xd 00
 .memstats_desc
                0x01001000       0x4e protocol/src/offload_mgr/.output/AR6320/hw.3/lib/liboffload_mgr.a(csa_offload_main.o)
 *fill*         0x0100104e        0x2 00
 .memstats_desc
                0x01001050      0x143 protocol/src/offload_mgr/.output/AR6320/hw.3/lib/liboffload_mgr.a(offload_mgr.o)
 *fill*         0x01001193        0xd 00
 .memstats_desc
                0x010011a0       0x3d protocol/src/offload_mgr/.output/AR6320/hw.3/lib/liboffload_mgr.a(wlan_gtk_offload.o)
 *fill*         0x010011dd        0x3 00
 .memstats_desc
                0x010011e0       0x34 protocol/src/offload_mgr/.output/AR6320/hw.3/lib/liboffload_mgr.a(wlan_wow.o)
 *fill*         0x01001214        0xc 00
 .memstats_desc
                0x01001220       0x96 protocol/src/mgmt/.output/AR6320/hw.3/lib/libmgmt.a(wlan_beacon.o)
 *fill*         0x010012b6        0xa 00
 .memstats_desc
                0x010012c0       0x60 protocol/src/mgmt/.output/AR6320/hw.3/lib/libmgmt.a(wlan_early_rx_sm.o)
 .memstats_desc
                0x01001320       0xb8 protocol/src/power/.output/AR6320/hw.3/lib/libpower.a(wlan_pm_arbiter.o)
 *fill*         0x010013d8        0x8 00
 .memstats_desc
                0x010013e0      0x160 protocol/src/power/.output/AR6320/hw.3/lib/libpower.a(wlan_powersave.o)
 .memstats_desc
                0x01001540      0x112 protocol/src/power/smps/.output/AR6320/hw.3/lib/libsmps.a(wlan_smps.o)
 *fill*         0x01001652        0xe 00
 .memstats_desc
                0x01001660       0x42 protocol/src/resmgr/.output/AR6320/hw.3/lib/libresmgr.a(channel_mgr.o)
 *fill*         0x010016a2        0xe 00
 .memstats_desc
                0x010016b0       0x83 protocol/src/resmgr/.output/AR6320/hw.3/lib/libresmgr.a(resmgr.o)
 *fill*         0x01001733        0xd 00
 .memstats_desc
                0x01001740       0x4d protocol/src/resmgr/.output/AR6320/hw.3/lib/libresmgr.a(resmgr_dyn_sch.o)
 *fill*         0x0100178d        0x3 00
 .memstats_desc
                0x01001790      0x142 protocol/src/resmgr/.output/AR6320/hw.3/lib/libresmgr.a(resmgr_ocs.o)
 *fill*         0x010018d2        0xe 00
 .memstats_desc
                0x010018e0       0xb3 protocol/src/resmgr/.output/AR6320/hw.3/lib/libresmgr.a(virtual_channel.o)
 *fill*         0x01001993        0xd 00
 .memstats_desc
                0x010019a0       0xc2 mac_core/src/hostif/htc/.output/AR6320/hw.3/lib/libhtc.a(htc.o)
 *fill*         0x01001a62        0xe 00
 .memstats_desc
                0x01001a70      0x1b4 mac_core/src/hostif/htt/.output/AR6320/hw.3/lib/libhtt.a(htt_tgt_hif_svc.o)
 *fill*         0x01001c24        0xc 00
 .memstats_desc
                0x01001c30      0x111 mac_core/src/hostif/htt/.output/AR6320/hw.3/lib/libhtt.a(htt_tgt_rx.o)
 *fill*         0x01001d41        0xf 00
 .memstats_desc
                0x01001d50       0x5d mac_core/src/hostif/htt/.output/AR6320/hw.3/lib/libhtt.a(htt_tgt_rx_event.o)
 *fill*         0x01001dad        0x3 00
 .memstats_desc
                0x01001db0       0x64 mac_core/src/hostif/htt/.output/AR6320/hw.3/lib/libhtt.a(htt_tgt_tx.o)
 *fill*         0x01001e14        0xc 00
 .memstats_desc
                0x01001e20       0x94 mac_core/src/utils/sm/.output/AR6320/hw.3/lib/libsm.a(sm.o)
 *fill*         0x01001eb4        0xc 00
 .memstats_desc
                0x01001ec0       0x39 protocol/src/coex/.output/AR6320/hw.3/lib/libcoex.a(coex.o)
 *fill*         0x01001ef9        0x7 00
 .memstats_desc
                0x01001f00      0x191 mac_core/src/hostif/wmisvc/.output/AR6320/hw.3/lib/libwmisvc.a(wmi_svc.o)
 *fill*         0x01002091        0xf 00
 .memstats_desc
                0x010020a0       0x42 protocol/src/scan/.output/AR6320/hw.3/lib/libscan.a(wlan_dcs.o)
 *fill*         0x010020e2        0xe 00
 .memstats_desc
                0x010020f0       0xd7 protocol/src/scan/.output/AR6320/hw.3/lib/libscan.a(wlan_scan_sch.o)
 *fill*         0x010021c7        0x9 00
 .memstats_desc
                0x010021d0       0x2e protocol/src/scan/.output/AR6320/hw.3/lib/libscan.a(wlan_scan.o)
 *fill*         0x010021fe        0x2 00
 .memstats_desc
                0x01002200      0x101 protocol/src/roam/.output/AR6320/hw.3/lib/libroam.a(wlan_roam.o)
 *fill*         0x01002301        0xf 00
 .memstats_desc
                0x01002310       0x7f protocol/src/pps/.output/AR6320/hw.3/lib/libpps.a(wlan_pps.o)
 *fill*         0x0100238f        0x1 00
 .memstats_desc
                0x01002390      0x339 protocol/src/stats/.output/AR6320/hw.3/lib/libstats.a(wlan_stats.o)
 *fill*         0x010026c9        0x7 00
 .memstats_desc
                0x010026d0       0x53 protocol/src/stats/.output/AR6320/hw.3/lib/libstats.a(wlan_estimate_linkspeed.o)
 *fill*         0x01002723        0xd 00
 .memstats_desc
                0x01002730       0x42 mac_core/src/pktlog/.output/AR6320/hw.3/lib/libpktlog.a(pktlog.o)
 *fill*         0x01002772        0xe 00
 .memstats_desc
                0x01002780       0x3e protocol/src/p2p/.output/AR6320/hw.3/lib/libp2p.a(p2p_main.o)
 *fill*         0x010027be        0x2 00
 .memstats_desc
                0x010027c0       0x50 protocol/src/chatter/.output/AR6320/hw.3/lib/libchatter.a(wlan_chatter.o)
 .memstats_desc
                0x01002810       0xb7 protocol/src/chatter/.output/AR6320/hw.3/lib/libchatter.a(wlan_coalescing.o)
 *fill*         0x010028c7        0x9 00
 .memstats_desc
                0x010028d0       0x9f mac_core/src/utils/buf_chunk/.output/AR6320/hw.3/lib/libbufchunk.a(buf_chunk_api.o)
 *fill*         0x0100296f        0x1 00
 .memstats_desc
                0x01002970       0x56 protocol/src/txbf/.output/AR6320/hw.3/lib/libtxbf.a(wlan_txbf.o)
 *fill*         0x010029c6        0xa 00
 .memstats_desc
                0x010029d0      0x15e protocol/src/tdls/.output/AR6320/hw.3/lib/libtdls.a(wlan_tdls.o)
 *fill*         0x01002b2e        0x2 00
 .memstats_desc
                0x01002b30      0x13b mac_core/src/misc/extend_alloc/.output/AR6320/hw.3/lib/libextendalloc.a(extend_allocate.o)
 *fill*         0x01002c6b        0x5 00
 .memstats_desc
                0x01002c70       0x51 protocol/src/thermal_mgr/.output/AR6320/hw.3/lib/libthermalmgr.a(wlan_thermal_mgr.o)
 *fill*         0x01002cc1        0xf 00
 .memstats_desc
                0x01002cd0       0xd4 mac_core/src/hostif/wdi_ipa/.output/AR6320/hw.3/lib/libwdi_ipa.a(wdi_ipa_rx.o)
 *fill*         0x01002da4        0xc 00
 .memstats_desc
                0x01002db0       0xc2 mac_core/src/hostif/wdi_ipa/.output/AR6320/hw.3/lib/libwdi_ipa.a(wdi_ipa_tx.o)
 *fill*         0x01002e72        0xe 00
 .memstats_desc
                0x01002e80       0x51 mac_core/src/hostif/hif/hif_dbguart/.output/AR6320/hw.3/lib/lib_hif_dbguart.a(hif_dbguart.o)
 *fill*         0x01002ed1        0xf 00
 .memstats_desc
                0x01002ee0      0x16d protocol/src/lpi/.output/AR6320/hw.3/lib/liblpi.a(wlan_lpi.o)
 *fill*         0x0100304d        0x3 00
 .memstats_desc
                0x01003050       0xdf protocol/src/offload/.output/AR6320/hw.3/lib/liboffload.a(wlan_arp_ns_offload.o)
 *fill*         0x0100312f        0x1 00
 .memstats_desc
                0x01003130      0x1d8 protocol/src/offload/.output/AR6320/hw.3/lib/liboffload.a(wlan_beacon_tx_offload.o)
 *fill*         0x01003308        0x8 00
 .memstats_desc
                0x01003310       0xc4 protocol/src/offload/.output/AR6320/hw.3/lib/liboffload.a(wlan_network_list_offload.o)
 *fill*         0x010033d4        0xc 00
 .memstats_desc
                0x010033e0      0x10e protocol/src/offload/.output/AR6320/hw.3/lib/liboffload.a(wlan_swbmiss_offload.o)
 *fill*         0x010034ee        0x2 00
 .memstats_desc
                0x010034f0       0x9a mac_core/src/misc/codeswap/.output/AR6320/hw.3/lib/libcodeswap.a(codeswap.o)
 *fill*         0x0100358a        0x6 00
 .memstats_desc
                0x01003590      0x114 protocol/src/blockack/.output/AR6320/hw.3/lib/libblockack.a(wlan_blockack.o)
 *fill*         0x010036a4        0xc 00
 .memstats_desc
                0x010036b0       0xb2 mac_core/src/wal/whal/reset/.output/AR6320/hw.3/lib/ar6000_cal.a(ar6320_cal.o)
 *fill*         0x01003762        0xe 00
 .memstats_desc
                0x01003770       0x48 protocol/src/nan/.output/AR6320/hw.3/lib/libnanwlan.a(wlan_nan.o)
 *fill*         0x010037b8        0x8 00
 .memstats_desc
                0x010037c0       0x44 protocol/src/nan/.output/AR6320/hw.3/lib/libnanwlan.a(wlan_nan_sync.o)
 *fill*         0x01003804        0xc 00
 .memstats_desc
                0x01003810       0x3e protocol/src/nan/.output/AR6320/hw.3/lib/libnanwlan.a(wlan_nan_mac.o)
 *fill*         0x0100384e        0x2 00
 .memstats_desc
                0x01003850       0x46 protocol/src/nan/.output/AR6320/hw.3/lib/libnanwlan.a(wlan_nan_publish.o)
 *fill*         0x01003896        0xa 00
 .memstats_desc
                0x010038a0       0x4a protocol/src/nan/.output/AR6320/hw.3/lib/libnanwlan.a(wlan_nan_subscribe.o)
 *fill*         0x010038ea        0x6 00
 .memstats_desc
                0x010038f0       0x40 protocol/src/nan/.output/AR6320/hw.3/lib/libnanwlan.a(wlan_nan_ctrl.o)
 .memstats_desc
                0x01003930       0x49 protocol/src/nan/.output/AR6320/hw.3/lib/libnanwlan.a(wlan_nan_de_if.o)
 *fill*         0x01003979        0x7 00
 .memstats_desc
                0x01003980       0x41 protocol/src/nan/.output/AR6320/hw.3/lib/libnanwlan.a(wlan_nan_match.o)
 *fill*         0x010039c1        0xf 00
 .memstats_desc
                0x010039d0       0x3f protocol/src/nan/.output/AR6320/hw.3/lib/libnanwlan.a(wlan_nan_attr.o)
 *fill*         0x01003a0f        0x1 00
 .memstats_desc
                0x01003a10       0x48 mac_core/src/wal/AR/rtt/.output/AR6320/hw.3/lib/ar_wal_rtt.a(wal_rtt.o)
 *fill*         0x01003a58        0x8 00
 .memstats_desc
                0x01003a60      0x354 mac_core/patch/AR6320/v3/.output/AR6320/hw.3/lib/lib_maccore_patches.a(ar_wal_phy_dev_patch.o)
 *fill*         0x01003db4        0xc 00
 .memstats_desc
                0x01003dc0       0x8e mac_core/patch/AR6320/v3/.output/AR6320/hw.3/lib/lib_maccore_patches.a(pool_mgr_patch.o)
 *fill*         0x01003e4e        0x2 00
 .memstats_desc
                0x01003e50      0x239 mac_core/patch/AR6320/v3/.output/AR6320/hw.3/lib/lib_maccore_patches.a(ar_wal_rx_patch.o)
 *fill*         0x01004089        0x7 00
 .memstats_desc
                0x01004090      0x110 mac_core/patch/AR6320/v3/.output/AR6320/hw.3/lib/lib_maccore_patches.a(ar_wal_rx_offload_patch.o)
 .memstats_desc
                0x010041a0       0x48 mac_core/patch/AR6320/v3/.output/AR6320/hw.3/lib/lib_maccore_patches.a(tx_sched_patch.o)
 *fill*         0x010041e8        0x8 00
 .memstats_desc
                0x010041f0      0x247 mac_core/patch/AR6320/v3/.output/AR6320/hw.3/lib/lib_maccore_patches.a(ar_wal_tx_send_patch.o)
 *fill*         0x01004437        0x9 00
 .memstats_desc
                0x01004440      0x175 mac_core/patch/AR6320/v3/.output/AR6320/hw.3/lib/lib_maccore_patches.a(ar_wal_peer_patch.o)
 *fill*         0x010045b5        0xb 00
 .memstats_desc
                0x010045c0       0xe2 mac_core/patch/AR6320/v3/.output/AR6320/hw.3/lib/lib_maccore_patches.a(dbglog_patch.o)
 *fill*         0x010046a2        0xe 00
 .memstats_desc
                0x010046b0       0x71 mac_core/patch/AR6320/v3/.output/AR6320/hw.3/lib/lib_maccore_patches.a(ar600P_retention_patch.o)
 *fill*         0x01004721        0xf 00
 .memstats_desc
                0x01004730       0xdb mac_core/patch/AR6320/v3/.output/AR6320/hw.3/lib/lib_maccore_patches.a(ar_wal_tdls_patch.o)
 *fill*         0x0100480b        0x5 00
 .memstats_desc
                0x01004810       0x46 protocol/src/extwow/.output/AR6320/hw.3/lib/libextwow.a(wlan_extwow.o)
 *fill*         0x01004856        0xa 00
 .memstats_desc
                0x01004860       0x49 mac_core/src/misc/serport/.output/AR6320/hw.3/lib/libserport.a(serial_if.o)
 *fill*         0x010048a9        0x7 00
 .memstats_desc
                0x010048b0       0xf7 mac_core/src/misc/serport/.output/AR6320/hw.3/lib/libserport.a(serial_port.o)
 *fill*         0x010049a7        0x9 00
 .memstats_desc
                0x010049b0       0x45 mac_core/src/misc/uartserp/.output/AR6320/hw.3/lib/libuartserp.a(uartserp.o)
 *fill*         0x010049f5        0xb 00
 .memstats_desc
                0x01004a00       0x43 mac_core/src/wal/whal/rtt/.output/AR6320/hw.3/lib/whal_rtt.a(whal_rtt.o)
                0x00400000                PROVIDE (_indir_tbl, 0x400000)
                0x0040445c                PROVIDE (dbglog_config, 0x40445c)
                0x0092ed58                PROVIDE (dbglog_record_log_buf, 0x92ed58)
                0x0092e910                PROVIDE (dbglog_manage_log_buffer, 0x92e910)
                0x0092e9fc                PROVIDE (dbglog_add_argument, 0x92e9fc)
                0x00917258                PROVIDE (dbglog_resume, 0x917258)
                0x00917238                PROVIDE (dbglog_suspend, 0x917238)
                0x0093f0c0                PROVIDE (whalAttach, 0x93f0c0)
                0x00407e84                PROVIDE (whalIndirectionTable, 0x407e84)
                0x00413800                PROVIDE (whalAttachTable, 0x413800)
                0x0093c86c                PROVIDE (ar6320ProgIniTables, 0x93c86c)
                0x0093c938                PROVIDE (ar6320ProgTxFirTable, 0x93c938)
                0x004137f0                PROVIDE (whalChainMaskToNumChains, 0x4137f0)
                0x00919fac                PROVIDE (mboxhw_module_install, 0x919fac)
                0x00912a6c                PROVIDE (cmnos_allocram_module_install, 0x912a6c)
                0x009183b8                PROVIDE (gpio_module_install, 0x9183b8)
                0x009177e4                PROVIDE (dbglog_module_install, 0x9177e4)
                0x0091f030                PROVIDE (md5_module_install, 0x91f030)
                0x00952cb8                PROVIDE (memcpy, 0x952cb8)
                0x00952f4c                PROVIDE (memset, 0x952f4c)
                0x00952a18                PROVIDE (__divsi3, 0x952a18)
                0x00952acc                PROVIDE (__udivsi3, 0x952acc)
                0x00952b1c                PROVIDE (__umodsi3, 0x952b1c)
                0x00952a80                PROVIDE (__modsi3, 0x952a80)
                0x009514b8                PROVIDE (__udivdi3, 0x9514b8)
                0x00952b74                PROVIDE (__ashrdi3, 0x952b74)
                0x00916af8                PROVIDE (timer_insert, 0x916af8)
                0x00952c20                PROVIDE (memcmp, 0x952c20)
                0x00952db0                PROVIDE (memmove, 0x952db0)
                0x00951c7c                PROVIDE (strcpy, 0x951c7c)
                0x00951e58                PROVIDE (strncpy, 0x951e58)
                0x00951d0c                PROVIDE (strlen, 0x951d0c)
                0x00951b58                PROVIDE (strcmp, 0x951b58)
                0x00951d70                PROVIDE (strncmp, 0x951d70)
                0x00910700                PROVIDE (athos_block_all_intrlvl, 0x910700)
                0x00910714                PROVIDE (athos_restore_intrlvl, 0x910714)
                0x00913b60                PROVIDE (cmnos_delay_us, 0x913b60)
                0x009147e8                PROVIDE (cmnos_dsr_attach, 0x9147e8)
                0x00913b94                PROVIDE (cmnos_milliseconds, 0x913b94)
                0x00915be8                PROVIDE (cmnos_printf, 0x915be8)
                0x00913bdc                PROVIDE (cmnos_refclk_speed_get, 0x913bdc)
                0x00916bcc                PROVIDE (cmnos_timer_arm, 0x916bcc)
                0x00916c08                PROVIDE (cmnos_timer_disarm, 0x916c08)
                0x00916ac4                PROVIDE (cmnos_timer_setfn, 0x916ac4)
                0x00913c40                PROVIDE (cmnos_uart_frequency, 0x913c40)
                0x00914818                PROVIDE (cmnos_dsr_detach, 0x914818)
                0x00914894                PROVIDE (cmnos_intr_mask_inum, 0x914894)
                0x009148dc                PROVIDE (cmnos_intr_unmask_inum, 0x9148dc)
                0x0091482c                PROVIDE (cmnos_isr_attach, 0x91482c)
                0x00914880                PROVIDE (cmnos_isr_detach, 0x914880)
                0x00914920                PROVIDE (cmnos_intr_invoke_isr, 0x914920)
                0x00915554                PROVIDE (cmnos_power_syssleep_control, 0x915554)
                0x00916c98                PROVIDE (cmnos_timer_done, 0x916c98)
                0x0091554c                PROVIDE (cmnos_power_uart_control, 0x91554c)
                0x009160f8                PROVIDE (cmnos_serial_getc, 0x9160f8)
                0x00916024                PROVIDE (cmnos_serial_hwinit, 0x916024)
                0x00913c84                PROVIDE (cmnos_wlan_band_set, 0x913c84)
                0x00916ec8                PROVIDE (cmnos_wdt_enable, 0x916ec8)
                0x00912ab0                PROVIDE (cmnos_bddata_addr, 0x912ab0)
                0x00916e84                PROVIDE (cmnos_wdt_current_action, 0x916e84)
                0x00912a90                PROVIDE (cmnos_bddata_setup, 0x912a90)
                0x00914c44                PROVIDE (cmnos_system_reset, 0x914c44)
                0x00913b18                PROVIDE (cmnos_dcache_flush, 0x913b18)
                0x00913b28                PROVIDE (cmnos_dcache_invalidate, 0x913b28)
                0x00915174                PROVIDE (cmnos_target_id_get, 0x915174)
                0x00915180                PROVIDE (cmnos_is_host_present, 0x915180)
                0x00916f4c                PROVIDE (cmnos_wdt_disable, 0x916f4c)
                0x00916f90                PROVIDE (cmnos_wdt_restore, 0x916f90)
                0x0091268c                PROVIDE (cmnos_allocram, 0x91268c)
                0x00914b60                PROVIDE (cmnos_mbox_word_pop, 0x914b60)
                0x00914c60                PROVIDE (cmnos_mac_reset, 0x914c60)
                0x0091612c                PROVIDE (cmnos_serial_init, 0x91612c)
                0x00915c84                PROVIDE (cmnos_printf_init, 0x915c84)
                0x00952b90                PROVIDE (__lshrdi3, 0x952b90)
                0x00404490                PROVIDE (debug_timer, 0x404490)
                0x00404494                PROVIDE (debug_timerfn, 0x404494)
                0x00916a1c                PROVIDE (cmnos_timer_intr_set, 0x916a1c)
                0x00916e90                PROVIDE (cmnos_wdt_reset, 0x916e90)
                0x004131e0                PROVIDE (rfModeArray, 0x4131e0)
                0x00413220                PROVIDE (bandArray, 0x413220)
                0x009407f4                PROVIDE (ar6000SetWapiKeyidSearch, 0x9407f4)
                0x00940be0                PROVIDE (ar6000SetChannel, 0x940be0)
                0x0094d108                PROVIDE (ar6000EepromReset, 0x94d108)
                0x004115e0                PROVIDE (curr_band, 0x4115e0)
                0x0093a544                PROVIDE (ar6000PerCalibration, 0x93a544)
                0x004058f4                PROVIDE (pWhalAniIndirectionTable, 0x4058f4)
                0x009395b4                PROVIDE (ar6000SetSleepRegisters, 0x9395b4)
                0x0094d08c                PROVIDE (ar6000SetRegulatoryDomain, 0x94d08c)
                0x009398c0                PROVIDE (ar6000Reset, 0x9398c0)
                0x0093ddf8                PROVIDE (ar6000AllocateTxQueue, 0x93ddf8)
                0x0094cc24                PROVIDE (ar6000EepromSetTransmitPower, 0x94cc24)
                0x0093d190                PROVIDE (ar6000ResetTxQueue, 0x93d190)
                0x00401fc0                PROVIDE (board_data, 0x401fc0)
                0x00919400                PROVIDE (_MboxHW_AllocDMADesc, 0x919400)
                0x00919494                PROVIDE (_MboxHW_AllocInstallDMASentinel, 0x919494)
                0x00404570                PROVIDE (g_pMboxInstances, 0x404570)
                0x0094e144                PROVIDE (ar6000SetPowerCalTable, 0x94e144)
                0x0094ae94                PROVIDE (getLowerUpperIndex, 0x94ae94)
                0x0094b264                PROVIDE (fbin2freq, 0x94b264)
                0x0094ae50                PROVIDE (interpolate_round, 0x94ae50)
                0x009160b4                PROVIDE (cmnos_serial_putc, 0x9160b4)
                0x00413f20                PROVIDE (_bfp_api, 0x413f20)
                0x009192cc                PROVIDE (_spi_wait_part_done, 0x9192cc)
                0x00918888                PROVIDE (_i2c_wait_part_done, 0x918888)
                0x009193f4                PROVIDE (spi_nvramr_module_install, 0x9193f4)
                0x00918890                PROVIDE (i2c_nvramr_module_install, 0x918890)
                0x0041190c                PROVIDE (si_api, 0x41190c)
                0x004118d8                PROVIDE (nvram_configp, 0x4118d8)
                0x0040453c                PROVIDE (nvramr_api, 0x40453c)
                0x009393dc                PROVIDE (ar6000WriteAssocid, 0x9393dc)
                0x0091a3c0                PROVIDE (efuse_module_install, 0x91a3c0)
                0x00404580                PROVIDE (efuse_api, 0x404580)
                0x0091a5d0                PROVIDE (otpstream_read_module_install, 0x91a5d0)
                0x00404bdc                PROVIDE (otpstream_api, 0x404bdc)
                0x00404bd8                PROVIDE (otpstream_max_index, 0x404bd8)
                0x00404be4                PROVIDE (otpstream_index, 0x404be4)
                0x00404bd0                PROVIDE (otpstream_remaining, 0x404bd0)
                0x00404be8                PROVIDE (otpstream_start_index, 0x404be8)
                0x00404bed                PROVIDE (otpstream_POP_symbol, 0x404bed)
                0x00404bee                PROVIDE (otpstream_END_symbol, 0x404bee)
                0x00404bec                PROVIDE (otpstream_ESCAPE_symbol, 0x404bec)
                0x00404c14                PROVIDE (otpstream_escbytes_remaining, 0x404c14)
                0x00404be0                PROVIDE (otpstream_current_op, 0x404be0)
                0x009394ac                PROVIDE (ar6000SetOperatingMode, 0x9394ac)
                0x009203c4                PROVIDE (rc4_skip, 0x9203c4)
                0x004062f8                PROVIDE (pWhalPaprdIndirectionTable, 0x4062f8)
                0x0040a850                PROVIDE (pWhalEepromIndirectionTable, 0x40a850)
                0x0094b938                PROVIDE (ar6000EepromSetBoardValues, 0x94b938)
                0x0093a9b8                PROVIDE (ar6000GetCurrentTemp, 0x93a9b8)
                0x0040ab90                PROVIDE (g_bp, 0x40ab90)
                0x00413f1c                PROVIDE (_bfp_pvt_api, 0x413f1c)
                0x00936670                PROVIDE (ar6000PaprdHwEnable, 0x936670)
                0x0091d01c                PROVIDE (hif_module_install, 0x91d01c)
                0x0040a2e0                PROVIDE (eepromStruct, 0x40a2e0)
                0x0040a850                PROVIDE (pWhalEepromIndirectionTable, 0x40a850)
                0x00400a00                PROVIDE (boot_info, 0x400a00)
                0x00408924                PROVIDE (descProductString, 0x408924)
                0x00408920                PROVIDE (descManufacturerString, 0x408920)
                0x0040a050                PROVIDE (g_usb_bmi_info, 0x40a050)
                0x00910848                PROVIDE (athos_init_part2, 0x910848)
                0x00404d04                PROVIDE (g_hifUSBCtx, 0x404d04)
                0x004120c0                PROVIDE (_hif, 0x4120c0)
                0x0091a638                PROVIDE (_i2s_attach, 0x91a638)
                0x00411870                PROVIDE (malloc_api, 0x411870)
                0x00936794                PROVIDE (ar6000PaprdSetupTraining, 0x936794)
                0x00936770                PROVIDE (ar6000PaprdTrainingStopped, 0x936770)
                0x009369dc                PROVIDE (ar6000PaprdStopTraining, 0x9369dc)
                0x00936e44                PROVIDE (ar6000PaprdTrainNextGainIndex, 0x936e44)
                0x00937ce8                PROVIDE (ar6000PaprdCalibrationResetSM, 0x937ce8)
                0x00407da4                PROVIDE (pWhalResetIndirectionTable, 0x407da4)
                0x0041380c                PROVIDE (whalInternalIndirectionTable, 0x41380c)
                0x004085cc                PROVIDE (whalPreInitFn, 0x4085cc)
                0x009355d4                PROVIDE (ar6000NfGetCalHist, 0x9355d4)
                0x009396cc                PROVIDE (ar6000Set11nRegs, 0x9396cc)
                0x00939598                PROVIDE (ar6000ChannelSetCommon, 0x939598)
                0x00407e80                PROVIDE (gpAR6000WhalStruct, 0x407e80)
                0x0093ef00                PROVIDE (ar6000Attach, 0x93ef00)
                0x00952b5c                PROVIDE (__ashldi3, 0x952b5c)
                0x0093ca40                PROVIDE (ar6000ComputeTxTime, 0x93ca40)
                0x0040402c                PROVIDE (clock_info, 0x40402c)
                0x00404048                PROVIDE (cmnos_skip_bb_pll_init, 0x404048)
                0x00404024                PROVIDE (cmnos_cpu_speed, 0x404024)
                0x004115f0                PROVIDE (cmnos_clocking_table, 0x4115f0)
                0x00404038                PROVIDE (cmnos_skip_cpu_pll_init, 0x404038)
                0x00404020                PROVIDE (cmnos_cpu_pll_init_done, 0x404020)
                0x009355f4                PROVIDE (ar6000NfLimitRange, 0x9355f4)
                0x009474b4                PROVIDE (dma_lib_module_install, 0x9474b4)
                0x004137e0                PROVIDE (whalNumChannel, 0x4137e0)
                0x004137d8                PROVIDE (cipherToDescKeyType, 0x4137d8)
                0x00404bd4                PROVIDE (otpstream_min_index, 0x404bd4)
                0x00938294                PROVIDE (ar6000PaprdReset, 0x938294)
                0x00401e8c                PROVIDE (dma_local_bits, 0x401e8c)
                0x0091ed0c                PROVIDE (CE_module_install, 0x91ed0c)
                0x004122c0                PROVIDE (CE_API, 0x4122c0)
                0x0091dea0                PROVIDE (pipecfg_module_install, 0x91dea0)
                0x004120d0                PROVIDE (pipecfg_api, 0x4120d0)
                0x00404d90                PROVIDE (CE_pipe_config, 0x404d90)
                0x0041150c                PROVIDE (pcie_state, 0x41150c)
                0x00404584                PROVIDE (efuse_cache, 0x404584)
                0x0040a2c4                PROVIDE (gpMciStruct, 0x40a2c4)
                0x004085d0                PROVIDE (pWhalStruct, 0x4085d0)
                0x00401e34                PROVIDE (debug_iframe, 0x401e34)
                0x004122cc                PROVIDE (_qheap_fn, 0x4122cc)
                0x00412344                PROVIDE (_pool_mgr_fn, 0x412344)
                0x00404028                PROVIDE (cmnos_core_clk_div, 0x404028)
                0x00913bec                PROVIDE (cmnos_speed_to_hz, 0x913bec)
                0x00405070                PROVIDE (CE_id_to_state, 0x405070)
                0x00411540                PROVIDE (pcie_clock_gate_control, 0x411540)
                0x00411594                PROVIDE (pcie_txbuf_axi_gate_control, 0x411594)
                0x004122c4                PROVIDE (CE_per_engine_iteration_limit, 0x4122c4)
                0x004122c8                PROVIDE (CE_per_engine_max_reap, 0x4122c8)
                0x0041157c                PROVIDE (pcielp_ltr_handler, 0x41157c)
                0x00912248                PROVIDE (pcielp_ltr_get_platform_msg, 0x912248)
                0x00912328                PROVIDE (pcielp_ltr_enabled, 0x912328)
                0x009122ac                PROVIDE (pcielp_ltr_request_send, 0x9122ac)
                0x00912478                PROVIDE (pcielp_buffering_cfg, 0x912478)
                0x00401eb0                PROVIDE (pcielp_notify_event, 0x401eb0)
                0x00401ea8                PROVIDE (pcielp_notify_suspend, 0x401ea8)
                0x00411580                PROVIDE (pcielp_obff_handler, 0x411580)
                0x00405070                PROVIDE (CE_id_to_state, 0x405070)
                0x00411540                PROVIDE (pcie_clock_gate_control, 0x411540)
                0x00401ee0                PROVIDE (pcie_state_s, 0x401ee0)
                0x0091e008                PROVIDE (_CE_send, 0x91e008)
                0x00413640                PROVIDE (iniTable, 0x413640)
                0x00407de0                PROVIDE (iniTableDfs, 0x407de0)
                0x00941b08                PROVIDE (ar6000BeaconInit, 0x941b08)
                0x00941c64                PROVIDE (ar6000BeaconExit, 0x941c64)
                0x00941ccc                PROVIDE (ar6000SetNDPTimer, 0x941ccc)
                0x00941d60                PROVIDE (ar6000SetStaBeaconTimers, 0x941d60)
                0x009421fc                PROVIDE (ar6000ClearStaBeaconTimers, 0x9421fc)
                0x0094273c                PROVIDE (ar6000BeaconReset, 0x94273c)
                0x00942810                PROVIDE (ar6000SetQuiet, 0x942810)
                0x00411514                PROVIDE (pcie_config_space_init, 0x411514)
                0x00401ea0                PROVIDE (pcie_is_paused, 0x401ea0)
                0x0093d574                PROVIDE (ar6000CalcBitmapFailures, 0x93d574)
                0x00407e18                PROVIDE (g_dbg_skip_bt_per, 0x407e18)
                0x00942318                PROVIDE (ar6000GetTsf32, 0x942318)
                0x009422dc                PROVIDE (ar6000GetTsf64, 0x9422dc)
                0x0040a2c0                PROVIDE (gpWhalCoexStruct, 0x40a2c0)
                0x00412310                PROVIDE (aes_wrap_api, 0x412310)
                0x00412318                PROVIDE (SHA1ApiIndirectionTable, 0x412318)
                0x00938704                PROVIDE (ar6000RecvReset, 0x938704)
                0x00413180                PROVIDE (rx_comp_sizes, 0x413180)
                0x004122e4                PROVIDE (aes_int_api, 0x4122e4)
                0x004125a8                PROVIDE (wal_peer_api_tbl, 0x4125a8)
                0x004123c0                PROVIDE (wal_ast_api_tbl, 0x4123c0)
                0x00412560                PROVIDE (wal_peer_mcast_api_tbl, 0x412560)
                0x004128f0                PROVIDE (wal_rx_api_indir_tbl, 0x4128f0)
                0x00412528                PROVIDE (wal_local_frames_api_indir_tbl, 0x412528)
                0x004126c8                PROVIDE (wal_dev_api_tbl, 0x4126c8)
                0x004127f4                PROVIDE (_wal_rc_api_fn, 0x4127f4)
                0x00412e4c                PROVIDE (_wal_thermal_mgmt_api, 0x412e4c)
                0x004123dc                PROVIDE (wal_channel_change_api, 0x4123dc)
                0x00412ab4                PROVIDE (_tx_de_api, 0x412ab4)
                0x00412bb0                PROVIDE (wal_tx_send_api_indir_tbl, 0x412bb0)
                0x004123c8                PROVIDE (wal_chain_mgmt_api, 0x4123c8)
                0x00412454                PROVIDE (wal_pause_api_tbl, 0x412454)
                0x00412cf4                PROVIDE (_wal_beacon_api, 0x412cf4)
                0x00412c10                PROVIDE (wal_vdev_api_tbl, 0x412c10)
                0x00412e6c                PROVIDE (g_timer_api_tbl, 0x412e6c)
                0x00412af0                PROVIDE (tx_send_api_indir_tbl, 0x412af0)
                0x00412a88                PROVIDE (tx_dbg_api_indir_tbl, 0x412a88)
                0x004127c0                PROVIDE (tid_to_ac_map, 0x4127c0)
                0x00412780                PROVIDE (ac_to_tid_1_map, 0x412780)
                0x004058a0                PROVIDE (g_htt_tgt_rx_pkt_sel, 0x4058a0)
                0x004058b0                PROVIDE (g_htt_tgt_rx_comp_sel, 0x4058b0)
                0x00412b98                PROVIDE (g_dbg_subfrms_max, 0x412b98)
                0x0040588c                PROVIDE (g_dbg_aggr_ok, 0x40588c)
                0x00412658                PROVIDE (g_dbg_rx_reorder, 0x412658)
                0x0041235c                PROVIDE (g_dbg_wal_max_msdus, 0x41235c)
                0x00405420                PROVIDE (g_dbg_wal_stats, 0x405420)
                0x00412dd4                PROVIDE (wal_rtt_api, 0x412dd4)
                0x004058c0                PROVIDE (g_htt_tgt_rx_comp_offset_dwords, 0x4058c0)
                0x00412d64                PROVIDE (_wal_concurrency_api, 0x412d64)
                0x00405428                PROVIDE (g_walCoexApiTable, 0x405428)
                0x00412c90                PROVIDE (_tx_sch_api, 0x412c90)
                0x00412d88                PROVIDE (wal_pps_api_tbl, 0x412d88)
                0x00404d00                PROVIDE (HIF_CE_memcpy_hdl, 0x404d00)
                0x004129d4                PROVIDE (wal_spectral_api, 0x4129d4)
                0x004085c0                PROVIDE (g_whalCoexModuleApiTable, 0x4085c0)
                0x00412610                PROVIDE (wal_peer_internal_api_tbl, 0x412610)
                0x00412400                PROVIDE (_wal_pause_internal_api_tbl, 0x412400)
                0x00404534                PROVIDE (malloc_arena_default_block, 0x404534)
                0x00412e90                PROVIDE (module_id_api, 0x412e90)
                0x00412a4c                PROVIDE (wal_txbf_api_tbl, 0x412a4c)
                0x0091d148                PROVIDE (_HIF_CE_send_buffer, 0x91d148)
                0x00911bb0                PROVIDE (pcie_pause, 0x911bb0)
                0x00911ca0                PROVIDE (pcie_resume, 0x911ca0)
                0x0041152c                PROVIDE (pcie_clock_gate_bits, 0x41152c)
                0x00401ed8                PROVIDE (pcielp_l1ss_override, 0x401ed8)
                0x00411588                PROVIDE (pcielp_clkpm_handler, 0x411588)
                0x00411584                PROVIDE (pcielp_l1ss_handler, 0x411584)
                0x00411530                PROVIDE (pcie_workaround_bits, 0x411530)
                0x0041150c                PROVIDE (pcie_state, 0x41150c)
                0x0041151c                PROVIDE (gpio_pcie_reset_intr, 0x41151c)
                0x00411510                PROVIDE (pcie_set_bias_current, 0x411510)
                0x00911e24                PROVIDE (pcie_host_wake, 0x911e24)
                0x00911ea8                PROVIDE (pcie_host_awake_ack, 0x911ea8)
                0x00407da8                PROVIDE (whalConfigFlag, 0x407da8)
                0x00407d94                PROVIDE (waitForNfCalToComplete, 0x407d94)
                0x00412b44                PROVIDE (tx_send_internal_indir_tbl, 0x412b44)
                0x0041293c                PROVIDE (rx_internal_indir_tbl, 0x41293c)
                0x004129a0                PROVIDE (rx_ring_comp_orders, 0x4129a0)
                0x0040f000                PROVIDE (wal_decap_to_whal_decap, 0x40f000)
                0x00412394                PROVIDE (wal_ast_internal_api_tbl, 0x412394)
                0x00405654                PROVIDE (_g_rc_non_data_bw, 0x405654)
                0x00405884                PROVIDE (g_dbg_no_sw_retry, 0x405884)
                0x004127a0                PROVIDE (ac_to_tid_2_map, 0x4127a0)
                0x0040a068                PROVIDE (g_usb_bmi_flags, 0x40a068)
                0x00413d6c                PROVIDE (g_usb_diag_reset_delay_us, 0x413d6c)
                0x0040a06c                PROVIDE (g_usb_diag_reset_addr, 0x40a06c)
                0x0040a070                PROVIDE (g_usb_diag_reset_value, 0x40a070)
                0x00408ab4                PROVIDE (usb_snps_api, 0x408ab4)
                0x00413d70                PROVIDE (g_usb_warm_reset_no_wait, 0x413d70)
                0x00413c3c                PROVIDE (g_USB3PcdIndirectionTable, 0x413c3c)
                0x00413890                PROVIDE (g_USB3CilIndirectionTable, 0x413890)
                0x00944e60                PROVIDE (set_vendor_post_callback, 0x944e60)
                0x004120e0                PROVIDE (USB_OUT_pipe_config, 0x4120e0)
                0x00412110                PROVIDE (USB_IN_pipe_config, 0x412110)
                0x00412140                PROVIDE (default_service_to_USB_pipe_map, 0x412140)
                0x00411820                PROVIDE (timer_type_info, 0x411820)
                0x0093ae90                PROVIDE (rom_shadow_register, 0x93ae90)
                0x0093aae8                PROVIDE (ar6000ResetAttach, 0x93aae8)
                0x0094da18                PROVIDE (ar6000EepromAttach, 0x94da18)
                0x00948260                PROVIDE (whal_coex_module_install, 0x948260)
                0x00411858                PROVIDE (dbglog_dispatch_tbl, 0x411858)
                0x00916aac                PROVIDE (cmnos_timer_register_util_functions, 0x916aac)
                0x00916cbc                PROVIDE (cmnos_timer_handler, 0x916cbc)
                0x00916a68                PROVIDE (lf_timer_now_function, 0x916a68)
                0x00916a78                PROVIDE (lf_timer_millis_to_timer_ticks, 0x916a78)
                0x00916aac                PROVIDE (cmnos_timer_register_util_functions, 0x916aac)
                0x009143e0                PROVIDE (cmnos_timer_intr_clear, 0x9143e0)
                0x00411768                PROVIDE (hang_isr_error, 0x411768)
                0x00411770                PROVIDE (cmnos_lf_timer_info, 0x411770)
                0x00404060                PROVIDE (pending_timer_intrs, 0x404060)
                0x009143e0                PROVIDE (cmnos_timer_intr_clear, 0x9143e0)
                0x00412cec                PROVIDE (_wal_beacon_internal_api, 0x412cec)
                0x00412360                PROVIDE (_tx_q_enq_api, 0x412360)
                0x00412550                PROVIDE (local_frames_api_indir_tbl, 0x412550)
                0x00412abc                PROVIDE (_tx_dm_api, 0x412abc)
                0x00412bc4                PROVIDE (_wal_vdev_internal_api_tbl, 0x412bc4)
                0x00412990                PROVIDE (rx_api_indir_tbl, 0x412990)
                0x00412754                PROVIDE (_wal_pdev_api, 0x412754)
                0x004126a0                PROVIDE (_wal_dev_internal_api_tbl, 0x4126a0)
                0x00412d48                PROVIDE (_wal_concurrency_internal_api, 0x412d48)
                0x004044c0                PROVIDE (logtimer, 0x4044c0)
                0x0093aae8                PROVIDE (ar6000ResetAttach, 0x93aae8)
                0x0094239c                PROVIDE (ar6000GetBRssi, 0x94239c)
                0x0092aa5c                PROVIDE (_rx_resume, 0x92aa5c)
                0x00405838                PROVIDE (g_wal_de_cache, 0x405838)
                0x00405864                PROVIDE (g_dbg_de_cache_disable, 0x405864)
                0x00405868                PROVIDE (g_dbg_de_cache_stored, 0x405868)
                0x00412aa4                PROVIDE (_tx_de_internal_fn, 0x412aa4)
                0x0092ca80                PROVIDE (_tx_de_cache_match, 0x92ca80)
                0x004129d0                PROVIDE (rx_offload_api_indir_tbl, 0x4129d0)
                0x00412a38                PROVIDE (wal_tdls_api_tbl, 0x412a38)
                0x0040a870                PROVIDE (g_gtx_cfg, 0x40a870)
                0x00407db0                PROVIDE (p_ar6000InitCalStruct_fn, 0x407db0)
                0x00407c78                PROVIDE (pWhalNfCalIndirectionTable, 0x407c78)
                0x00407d98                PROVIDE (pWhalCalIndirectionTable, 0x407d98)
                0x009356a0                PROVIDE (ar6000InitNfCalStruct, 0x9356a0)
                0x00407dd8                PROVIDE (pWhalAGCCalIndirectionTable, 0x407dd8)
                0x00407dac                PROVIDE (pWhalRxDcCalIndirectionTable, 0x407dac)
                0x00407dc8                PROVIDE (pWhalAdcDcCalIndirectionTable, 0x407dc8)
                0x00407dd0                PROVIDE (pWhalAdcGainCalIndirectionTable, 0x407dd0)
                0x0093ba9c                PROVIDE (ar6000InitAdcDcCalStruct, 0x93ba9c)
                0x0093bb20                PROVIDE (ar6000InitAdcGainCalStruct, 0x93bb20)
                0x0093c4d8                PROVIDE (ar6000InitAGCCalStruct, 0x93c4d8)
                0x00405354                PROVIDE (time_report, 0x405354)
                0x00401f60                PROVIDE (arenas, 0x401f60)
                0x00911928                PROVIDE (pcie_enable, 0x911928)
                0x00411548                PROVIDE (pcie_addressing_config, 0x411548)
                0x0041154c                PROVIDE (pcie_interrupt_config, 0x41154c)
                0x00411504                PROVIDE (pcie_init_timer_handler, 0x411504)
                0x00411508                PROVIDE (pcie_init_timer_stop, 0x411508)
                0x009111ec                PROVIDE (check_idle, 0x9111ec)
                0x00411500                PROVIDE (pcie_init_timer_start, 0x411500)
                0x00411550                PROVIDE (pcie_pll_polls, 0x411550)
                0x00401ea4                PROVIDE (pcie_pll_assert_required, 0x401ea4)
                0x00411558                PROVIDE (pcie_set_clk_switch_wait, 0x411558)
                0x00411574                PROVIDE (pcie_pll_settle_short, 0x411574)
                0x0041155c                PROVIDE (pcie_pll_settle_long, 0x41155c)
                0x00915d48                PROVIDE (cmnos_retention_save_isr, 0x915d48)
                0x00910940                PROVIDE (athos_interrupt_handler, 0x910940)
                0x009102bc                PROVIDE (_xtos_set_interrupt_handler, 0x9102bc)
                0x00923088                PROVIDE (_ar_connection_pause_state_pause_send_n_event, 0x923088)
                0x0092dc0c                PROVIDE (tx_send_start_pn, 0x92dc0c)
                0x0092f520                PROVIDE (tx_send_pkt_info_do_cb, 0x92f520)
                0x00412b9c                PROVIDE (g_dbg_mpdu_spacing_tx, 0x412b9c)
                0x0040587c                PROVIDE (g_dbg_fixed_delim, 0x40587c)
                0x00412a98                PROVIDE (tx_dbg_internal_indir_tbl, 0x412a98)
                0x00405880                PROVIDE (g_ndpa_rate, 0x405880)
                0x00412ba8                PROVIDE (g_ndpa_preamble_type, 0x412ba8)
                0x00405881                PROVIDE (g_ndpa_bw, 0x405881)
                0x00405882                PROVIDE (g_ndp_bw, 0x405882)
                0x00412ba9                PROVIDE (g_ndp_nss, 0x412ba9)
                0x0092fe20                PROVIDE (_tx_send_proc_ppdu_done, 0x92fe20)
                0x009169f0                PROVIDE (cmnos_lf0_timer_arm, 0x9169f0)
                0x00407dd8                PROVIDE (pWhalAGCCalIndirectionTable, 0x407dd8)
                0x00911818                PROVIDE (pcie_set_target_l1, 0x911818)
                0x00911844                PROVIDE (pcie_clock_gate_control_internal, 0x911844)
                0x00412570                PROVIDE (wal_peer_pvt_api_tbl, 0x412570)
                0x00412370                PROVIDE (wal_ast_internal_tbl, 0x412370)
                0x009265cc                PROVIDE (_ar_wal_peer_wmmac_init, 0x9265cc)
                0x004129dc                PROVIDE (wal_tdls_ct_api_tbl, 0x4129dc)
                0x00945944                PROVIDE (_dwc_usb3_function_remote_wakeup, 0x945944)
                0x009468ac                PROVIDE (_handle_usb_reset_intr, 0x9468ac)
                0x0091e4b0                PROVIDE (dump_ce_registers, 0x91e4b0)
                0x0091e524                PROVIDE (dump_debug_registers, 0x91e524)
                0x0091e6dc                PROVIDE (AXI_ERROR_DETECTED, 0x91e6dc)
                0x00411554                PROVIDE (pcie_sw_save_phy_bias_l2, 0x411554)
                0x00401ec4                PROVIDE (ce_bmi_send, 0x401ec4)
                0x00401ec8                PROVIDE (ce_bmi_recv, 0x401ec8)
                0x00405070                PROVIDE (CE_id_to_state, 0x405070)
                0x00407e14                PROVIDE (g_last_bw, 0x407e14)
                0x0040a884                PROVIDE (cur_tbl_idx, 0x40a884)
                0x00407db8                PROVIDE (g_rfkill_enabled, 0x407db8)
                0x004117ec                PROVIDE (gp_cpu_addr_to_dma_addr, 0x4117ec)
                0x004117f0                PROVIDE (gp_dma_addr_to_cpu_addr, 0x4117f0)
                0x0095bc80                PROVIDE (_data_start_in_rom, 0x95bc80)
                0x004128d8                PROVIDE (_wal_rmc_api_fn, 0x4128d8)
                0x004117f4                PROVIDE (gp_soc_addr_read, 0x4117f4)
                0x004117f8                PROVIDE (gp_soc_addr_write, 0x4117f8)
                0x00412ad8                PROVIDE (_tx_hcm_api, 0x412ad8)
                0x0040a854                PROVIDE (g_GreenTx_cfg, 0x40a854)
                0x00405820                PROVIDE (g_txbfee_param, 0x405820)
                0x00405670                PROVIDE (g_rate_info_stats, 0x405670)
                0x004129b0                PROVIDE (rx_offload_internal_indir_tbl, 0x4129b0)
                0x00412cac                PROVIDE (g_dbg_sch_max_ppdu_per_tid, 0x412cac)
                0x00412cc0                PROVIDE (g_dbg_sch_max_ppdu_per_ac, 0x412cc0)
                0x00412670                PROVIDE (wal_key_type_hw2sw, 0x412670)
                0x00412690                PROVIDE (wal_key_ivmic_size, 0x412690)
                0x004058d4                PROVIDE (g_sched, 0x4058d4)
                0x00412cb0                PROVIDE (tx_sch_internal_indir_tbl, 0x412cb0)
                0x00412ba4                PROVIDE (g_dbg_burst_txoplimit, 0x412ba4)
                0x00412ca8                PROVIDE (g_dbg_sch_max_ppdu_per_tid_vo_vi, 0x412ca8)
                0x00405888                PROVIDE (g_dbg_vht_illegal_rate_err_cnt, 0x405888)
                0x00412b90                PROVIDE (g_dbg_txop_ignore, 0x412b90)
                0x009273ec                PROVIDE (_wal_pdev_resume, 0x9273ec)
                0x009263b8                PROVIDE (_ar_wal_peer_wmmac_events_callback_complete, 0x9263b8)
                0x0092656c                PROVIDE (_ar_wal_peer_wmmac_update, 0x92656c)
                0x0092646c                PROVIDE (_ar_wal_peer_wmmac_events_callback_block, 0x92646c)
                0x00412d7c                PROVIDE (ar_wal_pps_internal_api_tbl, 0x412d7c)
                0x00931f84                PROVIDE (_tx_sched_init, 0x931f84)
                0x00412cd0                PROVIDE (tx_sch_dispatch, 0x412cd0)
                0x00413ef0                PROVIDE (ar6000SpurMitApi, 0x413ef0)
                0x00934bfc                PROVIDE (ar6000_ani_get_listen_time, 0x934bfc)
                0x00934e70                PROVIDE (patch_ar6000_ani_reset, 0x934e70)
                0x009344ac                PROVIDE (ar6000_init_ani_struct, 0x9344ac)
                0x009345e4                PROVIDE (ar6000_search_ani_state, 0x9345e4)
                0x0040aa88                PROVIDE (pWhalEepromTpcConfigIndirectionTable, 0x40aa88)
                0x00401e90                PROVIDE (pcie_sw_prevent_config_missing, 0x401e90)
                0x00411518                PROVIDE (pcie_reset_gpio_set, 0x411518)
                0x00412e38                PROVIDE (_wal_swba_pvt_api, 0x412e38)
                0x00404374                PROVIDE (save_disable_syssleep, 0x404374)
                0x00915e3c                PROVIDE (cmnos_retention_restore_isr, 0x915e3c)
                0x00405658                PROVIDE (g_test_probe_set, 0x405658)
                0x0040564c                PROVIDE (g_test_probe_reset, 0x40564c)
                0x004128c0                PROVIDE (g_rc_probe_msdu_limit, 0x4128c0)
                0x00405654                PROVIDE (_g_rc_non_data_bw, 0x405654)
                0x00927bec                PROVIDE (_wal_test_rc_params_setup, 0x927bec)
                0x00928300                PROVIDE (_wal_non_data_rc_param_setup, 0x928300)
                0x009283a8                PROVIDE (_wal_local_frame_rate_setup, 0x9283a8)
                0x00407db4                PROVIDE (gp_retention_tbls, 0x407db4)
                0x00413810                PROVIDE (_whal_rgc_api_fn, 0x413810)
                0x0040a2c8                PROVIDE (g_mwswhal, 0x40a2c8)
                0x0092633c                PROVIDE (_ar_wal_peer_wmmac_remap_txq, 0x92633c)
                0x00926300                PROVIDE (_ar_wal_peer_wmmac_remap_qid, 0x926300)
                0x004128bd                PROVIDE (_g_rc_non_data_tries, 0x4128bd)
                0x00412e44                PROVIDE (_wal_swba_api, 0x412e44)
                0x0040407c                PROVIDE (g_dbg_dsr_last, 0x40407c)
                0x00404080                PROVIDE (g_dbg_dsr_pre, 0x404080)
                0x00404070                PROVIDE (dsr_handler_pre, 0x404070)
                0x00404088                PROVIDE (dsr_handler_post, 0x404088)
                0x0040ab98                PROVIDE (kernelstack, 0x40ab98)
                0x00404078                PROVIDE (pending_dsrs, 0x404078)
                0x00404090                PROVIDE (cmnos_intr_service, 0x404090)
                0x00404074                PROVIDE (cmnos_enabled_interrupts, 0x404074)
                0x00404084                PROVIDE (stackinit_flag, 0x404084)
                0x0092a6f4                PROVIDE (_rx_attach, 0x92a6f4)
                0x0092a974                PROVIDE (_rx_ring_reque_buffers, 0x92a974)
                0x0092906c                PROVIDE (_rx_ring_msdu_pop, 0x92906c)
                0x0092a928                PROVIDE (_rx_ring_intf_mac_init_wlanbuf_fn, 0x92a928)
                0x00932718                PROVIDE (_wal_beacon_vdev_set_beacon_config, 0x932718)
                0x00931dfc                PROVIDE (_wal_vdev_get_nexttbtt, 0x931dfc)
                0x0092d98c                PROVIDE (_tx_hcm_bin_alloc, 0x92d98c)
                0x0092d930                PROVIDE (_tx_hcm_attach, 0x92d930)
                0x00412760                PROVIDE (g_bb_wdog_known_signatures, 0x412760)
                0x00412cc4                PROVIDE (g_dbg_sch_max_ppdu_per_ac_vo_vi, 0x412cc4)
                0x0093077c                PROVIDE (_tx_frame_txq_timeout, 0x93077c)
                0x00412d6c                PROVIDE (walIntrSchedulerApiIndirectionTable, 0x412d6c)
                0x009517d4                PROVIDE (__umoddi3, 0x9517d4)
                0x00952ba8                PROVIDE (__muldi3, 0x952ba8)
                0x0092ac50                PROVIDE (_rx_setup_ring_for_offload, 0x92ac50)
                0x0092ad94                PROVIDE (_rx_restore_ring_from_offload, 0x92ad94)
                0x00929670                PROVIDE (_rx_data_reorder_flush, 0x929670)
                0x0040f004                PROVIDE (rx_ring_comp_order_local_pkt, 0x40f004)
                0x0092d98c                PROVIDE (_tx_hcm_bin_alloc, 0x92d98c)
                0x0092d930                PROVIDE (_tx_hcm_attach, 0x92d930)
                0x004117e4                PROVIDE (assloop, 0x4117e4)
                0x0091e6c0                PROVIDE (dump_rtc_registers, 0x91e6c0)
                0x009115b4                PROVIDE (_athos_interrupt_pcie_host, 0x9115b4)
                0x0091073c                PROVIDE (_athos_interrupt_mbox_host, 0x91073c)
                0x00400a00                PROVIDE (boot_info, 0x400a00)
                0x004117e4                PROVIDE (assloop, 0x4117e4)
                0x00405800                PROVIDE (g_drop_all_phy_errs, 0x405800)
                0x00412980                PROVIDE (rx_default_params, 0x412980)
                0x00412d6c                PROVIDE (walIntrSchedulerApiIndirectionTable, 0x412d6c)
                0x00938368                PROVIDE (ar6000PaprdAttach, 0x938368)
                0x00405900                PROVIDE (pPaprdStruct, 0x405900)
                0x004064e0                PROVIDE (txStatus_local, 0x4064e0)
                0x009357b4                PROVIDE (my_div, 0x9357b4)
                0x009357e8                PROVIDE (my_pow, 0x9357e8)
                0x00935c04                PROVIDE (calc_G_fxp, 0x935c04)
                0x009376a0                PROVIDE (ar6000TableIndexrangeGet, 0x9376a0)
                0x00413021                PROVIDE (sqLimit, 0x413021)
                0x00413020                PROVIDE (sqBestLimit, 0x413020)
                0x00935700                PROVIDE (change_start_coarse_fine_idx, 0x935700)
                0x00406300                PROVIDE (forceclockBW2g, 0x406300)
                0x00406301                PROVIDE (forceclockBW5g, 0x406301)
                0x004062fc                PROVIDE (LNASETTING, 0x4062fc)
                0x00935f84                PROVIDE (ar6000PaprdCleanRetrainTimes, 0x935f84)
                0x00405904                PROVIDE (paprdStruct, 0x405904)
                0x00412a24                PROVIDE (wal_tdls_internal_api_tbl, 0x412a24)
                0x004087a0                PROVIDE (gRflpPriv, 0x4087a0)
                0x0092310c                PROVIDE (_ar_connection_pause_state_block_entry, 0x92310c)
                0x0040f004                PROVIDE (rx_ring_comp_order_local_pkt, 0x40f004)
                0x0093d84c                PROVIDE (ar6000ProcTxDesc, 0x93d84c)
                0x0093c990                PROVIDE (compute_ldpc_extra_sym, 0x93c990)
                0x009376fc                PROVIDE (ar6000PaprdFindUntrainedTable, 0x9376fc)
                0x004124a4                PROVIDE (_wal_pause_pvt_api_tbl, 0x4124a4)
                0x00917168                PROVIDE (dbglog_flushbuf_timer, 0x917168)
                0x00404370                PROVIDE (sleep_disable_refcnt, 0x404370)
                0x0091073c                PROVIDE (_athos_interrupt_mbox_host, 0x91073c)
                0x0040eb98                PROVIDE (__stack, 0x40eb98)
                0x0094734c                PROVIDE (__dma_remove_buf, 0x94734c)
                0x00400e30                PROVIDE (_Pri_2_Stack, 0x400e30)
                0x00401380                PROVIDE (_Pri_3_Stack, 0x401380)
                0x004018d0                PROVIDE (_Pri_4_Stack, 0x4018d0)
                0x00404050                PROVIDE (mcerr_error_valid, 0x404050)
                0x00404054                PROVIDE (mcerr_AHB_error, 0x404054)
                0x00404058                PROVIDE (mcerr_APB_error, 0x404058)
                0x00401e30                PROVIDE (debug_inum, 0x401e30)
                0x0091d624                PROVIDE (_HIF_SDIO_register_callback, 0x91d624)
                0x0092f7c8                PROVIDE (_wal_tx_send_calc_totaltries_mpdutime, 0x92f7c8)
                0x00413f50                PROVIDE (bfp_pvt_api_table, 0x413f50)
                0x0093d4a0                PROVIDE (ar6000SetTxQueueProps, 0x93d4a0)
                0x0093df64                PROVIDE (ar6000XmitReset, 0x93df64)
                0x0093c970                PROVIDE (ar6000InitXmitStruct, 0x93c970)
                0x004127e0                PROVIDE (rc_default_params, 0x4127e0)
                0x004128bf                PROVIDE (g_rc_bar_tries, 0x4128bf)
                0x00926fd4                PROVIDE (_wal_dev_baseband_timeout_handler, 0x926fd4)
                0x00927460                PROVIDE (_wal_pdev_get_cycle_counters, 0x927460)
                0x009267a4                PROVIDE (_wal_dev_attach, 0x9267a4)
                0x00915f88                PROVIDE (cmnos_retention_init, 0x915f88)
                0x0092d448                PROVIDE (_tx_de_eapol_proc, 0x92d448)
                0x0092d724                PROVIDE (_wal_tx_de_setup_dscp_mapping, 0x92d724)
                0x00923770                PROVIDE (_local_data_frame_send_with_rate, 0x923770)
                0x0092b648                PROVIDE (_rx_offload_attach, 0x92b648)
                0x0093183c                PROVIDE (_wal_vdev_up, 0x93183c)
                0x00930e9c                PROVIDE (_wal_vdev_detach, 0x930e9c)
                0x00930da0                PROVIDE (_wal_vdev_attach, 0x930da0)
                0x0093198c                PROVIDE (_wal_vdev_down, 0x93198c)
                0x009311d0                PROVIDE (_wal_vdev_reconfig, 0x9311d0)
                0x00931558                PROVIDE (_wal_vdev_start, 0x931558)
                0x00930400                PROVIDE (_tx_send_check_tx_ppdu_fail_threshold, 0x930400)
                0x0092f988                PROVIDE (_tx_send_proc_mpdu_swdone, 0x92f988)
                0x0092fa88                PROVIDE (_tx_send_remove_swdone_mpdus, 0x92fa88)
                0x0092e408                PROVIDE (_tx_send_config_ba_state, 0x92e408)
                0x00924f1c                PROVIDE (_wal_peer_get_param, 0x924f1c)
                0x00924a68                PROVIDE (_wal_peer_set_param, 0x924a68)
                0x00925abc                PROVIDE (_ar_wal_peer_free_tid, 0x925abc)
                0x00925b88                PROVIDE (_ar_wal_peer_tidq_empty, 0x925b88)
                0x0092582c                PROVIDE (_ar_wal_peer_attach, 0x92582c)
                0x009430e8                PROVIDE (ar6000TxbfeeSetCBIndex, 0x9430e8)
                0x00943160                PROVIDE (ar6000TxbfeeSetNGIndex, 0x943160)
                0x009431e8                PROVIDE (ar6000TxbfeeInit, 0x9431e8)
                0x0093ceb8                PROVIDE (ar6000StopTxDma, 0x93ceb8)
                0x00914770                PROVIDE (cmnos_intr_dsrs_pending, 0x914770)
                0x0093b0d0                PROVIDE (ar6000RetentionRadioLongshiftRestore, 0x93b0d0)
                0x0091e838                PROVIDE (_CE_send_cb_register, 0x91e838)
                0x0091e85c                PROVIDE (_CE_recv_cb_register, 0x91e85c)
                0x0091e880                PROVIDE (_CE_watermark_cb_register, 0x91e880)
                0x00932d30                PROVIDE (_wal_concurrency_vdev_attach, 0x932d30)
                0x0092c084                PROVIDE (_wal_tdls_set_param, 0x92c084)
                0x0092c198                PROVIDE (_wal_tdls_get_param, 0x92c198)
                0x009384d8                PROVIDE (ar6000SetRxFilter, 0x9384d8)
                0x00912910                PROVIDE (cmnos_allocram_append_extra_block, 0x912910)
                0x00940048                PROVIDE (ar6000EnableInterrupts, 0x940048)
                0x00940378                PROVIDE (ar6000DisableInterrupts, 0x940378)
                0x00947d30                PROVIDE (_whal_coex_cal_start, 0x947d30)
                0x00947d50                PROVIDE (_whal_coex_cal_end, 0x947d50)
                0x00915040                PROVIDE (cmnos_assfail, 0x915040)
                0x009125a0                PROVIDE (cmnos_allocram_init, 0x9125a0)
                0x009140cc                PROVIDE (cmnos_memctlr_isr, 0x9140cc)
                0x00914068                PROVIDE (cmnos_invalid_isr, 0x914068)
                0x0040404c                PROVIDE (cmnos_memctlr_isr_count, 0x40404c)
                0x00412e54                PROVIDE (g_timer_internal_api_tbl, 0x412e54)
                0x00412a80                PROVIDE (ar_wal_txbf_internal_api_tbl, 0x412a80)
                0x00408714                PROVIDE (interruptStruct, 0x408714)
                0x0092c57c                PROVIDE (_wal_txbfee_init, 0x92c57c)
                0x0093fddc                PROVIDE (ar6000GetPendingInterrupts, 0x93fddc)
                0x00413240                PROVIDE (is_mac_first_save, 0x413240)
                0x00929464                PROVIDE (_rx_pkt_info_do_cb, 0x929464)
                0x009380f4                PROVIDE (ar6000PaprdSmTimer, 0x9380f4)
                0x00406310                PROVIDE (txDesc_local, 0x406310)
                0x004065e0                PROVIDE (mpdu_local, 0x4065e0)
                0x00406610                PROVIDE (pkt_buffer_seg1_local, 0x406610)
                0x00406c00                PROVIDE (paprd_fdp_buffer, 0x406c00)
                0x00931a30                PROVIDE (_wal_vdev_set_param, 0x931a30)
                0x00405640                PROVIDE (g_dbg_num_bb_timeout, 0x405640)
                0x00405644                PROVIDE (g_dbg_spin_watchdog_sig, 0x405644)
                0x00405648                PROVIDE (g_dbg_no_bb_reset, 0x405648)
OUTPUT(.output/AR6320/hw.3/image/athwlan.out elf32-xtensa-le)

.debug_ranges   0x00000000       0x20
 .debug_ranges  0x00000000       0x20 /cad/tensilica/chips/peregrine/RE-2013.3-linux/peregrine/xtensa-elf/lib/xcc//libgcc.a(lib2funcs.o)
