Archive member included because of file (symbol)

mac_core/apps/utf/commonUTF/.output/AR6320/hw.3/lib/libcommonutf.a(main.o)
                              (app_start)
mac_core/apps/utf/commonUTF/.output/AR6320/hw.3/lib/libcommonutf.a(utf.o)
                              mac_core/apps/utf/commonUTF/.output/AR6320/hw.3/lib/libcommonutf.a(main.o) (utf_main)
mac_core/apps/utf/commonUTF/.output/AR6320/hw.3/lib/libcommonutf.a(cmdEvtProcEngine.o)
                              mac_core/apps/utf/commonUTF/.output/AR6320/hw.3/lib/libcommonutf.a(utf.o) (cmdProcessingEntry)
mac_core/apps/utf/commonUTF/.output/AR6320/hw.3/lib/libcommonutf.a(cmdProcessing.o)
                              mac_core/apps/utf/commonUTF/.output/AR6320/hw.3/lib/libcommonutf.a(cmdEvtProcEngine.o) (CmdHandlers)
mac_core/apps/utf/commonUTF/.output/AR6320/hw.3/lib/libcommonutf.a(cmdProcessingSM.o)
                              mac_core/apps/utf/commonUTF/.output/AR6320/hw.3/lib/libcommonutf.a(cmdEvtProcEngine.o) (Op2StateEvt)
mac_core/apps/utf/commonUTF/.output/AR6320/hw.3/lib/libcommonutf.a(genTxBinCmdTlv.o)
                              mac_core/apps/utf/commonUTF/.output/AR6320/hw.3/lib/libcommonutf.a(cmdProcessing.o) (createCommand)
mac_core/apps/utf/commonUTF/.output/AR6320/hw.3/lib/libcommonutf.a(parseBinCmdStream.o)
                              mac_core/apps/utf/commonUTF/.output/AR6320/hw.3/lib/libcommonutf.a(cmdEvtProcEngine.o) (CmdStreamInfo)
mac_core/apps/utf/commonUTF/.output/AR6320/hw.3/lib/libcommonutf.a(testUtil.o)
                              mac_core/apps/utf/commonUTF/.output/AR6320/hw.3/lib/libcommonutf.a(parseBinCmdStream.o) (verifyChecksum)
mac_core/apps/utf/commonUTF/.output/AR6320/hw.3/lib/libcommonutf.a(whalExtensionGeneric.o)
                              mac_core/apps/utf/commonUTF/.output/AR6320/hw.3/lib/libcommonutf.a(cmdProcessing.o) (_PostWhalResetSettings)
mac_core/apps/utf/commonUTF/.output/AR6320/hw.3/lib/libcommonutf.a(_cmd_calParmBinTemplate.o)
                              mac_core/apps/utf/commonUTF/.output/AR6320/hw.3/lib/libcommonutf.a(cmdProcessing.o) (_calParm_bin_template)
mac_core/apps/utf/commonUTF/.output/AR6320/hw.3/lib/libcommonutf.a(_cmd_nartCmdParmBinTemplate.o)
                              mac_core/apps/utf/commonUTF/.output/AR6320/hw.3/lib/libcommonutf.a(cmdProcessing.o) (_nartCmdParm_bin_template)
mac_core/apps/utf/commonUTF/.output/AR6320/hw.3/lib/libcommonutf.a(_cmd_pmParmBinTemplate.o)
                              mac_core/apps/utf/commonUTF/.output/AR6320/hw.3/lib/libcommonutf.a(cmdProcessing.o) (_pmParm_bin_template)
mac_core/apps/utf/commonUTF/.output/AR6320/hw.3/lib/libcommonutf.a(_cmd_rxParmBinTemplate.o)
                              mac_core/apps/utf/commonUTF/.output/AR6320/hw.3/lib/libcommonutf.a(cmdProcessing.o) (_rxParm_bin_template)
mac_core/apps/utf/commonUTF/.output/AR6320/hw.3/lib/libcommonutf.a(_cmd_txParmBinTemplate.o)
                              mac_core/apps/utf/commonUTF/.output/AR6320/hw.3/lib/libcommonutf.a(cmdProcessing.o) (_txParm_bin_template)
mac_core/apps/utf/commonUTF/.output/AR6320/hw.3/lib/libcommonutf.a(cmdParmsTemplate.o)
                              mac_core/apps/utf/commonUTF/.output/AR6320/hw.3/lib/libcommonutf.a(genTxBinCmdTlv.o) (TestFlowCmd2ParmTemplate)
mac_core/apps/utf/commonUTF/.output/AR6320/hw.3/lib/libcommonutf.a(_cmd_nartRspParmTxtTemplate.o)
                              mac_core/apps/utf/commonUTF/.output/AR6320/hw.3/lib/libcommonutf.a(cmdParmsTemplate.o) (_nartRspParm_txt_template)
mac_core/apps/utf/commonUTF/.output/AR6320/hw.3/lib/libcommonutf.a(_cmd_rspGenericParmTxtTemplate.o)
                              mac_core/apps/utf/commonUTF/.output/AR6320/hw.3/lib/libcommonutf.a(cmdParmsTemplate.o) (_rspGenericParm_txt_template)
mac_core/apps/utf/commonUTF/.output/AR6320/hw.3/lib/libcommonutf.a(_cmd_rxStatusParmTxtTemplate.o)
                              mac_core/apps/utf/commonUTF/.output/AR6320/hw.3/lib/libcommonutf.a(cmdParmsTemplate.o) (_rxStatusParm_txt_template)
mac_core/apps/utf/commonUTF/.output/AR6320/hw.3/lib/libcommonutf.a(_cmd_submitreportParmTxtTemplate.o)
                              mac_core/apps/utf/commonUTF/.output/AR6320/hw.3/lib/libcommonutf.a(cmdParmsTemplate.o) (_submitreportParm_txt_template)
mac_core/apps/utf/commonUTF/.output/AR6320/hw.3/lib/libcommonutf.a(_cmd_txStatusParmTxtTemplate.o)
                              mac_core/apps/utf/commonUTF/.output/AR6320/hw.3/lib/libcommonutf.a(cmdParmsTemplate.o) (_txStatusParm_txt_template)
mac_core/apps/utf/AR6320/.output/AR6320/hw.3/lib/libar6320.a(ar6320Register.o)
                              mac_core/apps/utf/commonUTF/.output/AR6320/hw.3/lib/libcommonutf.a(utf.o) (registerOneChip)
mac_core/apps/utf/AR6320/.output/AR6320/hw.3/lib/libar6320.a(whal_tcmd.o)
                              mac_core/apps/utf/commonUTF/.output/AR6320/hw.3/lib/libcommonutf.a(cmdProcessing.o) (ar6000PostResetRegOverwrite)
mac_core/apps/utf/tcmd_utf/.output/AR6320/hw.3/lib/libtcmdutf.a(tcmd.o)
                              mac_core/apps/utf/commonUTF/.output/AR6320/hw.3/lib/libcommonutf.a(cmdProcessing.o) (utf_dev)
mac_core/apps/utf/tcmd_utf/.output/AR6320/hw.3/lib/libtcmdutf.a(tcmd_rx.o)
                              mac_core/apps/utf/tcmd_utf/.output/AR6320/hw.3/lib/libtcmdutf.a(tcmd.o) (g_waltest_rx_ctxt)
mac_core/apps/utf/tcmd_utf/.output/AR6320/hw.3/lib/libtcmdutf.a(tcmd_tx.o)
                              mac_core/apps/utf/tcmd_utf/.output/AR6320/hw.3/lib/libtcmdutf.a(tcmd.o) (g_encap_cfg)
mac_core/apps/utf/tcmd_utf/.output/AR6320/hw.3/lib/libtcmdutf.a(utfCallback.o)
                              mac_core/apps/utf/tcmd_utf/.output/AR6320/hw.3/lib/libtcmdutf.a(tcmd.o) (RxCallbackFuncs)
mac_core/apps/utf/tcmd_utf/.output/AR6320/hw.3/lib/libtcmdutf.a(if_split.o)
                              mac_core/apps/utf/tcmd_utf/.output/AR6320/hw.3/lib/libtcmdutf.a(tcmd.o) (tcmd_attach)
mac_core/apps/utf/tcmd_utf/.output/AR6320/hw.3/lib/libtcmdutf.a(pn.o)
                              mac_core/apps/utf/tcmd_utf/.output/AR6320/hw.3/lib/libtcmdutf.a(tcmd_tx.o) (init_pn)
mac_core/apps/utf/testScriptIF/.output/AR6320/hw.3/lib/libtestscriptif.a(testscriptIFRegister.o)
                              mac_core/apps/utf/commonUTF/.output/AR6320/hw.3/lib/libcommonutf.a(utf.o) (registerOneHostIF)
mac_core/apps/utf/testScriptIF/.output/AR6320/hw.3/lib/libtestscriptif.a(testscriptIF.o)
                              mac_core/apps/utf/testScriptIF/.output/AR6320/hw.3/lib/libtestscriptif.a(testscriptIFRegister.o) (testscriptIFAttach)
mac_core/apps/utf/wmiHostIF/.output/AR6320/hw.3/lib/libwmihostif.a(legHostIF.o)
                              mac_core/apps/utf/tcmd_utf/.output/AR6320/hw.3/lib/libtcmdutf.a(tcmd.o) (tcmdLinkTRx)
mac_core/apps/utf/wmiHostIF/.output/AR6320/hw.3/lib/libwmihostif.a(wmi_tcmd.o)
                              mac_core/apps/utf/wmiHostIF/.output/AR6320/hw.3/lib/libwmihostif.a(legHostIF.o) (swapEnable)
mac_core/apps/utf/wmiHostIF/.output/AR6320/hw.3/lib/libwmihostif.a(htt_tgt_hif_svc.o)
                              mac_core/apps/utf/wmiHostIF/.output/AR6320/hw.3/lib/libwmihostif.a(wmi_tcmd.o) (htt_tgt_hif_svc_api_indir_tbl)
mac_core/src/wal/whal/reset/.output/AR6320/hw.3/lib/ar6000_cal.a(ar6320_cal.o)
                              mac_core/apps/utf/tcmd_utf/.output/AR6320/hw.3/lib/libtcmdutf.a(tcmd.o) (ar6000InitCalStruct)
mac_core/src/wal/whal/reset/.output/AR6320/hw.3/lib/ar6000_cal.a(ar6320_rxdc_cal.o)
                              mac_core/src/wal/whal/reset/.output/AR6320/hw.3/lib/ar6000_cal.a(ar6320_cal.o) (ar6000InitRxDcCalStruct)
mac_core/src/wal/whal/reset/.output/AR6320/hw.3/lib/ar6000_cal.a(ar6320_iq_cal.o)
                              mac_core/src/wal/whal/reset/.output/AR6320/hw.3/lib/ar6000_cal.a(ar6320_cal.o) (pWhalIQCalIndirectionTable)
mac_core/src/wal/whal/reset/.output/AR6320/hw.3/lib/ar6000_cal.a(ar6320_pef_cal.o)
                              mac_core/src/wal/whal/reset/.output/AR6320/hw.3/lib/ar6000_cal.a(ar6320_cal.o) (pWhalPefCalIndirectionTable)
mac_core/patch/AR6320/v3/.output/AR6320/hw.3/lib/lib_maccore_patches.a(install_patches.o)
                              mac_core/apps/utf/tcmd_utf/.output/AR6320/hw.3/lib/libtcmdutf.a(if_split.o) (install_patches)
mac_core/patch/AR6320/v3/.output/AR6320/hw.3/lib/lib_maccore_patches.a(whal_install_patches.o)
                              mac_core/patch/AR6320/v3/.output/AR6320/hw.3/lib/lib_maccore_patches.a(install_patches.o) (whal_install_patches)
mac_core/patch/AR6320/v3/.output/AR6320/hw.3/lib/lib_maccore_patches.a(wal_install_patches.o)
                              mac_core/patch/AR6320/v3/.output/AR6320/hw.3/lib/lib_maccore_patches.a(install_patches.o) (wal_install_patches)
mac_core/patch/AR6320/v3/.output/AR6320/hw.3/lib/lib_maccore_patches.a(ar_wal_connection_pause_patch.o)
                              mac_core/patch/AR6320/v3/.output/AR6320/hw.3/lib/lib_maccore_patches.a(wal_install_patches.o) (ar_wal_connection_pause_patch_install)
mac_core/patch/AR6320/v3/.output/AR6320/hw.3/lib/lib_maccore_patches.a(ar_wal_phy_dev_patch.o)
                              mac_core/patch/AR6320/v3/.output/AR6320/hw.3/lib/lib_maccore_patches.a(whal_install_patches.o) (ar_wal_phy_dev_install_patch)
mac_core/patch/AR6320/v3/.output/AR6320/hw.3/lib/lib_maccore_patches.a(cmnos_retention_patch.o)
                              mac_core/patch/AR6320/v3/.output/AR6320/hw.3/lib/lib_maccore_patches.a(install_patches.o) (patch_cmnos_retention_module_install)
mac_core/patch/AR6320/v3/.output/AR6320/hw.3/lib/lib_maccore_patches.a(ar_wal_tx_de_patch.o)
                              mac_core/patch/AR6320/v3/.output/AR6320/hw.3/lib/lib_maccore_patches.a(wal_install_patches.o) (ar_wal_tx_de_patch_install)
mac_core/patch/AR6320/v3/.output/AR6320/hw.3/lib/lib_maccore_patches.a(ar_wal_local_frames_wifi_ip01_patch.o)
                              mac_core/patch/AR6320/v3/.output/AR6320/hw.3/lib/lib_maccore_patches.a(wal_install_patches.o) (ar_wal_local_frames_wifi_ip01_install_patch)
mac_core/patch/AR6320/v3/.output/AR6320/hw.3/lib/lib_maccore_patches.a(pool_mgr_patch.o)
                              mac_core/patch/AR6320/v3/.output/AR6320/hw.3/lib/lib_maccore_patches.a(ar_wal_phy_dev_patch.o) (_pool_init_ex)
mac_core/patch/AR6320/v3/.output/AR6320/hw.3/lib/lib_maccore_patches.a(ar_wal_rx_patch.o)
                              mac_core/apps/utf/tcmd_utf/.output/AR6320/hw.3/lib/libtcmdutf.a(tcmd_rx.o) (rx_fullreorder_buffer_mgmt_stats)
mac_core/patch/AR6320/v3/.output/AR6320/hw.3/lib/lib_maccore_patches.a(ar_wal_rx_offload_patch.o)
                              mac_core/patch/AR6320/v3/.output/AR6320/hw.3/lib/lib_maccore_patches.a(wal_install_patches.o) (ar_wal_rx_offload_patch_install)
mac_core/patch/AR6320/v3/.output/AR6320/hw.3/lib/lib_maccore_patches.a(ar_wal_rx_common_patch.o)
                              mac_core/patch/AR6320/v3/.output/AR6320/hw.3/lib/lib_maccore_patches.a(wal_install_patches.o) (ar_wal_rx_common_patch_install)
mac_core/patch/AR6320/v3/.output/AR6320/hw.3/lib/lib_maccore_patches.a(ar_wal_vdev_patch.o)
                              mac_core/patch/AR6320/v3/.output/AR6320/hw.3/lib/lib_maccore_patches.a(install_patches.o) (ar_wal_vdev_install_patch)
mac_core/patch/AR6320/v3/.output/AR6320/hw.3/lib/lib_maccore_patches.a(ar_tx_q_enque_patch.o)
                              mac_core/patch/AR6320/v3/.output/AR6320/hw.3/lib/lib_maccore_patches.a(wal_install_patches.o) (ar_tx_q_enque_install_patch)
mac_core/patch/AR6320/v3/.output/AR6320/hw.3/lib/lib_maccore_patches.a(tx_sched_patch.o)
                              mac_core/apps/utf/tcmd_utf/.output/AR6320/hw.3/lib/libtcmdutf.a(if_split.o) (g_dbg_delay_ack)
mac_core/patch/AR6320/v3/.output/AR6320/hw.3/lib/lib_maccore_patches.a(ar_wal_tx_send_patch.o)
                              mac_core/patch/AR6320/v3/.output/AR6320/hw.3/lib/lib_maccore_patches.a(tx_sched_patch.o) (time_ppdu_cnt)
mac_core/patch/AR6320/v3/.output/AR6320/hw.3/lib/lib_maccore_patches.a(ar_wal_chain_mgmt_patch.o)
                              mac_core/patch/AR6320/v3/.output/AR6320/hw.3/lib/lib_maccore_patches.a(wal_install_patches.o) (patch_wal_chain_mgmt_api_module_install)
mac_core/patch/AR6320/v3/.output/AR6320/hw.3/lib/lib_maccore_patches.a(ar_wal_peer_patch.o)
                              mac_core/patch/AR6320/v3/.output/AR6320/hw.3/lib/lib_maccore_patches.a(ar_wal_tx_de_patch.o) (g_wal_peer_key)
mac_core/patch/AR6320/v3/.output/AR6320/hw.3/lib/lib_maccore_patches.a(ar600P_txbf_patch.o)
                              mac_core/patch/AR6320/v3/.output/AR6320/hw.3/lib/lib_maccore_patches.a(ar_wal_tx_send_patch.o) (ar6000_paprd_tx_queue_done)
mac_core/patch/AR6320/v3/.output/AR6320/hw.3/lib/lib_maccore_patches.a(wal_pps_patch.o)
                              mac_core/patch/AR6320/v3/.output/AR6320/hw.3/lib/lib_maccore_patches.a(wal_install_patches.o) (wal_pps_patch_install)
mac_core/patch/AR6320/v3/.output/AR6320/hw.3/lib/lib_maccore_patches.a(ar_xmit_wifi_ip01_patch.o)
                              mac_core/patch/AR6320/v3/.output/AR6320/hw.3/lib/lib_maccore_patches.a(ar600P_txbf_patch.o) (ar6000_xmit_txbfee_war_en)
mac_core/patch/AR6320/v3/.output/AR6320/hw.3/lib/lib_maccore_patches.a(ar_wal_channel_change_patch.o)
                              mac_core/patch/AR6320/v3/.output/AR6320/hw.3/lib/lib_maccore_patches.a(wal_install_patches.o) (patch_wal_channel_change_api_module_install)
mac_core/patch/AR6320/v3/.output/AR6320/hw.3/lib/lib_maccore_patches.a(ar_wal_rc_patch.o)
                              mac_core/patch/AR6320/v3/.output/AR6320/hw.3/lib/lib_maccore_patches.a(ar_wal_tx_send_patch.o) (patch_wal_rc_dbg_ext_tx_rate_info)
mac_core/patch/AR6320/v3/.output/AR6320/hw.3/lib/lib_maccore_patches.a(wal_rtt_patch.o)
                              mac_core/patch/AR6320/v3/.output/AR6320/hw.3/lib/lib_maccore_patches.a(wal_install_patches.o) (wal_rtt_patch_install)
mac_core/patch/AR6320/v3/.output/AR6320/hw.3/lib/lib_maccore_patches.a(whal_rtt_patch.o)
                              mac_core/patch/AR6320/v3/.output/AR6320/hw.3/lib/lib_maccore_patches.a(whal_install_patches.o) (whal_rtt_patch_install)
mac_core/patch/AR6320/v3/.output/AR6320/hw.3/lib/lib_maccore_patches.a(dbglog_patch.o)
                              mac_core/patch/AR6320/v3/.output/AR6320/hw.3/lib/lib_maccore_patches.a(ar_wal_phy_dev_patch.o) (_wlan_diag_report_log_event)
mac_core/patch/AR6320/v3/.output/AR6320/hw.3/lib/lib_maccore_patches.a(ar600p_beacon_patch.o)
                              mac_core/patch/AR6320/v3/.output/AR6320/hw.3/lib/lib_maccore_patches.a(ar_wal_vdev_patch.o) (patch_ar6000SetTsf)
mac_core/patch/AR6320/v3/.output/AR6320/hw.3/lib/lib_maccore_patches.a(ar6000_power_patch.o)
                              mac_core/patch/AR6320/v3/.output/AR6320/hw.3/lib/lib_maccore_patches.a(ar_wal_phy_dev_patch.o) (g_dsrMacAwakeEnable)
mac_core/patch/AR6320/v3/.output/AR6320/hw.3/lib/lib_maccore_patches.a(ar6000_interrupt_patch.o)
                              mac_core/patch/AR6320/v3/.output/AR6320/hw.3/lib/lib_maccore_patches.a(whal_install_patches.o) (ar6000_interrupt_patch_install)
mac_core/patch/AR6320/v3/.output/AR6320/hw.3/lib/lib_maccore_patches.a(cmnos_intrinf_patch.o)
                              mac_core/patch/AR6320/v3/.output/AR6320/hw.3/lib/lib_maccore_patches.a(cmnos_retention_patch.o) (stackinit_isr_flag)
mac_core/patch/AR6320/v3/.output/AR6320/hw.3/lib/lib_maccore_patches.a(patch_pcie.o)
                              mac_core/patch/AR6320/v3/.output/AR6320/hw.3/lib/lib_maccore_patches.a(install_patches.o) (patch_pcie)
mac_core/patch/AR6320/v3/.output/AR6320/hw.3/lib/lib_maccore_patches.a(patch_usb.o)
                              mac_core/patch/AR6320/v3/.output/AR6320/hw.3/lib/lib_maccore_patches.a(install_patches.o) (patch_usb)
mac_core/patch/AR6320/v3/.output/AR6320/hw.3/lib/lib_maccore_patches.a(wal_beacon_patch.o)
                              mac_core/patch/AR6320/v3/.output/AR6320/hw.3/lib/lib_maccore_patches.a(wal_install_patches.o) (wal_beacon_patch_install)
mac_core/patch/AR6320/v3/.output/AR6320/hw.3/lib/lib_maccore_patches.a(wal_swba_patch.o)
                              mac_core/patch/AR6320/v3/.output/AR6320/hw.3/lib/lib_maccore_patches.a(wal_install_patches.o) (wal_swba_install_patch)
mac_core/patch/AR6320/v3/.output/AR6320/hw.3/lib/lib_maccore_patches.a(ar600P_retention_patch.o)
                              mac_core/apps/utf/commonUTF/.output/AR6320/hw.3/lib/libcommonutf.a(whalExtensionGeneric.o) (shadow_register)
mac_core/patch/AR6320/v3/.output/AR6320/hw.3/lib/lib_maccore_patches.a(ar_wal_rmc_patch.o)
                              mac_core/patch/AR6320/v3/.output/AR6320/hw.3/lib/lib_maccore_patches.a(wal_install_patches.o) (ar_wal_rmc_patch_install)
mac_core/patch/AR6320/v3/.output/AR6320/hw.3/lib/lib_maccore_patches.a(whal_rgc_patch.o)
                              mac_core/patch/AR6320/v3/.output/AR6320/hw.3/lib/lib_maccore_patches.a(whal_install_patches.o) (whal_rgc_patch_install)
mac_core/patch/AR6320/v3/.output/AR6320/hw.3/lib/lib_maccore_patches.a(patch_hif_ce.o)
                              mac_core/patch/AR6320/v3/.output/AR6320/hw.3/lib/lib_maccore_patches.a(install_patches.o) (patch_hif_ce)
mac_core/patch/AR6320/v3/.output/AR6320/hw.3/lib/lib_maccore_patches.a(patch_whal_coex.o)
                              mac_core/src/wal/whal/reset/.output/AR6320/hw.3/lib/ar6000_cal.a(ar6320_cal.o) (patch_whal_coex_halphy_event)
mac_core/patch/AR6320/v3/.output/AR6320/hw.3/lib/lib_maccore_patches.a(patch_whal_mws.o)
                              mac_core/patch/AR6320/v3/.output/AR6320/hw.3/lib/lib_maccore_patches.a(install_patches.o) (patch_whal_mws_coex)
mac_core/patch/AR6320/v3/.output/AR6320/hw.3/lib/lib_maccore_patches.a(patch_whal_mci.o)
                              mac_core/patch/AR6320/v3/.output/AR6320/hw.3/lib/lib_maccore_patches.a(install_patches.o) (patch_whal_mci)
mac_core/patch/AR6320/v3/.output/AR6320/hw.3/lib/lib_maccore_patches.a(ar_wal_tx_dm_patch.o)
                              mac_core/patch/AR6320/v3/.output/AR6320/hw.3/lib/lib_maccore_patches.a(ar_wal_tx_send_patch.o) (_tx_dm_bin_desc_free)
mac_core/patch/AR6320/v3/.output/AR6320/hw.3/lib/lib_maccore_patches.a(patch_copy_engine.o)
                              mac_core/patch/AR6320/v3/.output/AR6320/hw.3/lib/lib_maccore_patches.a(patch_hif_ce.o) (patch_CE_check_idle)
mac_core/patch/AR6320/v3/.output/AR6320/hw.3/lib/lib_maccore_patches.a(wal_concurrency_patch.o)
                              mac_core/patch/AR6320/v3/.output/AR6320/hw.3/lib/lib_maccore_patches.a(wal_install_patches.o) (wal_concurrency_install_patch)
mac_core/patch/AR6320/v3/.output/AR6320/hw.3/lib/lib_maccore_patches.a(ar_wal_tdls_patch.o)
                              mac_core/patch/AR6320/v3/.output/AR6320/hw.3/lib/lib_maccore_patches.a(ar_wal_rx_offload_patch.o) (_ar_wal_tdls_process_rx_frame)
mac_core/patch/AR6320/v3/.output/AR6320/hw.3/lib/lib_maccore_patches.a(cmnos_timer_patch.o)
                              mac_core/patch/AR6320/v3/.output/AR6320/hw.3/lib/lib_maccore_patches.a(cmnos_intrinf_patch.o) (patch_timer_hang_check_handle)
mac_core/patch/AR6320/v3/.output/AR6320/hw.3/lib/lib_maccore_patches.a(ar_wal_tx_hcm_patch.o)
                              mac_core/patch/AR6320/v3/.output/AR6320/hw.3/lib/lib_maccore_patches.a(wal_install_patches.o) (ar_wal_tx_hcm_patch_install)
mac_core/patch/AR6320/v3/.output/AR6320/hw.3/lib/lib_maccore_patches.a(ar_wal_tdls_conn_table_patch.o)
                              mac_core/patch/AR6320/v3/.output/AR6320/hw.3/lib/lib_maccore_patches.a(wal_install_patches.o) (ar_wal_tdls_conn_table_patch_install)
mac_core/patch/AR6320/v3/.output/AR6320/hw.3/lib/lib_maccore_patches.a(ar600P_recv_patch.o)
                              mac_core/patch/AR6320/v3/.output/AR6320/hw.3/lib/lib_maccore_patches.a(ar_wal_rx_patch.o) (patch_ar6000GetRxRingFwIndx)
mac_core/patch/AR6320/v3/.output/AR6320/hw.3/lib/lib_maccore_patches.a(os_install_wlan_extra_memory_patches.o)
                              mac_core/patch/AR6320/v3/.output/AR6320/hw.3/lib/lib_maccore_patches.a(install_patches.o) (os_install_wlan_extra_memory_patches)
mac_core/patch/AR6320/v3/.output/AR6320/hw.3/lib/lib_maccore_patches.a(patch_athos_main.o)
                              mac_core/patch/AR6320/v3/.output/AR6320/hw.3/lib/lib_maccore_patches.a(install_patches.o) (athos_main_patch_install)
mac_core/patch/AR6320/v3/.output/AR6320/hw.3/lib/lib_maccore_patches.a(cmnos_misc_patch.o)
                              mac_core/patch/AR6320/v3/.output/AR6320/hw.3/lib/lib_maccore_patches.a(ar_wal_rx_patch.o) (cmnos_assfail_register)
mac_core/patch/AR6320/v3/.output/AR6320/hw.3/lib/lib_maccore_patches.a(sha1_patch.o)
                              mac_core/patch/AR6320/v3/.output/AR6320/hw.3/lib/lib_maccore_patches.a(install_patches.o) (sha1_install_patch)
mac_core/patch/AR6320/v3/.output/AR6320/hw.3/lib/lib_maccore_patches.a(patch_hif_sdio.o)
                              mac_core/patch/AR6320/v3/.output/AR6320/hw.3/lib/lib_maccore_patches.a(install_patches.o) (patch_hif_sdio)
mac_core/patch/AR6320/v3/.output/AR6320/hw.3/lib/lib_maccore_patches.a(ar_wal_txbf_patch.o)
                              mac_core/patch/AR6320/v3/.output/AR6320/hw.3/lib/lib_maccore_patches.a(patch_copy_engine.o) (wal_txbfee_check_continuous_cbf_read)
mac_core/patch/AR6320/v3/.output/AR6320/hw.3/lib/lib_maccore_patches.a(wmi_dbgloghook_patch.o)
                              mac_core/patch/AR6320/v3/.output/AR6320/hw.3/lib/lib_maccore_patches.a(dbglog_patch.o) (patch_dbglog_WMI_register)
mac_core/patch/AR6320/v3/.output/AR6320/hw.3/lib/lib_maccore_patches.a(cmnos_allocram_patch.o)
                              mac_core/apps/utf/commonUTF/.output/AR6320/hw.3/lib/libcommonutf.a(cmdProcessing.o) (cmnos_allocram_ex)
mac_core/src/wal/whal/rtt/.output/AR6320/hw.3/lib/whal_rtt.a(whal_rtt.o)
                              mac_core/patch/AR6320/v3/.output/AR6320/hw.3/lib/lib_maccore_patches.a(whal_rtt_patch.o) (whal_rtt_api_fn_tbl)
halphy/patch/AR6320/v3/.output/AR6320/hw.3/lib/lib_halphy_patches.a(halphy_install_patches.o)
                              mac_core/patch/AR6320/v3/.output/AR6320/hw.3/lib/lib_maccore_patches.a(whal_install_patches.o) (halphy_install_patches)
halphy/patch/AR6320/v3/.output/AR6320/hw.3/lib/lib_halphy_patches.a(ar6000_nf_cal_patch.o)
                              mac_core/patch/AR6320/v3/.output/AR6320/hw.3/lib/lib_maccore_patches.a(ar600P_retention_patch.o) (ar6000AGCFilterPowerRestore)
halphy/patch/AR6320/v3/.output/AR6320/hw.3/lib/lib_halphy_patches.a(ar6000_ani_patch.o)
                              halphy/patch/AR6320/v3/.output/AR6320/hw.3/lib/lib_halphy_patches.a(halphy_install_patches.o) (ar6000_ani_patch_install)
halphy/patch/AR6320/v3/.output/AR6320/hw.3/lib/lib_halphy_patches.a(ar6320_ini_patch.o)
                              halphy/patch/AR6320/v3/.output/AR6320/hw.3/lib/lib_halphy_patches.a(halphy_install_patches.o) (ar6320_ini_patch_install)
halphy/patch/AR6320/v3/.output/AR6320/hw.3/lib/lib_halphy_patches.a(ar6320_tpc_config_patch.o)
                              halphy/patch/AR6320/v3/.output/AR6320/hw.3/lib/lib_halphy_patches.a(halphy_install_patches.o) (ar6320_tpc_config_patch_install)
halphy/patch/AR6320/v3/.output/AR6320/hw.3/lib/lib_halphy_patches.a(ar6320_eeprom_patch.o)
                              halphy/patch/AR6320/v3/.output/AR6320/hw.3/lib/lib_halphy_patches.a(ar6320_ini_patch.o) (cur_ini_ver)
halphy/patch/AR6320/v3/.output/AR6320/hw.3/lib/lib_halphy_patches.a(ar600P_reset_patch.o)
                              mac_core/src/wal/whal/reset/.output/AR6320/hw.3/lib/ar6000_cal.a(ar6320_cal.o) (ResetSCPCMode)
halphy/patch/AR6320/v3/.output/AR6320/hw.3/lib/lib_halphy_patches.a(ar6000_paprd_patch.o)
                              mac_core/src/wal/whal/reset/.output/AR6320/hw.3/lib/ar6000_cal.a(ar6320_cal.o) (ar6000PaprdDoSCPCCal)
halphy/patch/AR6320/v3/.output/AR6320/hw.3/lib/lib_halphy_patches.a(ar6000_phy_patch.o)
                              halphy/patch/AR6320/v3/.output/AR6320/hw.3/lib/lib_halphy_patches.a(halphy_install_patches.o) (ar6000_phy_patch_install)
mac_core/src/wal/AR/rtt/.output/AR6320/hw.3/lib/ar_wal_rtt.a(wal_rtt.o)
                              mac_core/patch/AR6320/v3/.output/AR6320/hw.3/lib/lib_maccore_patches.a(ar_wal_vdev_patch.o) (wal_rtt_api_fn_tbl)
mac_core/src/wal/AR/nan/.output/AR6320/hw.3/lib/ar_wal_nan.a(wal_nan_mac.o)
                              mac_core/patch/AR6320/v3/.output/AR6320/hw.3/lib/lib_maccore_patches.a(tx_sched_patch.o) (_wal_nan_mac_fn)
/cad/tensilica/chips/peregrine/RE-2013.3-linux/peregrine/xtensa-elf/lib/xcc//libgcc.a(_divsi3.o)
                              mac_core/apps/utf/commonUTF/.output/AR6320/hw.3/lib/libcommonutf.a(cmdProcessing.o) (__divsi3)
/cad/tensilica/chips/peregrine/RE-2013.3-linux/peregrine/xtensa-elf/lib/xcc//libgcc.a(_modsi3.o)
                              mac_core/apps/utf/commonUTF/.output/AR6320/hw.3/lib/libcommonutf.a(cmdProcessing.o) (__modsi3)
/cad/tensilica/chips/peregrine/RE-2013.3-linux/peregrine/xtensa-elf/lib/xcc//libgcc.a(_udivsi3.o)
                              mac_core/apps/utf/tcmd_utf/.output/AR6320/hw.3/lib/libtcmdutf.a(tcmd_tx.o) (__udivsi3)
/cad/tensilica/chips/peregrine/RE-2013.3-linux/peregrine/xtensa-elf/lib/xcc//libgcc.a(_umodsi3.o)
                              mac_core/apps/utf/AR6320/.output/AR6320/hw.3/lib/libar6320.a(whal_tcmd.o) (__umodsi3)
/cad/tensilica/chips/peregrine/RE-2013.3-linux/peregrine/xtensa-elf/lib/xcc//libgcc.a(_ashrdi3.o)
                              mac_core/patch/AR6320/v3/.output/AR6320/hw.3/lib/lib_maccore_patches.a(ar_wal_tx_send_patch.o) (__ashrdi3)
/cad/tensilica/chips/peregrine/RE-2013.3-linux/peregrine/xtensa-elf/lib/xcc//libgcc.a(_lshrdi3.o)
                              mac_core/patch/AR6320/v3/.output/AR6320/hw.3/lib/lib_maccore_patches.a(ar_wal_tx_send_patch.o) (__lshrdi3)
/cad/tensilica/chips/peregrine/RE-2013.3-linux/peregrine/xtensa-elf/lib/xcc//libgcc.a(_muldi3.o)
                              mac_core/apps/utf/tcmd_utf/.output/AR6320/hw.3/lib/libtcmdutf.a(if_split.o) (__muldi3)
/cad/tensilica/chips/peregrine/RE-2013.3-linux/peregrine/xtensa-elf/lib/xcc//libgcc.a(_udivdi3.o)
                              mac_core/apps/utf/tcmd_utf/.output/AR6320/hw.3/lib/libtcmdutf.a(if_split.o) (__udivdi3)
/cad/tensilica/chips/peregrine/RE-2013.3-linux/peregrine/xtensa-elf/lib/xcc//libgcc.a(lib2funcs.o)
                              mac_core/patch/AR6320/v3/.output/AR6320/hw.3/lib/lib_maccore_patches.a(ar_wal_rx_patch.o) (__xtensa_libgcc_window_spill)
mac_core/src/wal/whal/init/.output/AR6320/hw.3/lib/libwhal_init.a(whal_init.o)
                              mac_core/apps/utf/tcmd_utf/.output/AR6320/hw.3/lib/libtcmdutf.a(if_split.o) (whal_attach_pre_init)
mac_core/apps/utf/AR6320/.output/AR6320/hw.3/lib/libar6320.a(whal_SCPC.o)
                              mac_core/apps/utf/tcmd_utf/.output/AR6320/hw.3/lib/libtcmdutf.a(if_split.o) (whal_install_patches_utf)
mac_core/apps/utf/AR6004/.output/AR6320/hw.3/lib/libar6004utf.a(dkkernel.o)
                              mac_core/apps/utf/tcmd_utf/.output/AR6320/hw.3/lib/libtcmdutf.a(tcmd_rx.o) (memTable)
mac_core/apps/utf/AR6004/.output/AR6320/hw.3/lib/libar6004utf.a(event.o)
                              mac_core/apps/utf/AR6004/.output/AR6320/hw.3/lib/libar6004utf.a(dkkernel.o) (deleteEventQueue)
mac_core/apps/utf/AR6004/.output/AR6320/hw.3/lib/libar6004utf.a(hw.o)
                              mac_core/apps/utf/wmiHostIF/.output/AR6320/hw.3/lib/libwmihostif.a(legHostIF.o) (globDrvInfo)
mac_core/apps/utf/AR6004/.output/AR6320/hw.3/lib/libar6004utf.a(main.o)
                              mac_core/apps/utf/AR6004/.output/AR6320/hw.3/lib/libar6004utf.a(dkkernel.o) (isrEventQ)
mac_core/src/misc/extend_alloc/.output/AR6320/hw.3/lib/libextendalloc.a(extend_allocate.o)
                              mac_core/patch/AR6320/v3/.output/AR6320/hw.3/lib/lib_maccore_patches.a(pool_mgr_patch.o) (ExtendAllocateApis)
mac_core/src/hostif/htc/.output/AR6320/hw.3/lib/libhtc.a(htc.o)
                              mac_core/apps/utf/wmiHostIF/.output/AR6320/hw.3/lib/libwmihostif.a(wmi_tcmd.o) (g_pHTCInstances)
mac_core/src/misc/module_id/.output/AR6320/hw.3/lib/libmodule_id.a(module_id.o)
                              mac_core/patch/AR6320/v3/.output/AR6320/hw.3/lib/lib_maccore_patches.a(ar_wal_connection_pause_patch.o) (module_id_api)
mac_core/src/wal/whal/ini/.output/AR6320/hw.3/lib/libwhalini.a(whalini.o)
                              mac_core/apps/utf/tcmd_utf/.output/AR6320/hw.3/lib/libtcmdutf.a(if_split.o) (whal_ini_module_install)
mac_core/src/utils/sm/.output/AR6320/hw.3/lib/libsm.a(sm.o)
                              mac_core/apps/utf/tcmd_utf/.output/AR6320/hw.3/lib/libtcmdutf.a(if_split.o) (sm_module_install)
mac_core/src/wal/AR/coex/.output/AR6320/hw.3/lib/wal_coex.a(wal_coex.o)
                              mac_core/apps/utf/tcmd_utf/.output/AR6320/hw.3/lib/libtcmdutf.a(if_split.o) (wal_coex_module_install)
mac_core/src/wal/AR/coex/.output/AR6320/hw.3/lib/wal_coex.a(wal_btcoex.o)
                              mac_core/src/wal/AR/coex/.output/AR6320/hw.3/lib/wal_coex.a(wal_coex.o) (pBtCoexDev)
mac_core/src/wal/AR/coex/.output/AR6320/hw.3/lib/wal_coex.a(wal_mwscoex.o)
                              mac_core/src/wal/AR/coex/.output/AR6320/hw.3/lib/wal_coex.a(wal_coex.o) (pMwsCoexDev)
mac_core/src/wal/AR/coex/.output/AR6320/hw.3/lib/wal_coex.a(wal_mwscoex_crc.o)
                              mac_core/src/wal/AR/coex/.output/AR6320/hw.3/lib/wal_coex.a(wal_mwscoex.o) (crc_16_calc)
mac_core/src/wal/AR/coex/.output/AR6320/hw.3/lib/wal_coex.a(qmi_idl_lib.o)
                              mac_core/src/wal/AR/coex/.output/AR6320/hw.3/lib/wal_coex.a(wal_mwscoex.o) (qmi_idl_message_decode)
mac_core/src/wal/AR/coex/.output/AR6320/hw.3/lib/wal_coex.a(qmi_idl_accessor.o)
                              mac_core/src/wal/AR/coex/.output/AR6320/hw.3/lib/wal_coex.a(wal_mwscoex.o) (qmi_idl_get_max_message_len)
mac_core/src/wal/AR/coex/.output/AR6320/hw.3/lib/wal_coex.a(coexistence_service_v02.o)
                              mac_core/src/wal/AR/coex/.output/AR6320/hw.3/lib/wal_coex.a(wal_mwscoex.o) (coex_get_service_object_internal_v02)
mac_core/src/wal/whal/coex/.output/AR6320/hw.3/lib/whal_ar_coex.a(whal_coex.o)
                              mac_core/patch/AR6320/v3/.output/AR6320/hw.3/lib/lib_maccore_patches.a(patch_whal_coex.o) (gpWhalCoexStruct)
mac_core/src/wal/whal/coex/.output/AR6320/hw.3/lib/whal_ar_coex.a(whal_mci.o)
                              mac_core/patch/AR6320/v3/.output/AR6320/hw.3/lib/lib_maccore_patches.a(patch_whal_mci.o) (gpMciStruct)
mac_core/src/wal/whal/coex/.output/AR6320/hw.3/lib/whal_ar_coex.a(whal_mws.o)
                              mac_core/patch/AR6320/v3/.output/AR6320/hw.3/lib/lib_maccore_patches.a(patch_whal_mws.o) (g_mwswhal)
mac_core/apps/lib/.output/AR6320/hw.3/lib/libapp.a(efusew.o)
                              mac_core/apps/utf/AR6004/.output/AR6320/hw.3/lib/libar6004utf.a(hw.o) (efusew_module_install)
mac_core/apps/lib/.output/AR6320/hw.3/lib/libapp.a(otpstreamw.o)
                              mac_core/apps/utf/AR6004/.output/AR6320/hw.3/lib/libar6004utf.a(hw.o) (otpstream_write_module_install)

Memory Configuration

Name             Origin             Length             Attributes
ex_init_seg      0x000a0400         0x00006b00
ext_iram_seg     0x000a6f00         0x00011100
ext_laddr_seg    0x0a000000         0x00010000
lit_seg          0x0097b000         0x0000a000
iram_seg         0x00985000         0x00093000
dram_seg         0x004144d0         0x0003bb30
strip_seg        0x01000000         0x00100000
*default*        0x00000000         0xffffffff

Linker script and memory map

START GROUP
LOAD /cad/tensilica/chips/peregrine/RE-2013.3-linux/peregrine/xtensa-elf/lib/xcc//libgcc.a
LOAD mac_core/apps/lib/.output/AR6320/hw.3/lib/libapp.a
LOAD mac_core/apps/utf/commonUTF/.output/AR6320/hw.3/lib/libcommonutf.a
LOAD mac_core/src/wal/whal/init/.output/AR6320/hw.3/lib/libwhal_init.a
LOAD mac_core/apps/utf/AR6320/.output/AR6320/hw.3/lib/libar6320.a
LOAD mac_core/apps/utf/AR6004/.output/AR6320/hw.3/lib/libar6004utf.a
LOAD mac_core/src/misc/extend_alloc/.output/AR6320/hw.3/lib/libextendalloc.a
LOAD mac_core/src/hostif/htc/.output/AR6320/hw.3/lib/libhtc.a
LOAD mac_core/src/misc/module_id/.output/AR6320/hw.3/lib/libmodule_id.a
LOAD mac_core/src/wal/whal/ini/.output/AR6320/hw.3/lib/libwhalini.a
LOAD mac_core/src/utils/sm/.output/AR6320/hw.3/lib/libsm.a
LOAD mac_core/src/wal/AR/coex/.output/AR6320/hw.3/lib/wal_coex.a
LOAD mac_core/src/wal/whal/coex/.output/AR6320/hw.3/lib/whal_ar_coex.a
LOAD mac_core/src/bufpool/.output/AR6320/hw.3/lib/libbufpool.a
LOAD mac_core/apps/utf/tcmd_utf/.output/AR6320/hw.3/lib/libtcmdutf.a
LOAD mac_core/apps/utf/testScriptIF/.output/AR6320/hw.3/lib/libtestscriptif.a
LOAD mac_core/apps/utf/wmiHostIF/.output/AR6320/hw.3/lib/libwmihostif.a
LOAD mac_core/src/wal/whal/reset/.output/AR6320/hw.3/lib/ar6000_cal.a
LOAD mac_core/patch/AR6320/v3/.output/AR6320/hw.3/lib/lib_maccore_patches.a
LOAD mac_core/src/wal/whal/rtt/.output/AR6320/hw.3/lib/whal_rtt.a
LOAD halphy/patch/AR6320/v3/.output/AR6320/hw.3/lib/lib_halphy_patches.a
LOAD mac_core/src/wal/AR/ere/.output/AR6320/hw.3/lib/ar_wal_ere.a
LOAD mac_core/src/wal/AR/supplicant/.output/AR6320/hw.3/lib/ar_wal_suppl.a
LOAD mac_core/src/tgt_rx2tx/.output/AR6320/hw.3/lib/libtgtrx2tx.a
LOAD mac_core/src/wal/AR/rtt/.output/AR6320/hw.3/lib/ar_wal_rtt.a
LOAD mac_core/src/wal/AR/nan/.output/AR6320/hw.3/lib/ar_wal_nan.a
LOAD mac_core/src/wal/AR/rtt/.output/AR6320/hw.3/lib/ar_wal_rtt.a
END GROUP

.ex_init_text   0x000a0400     0x27a9
                0x000a0400                _ex_init_text_start = ABSOLUTE (.)
 *(.ex_init_text)
 .ex_init_text  0x000a0400      0x18d mac_core/src/wal/whal/reset/.output/AR6320/hw.3/lib/ar6000_cal.a(ar6320_cal.o)
                0x000a0400                ar6000InitCalStruct
 *fill*         0x000a058d        0x3 00
 .ex_init_text  0x000a0590       0x7a mac_core/patch/AR6320/v3/.output/AR6320/hw.3/lib/lib_maccore_patches.a(install_patches.o)
                                 0x9d (size before relaxing)
                0x000a0590                install_phase0_patches
                0x000a05b4                install_patches
 *fill*         0x000a060a        0x2 00
 .ex_init_text  0x000a060c       0x56 mac_core/patch/AR6320/v3/.output/AR6320/hw.3/lib/lib_maccore_patches.a(whal_install_patches.o)
                                 0x72 (size before relaxing)
                0x000a060c                whal_install_patches
                0x000a0658                whal_pre_init_callback
 *fill*         0x000a0662        0x2 00
 .ex_init_text  0x000a0664       0x4d mac_core/patch/AR6320/v3/.output/AR6320/hw.3/lib/lib_maccore_patches.a(wal_install_patches.o)
                                 0x8f (size before relaxing)
                0x000a0664                wal_install_patches
 *fill*         0x000a06b1        0x3 00
 .ex_init_text  0x000a06b4       0x36 mac_core/patch/AR6320/v3/.output/AR6320/hw.3/lib/lib_maccore_patches.a(ar_wal_connection_pause_patch.o)
                0x000a06b4                ar_wal_connection_pause_patch_install
 *fill*         0x000a06ea        0x2 00
 .ex_init_text  0x000a06ec      0x586 mac_core/patch/AR6320/v3/.output/AR6320/hw.3/lib/lib_maccore_patches.a(ar_wal_phy_dev_patch.o)
                0x000a06ec                patch_wal_dev_attach
                0x000a0c28                ar_wal_phy_dev_install_patch
 *fill*         0x000a0c72        0x2 00
 .ex_init_text  0x000a0c74      0x152 mac_core/patch/AR6320/v3/.output/AR6320/hw.3/lib/lib_maccore_patches.a(cmnos_retention_patch.o)
                0x000a0c74                patch_cmnos_retention_hwinit
                0x000a0d58                patch_cmnos_retention_init
                0x000a0d94                patch_cmnos_retention_module_install
 *fill*         0x000a0dc6        0x2 00
 .ex_init_text  0x000a0dc8       0x2c mac_core/patch/AR6320/v3/.output/AR6320/hw.3/lib/lib_maccore_patches.a(ar_wal_tx_de_patch.o)
                0x000a0dc8                ar_wal_tx_de_patch_install
 .ex_init_text  0x000a0df4       0x2b mac_core/patch/AR6320/v3/.output/AR6320/hw.3/lib/lib_maccore_patches.a(ar_wal_local_frames_wifi_ip01_patch.o)
                0x000a0df4                ar_wal_local_frames_wifi_ip01_install_patch
 *fill*         0x000a0e1f        0x1 00
 .ex_init_text  0x000a0e20       0xa5 mac_core/patch/AR6320/v3/.output/AR6320/hw.3/lib/lib_maccore_patches.a(ar_wal_rx_patch.o)
                0x000a0e20                ar_wal_rx_patch_install
 *fill*         0x000a0ec5        0x3 00
 .ex_init_text  0x000a0ec8       0x28 mac_core/patch/AR6320/v3/.output/AR6320/hw.3/lib/lib_maccore_patches.a(ar_wal_rx_offload_patch.o)
                0x000a0ec8                ar_wal_rx_offload_patch_install
 .ex_init_text  0x000a0ef0       0x26 mac_core/patch/AR6320/v3/.output/AR6320/hw.3/lib/lib_maccore_patches.a(ar_wal_rx_common_patch.o)
                0x000a0ef0                ar_wal_rx_common_patch_install
 *fill*         0x000a0f16        0x2 00
 .ex_init_text  0x000a0f18       0x6d mac_core/patch/AR6320/v3/.output/AR6320/hw.3/lib/lib_maccore_patches.a(ar_wal_vdev_patch.o)
                0x000a0f18                ar_wal_vdev_install_patch
 *fill*         0x000a0f85        0x3 00
 .ex_init_text  0x000a0f88       0x12 mac_core/patch/AR6320/v3/.output/AR6320/hw.3/lib/lib_maccore_patches.a(ar_tx_q_enque_patch.o)
                0x000a0f88                ar_tx_q_enque_install_patch
 *fill*         0x000a0f9a        0x2 00
 .ex_init_text  0x000a0f9c       0x54 mac_core/patch/AR6320/v3/.output/AR6320/hw.3/lib/lib_maccore_patches.a(tx_sched_patch.o)
                0x000a0f9c                tx_sched_install_patch
 .ex_init_text  0x000a0ff0      0x393 mac_core/patch/AR6320/v3/.output/AR6320/hw.3/lib/lib_maccore_patches.a(ar_wal_tx_send_patch.o)
                0x000a0ff0                init_wal_tx_hwq_ext
                0x000a1014                patch_tx_send_attach
                0x000a12e4                ar_wal_tx_send_patch_install
 *fill*         0x000a1383        0x1 00
 .ex_init_text  0x000a1384       0x21 mac_core/patch/AR6320/v3/.output/AR6320/hw.3/lib/lib_maccore_patches.a(ar_wal_chain_mgmt_patch.o)
                0x000a1384                patch_wal_chain_mgmt_api_module_install
 *fill*         0x000a13a5        0x3 00
 .ex_init_text  0x000a13a8       0x8c mac_core/patch/AR6320/v3/.output/AR6320/hw.3/lib/lib_maccore_patches.a(ar_wal_peer_patch.o)
                0x000a13a8                patch_wal_peer_api_module_install
 .ex_init_text  0x000a1434       0xce mac_core/patch/AR6320/v3/.output/AR6320/hw.3/lib/lib_maccore_patches.a(ar600P_txbf_patch.o)
                0x000a1434                patch_ar6000TxbfeeInit
                0x000a14a4                ar600P_txbf_patch_install
                0x000a14f4                patch_ar6000TxbfAttach
 *fill*         0x000a1502        0x2 00
 .ex_init_text  0x000a1504       0x4d mac_core/patch/AR6320/v3/.output/AR6320/hw.3/lib/lib_maccore_patches.a(ar_xmit_wifi_ip01_patch.o)
                0x000a1504                ar_xmit_wifi_ip01_patch_install
 *fill*         0x000a1551        0x3 00
 .ex_init_text  0x000a1554       0x26 mac_core/patch/AR6320/v3/.output/AR6320/hw.3/lib/lib_maccore_patches.a(ar_wal_channel_change_patch.o)
                0x000a1554                patch_wal_channel_change_api_module_install
 *fill*         0x000a157a        0x2 00
 .ex_init_text  0x000a157c       0x4a mac_core/patch/AR6320/v3/.output/AR6320/hw.3/lib/lib_maccore_patches.a(ar_wal_rc_patch.o)
                0x000a157c                ar_wal_rc_patch_install
 *fill*         0x000a15c6        0x2 00
 .ex_init_text  0x000a15c8       0x16 mac_core/patch/AR6320/v3/.output/AR6320/hw.3/lib/lib_maccore_patches.a(wal_rtt_patch.o)
                0x000a15c8                wal_rtt_patch_install
 *fill*         0x000a15de        0x2 00
 .ex_init_text  0x000a15e0       0x16 mac_core/patch/AR6320/v3/.output/AR6320/hw.3/lib/lib_maccore_patches.a(whal_rtt_patch.o)
                0x000a15e0                whal_rtt_patch_install
 *fill*         0x000a15f6        0x2 00
 .ex_init_text  0x000a15f8       0x32 mac_core/patch/AR6320/v3/.output/AR6320/hw.3/lib/lib_maccore_patches.a(dbglog_patch.o)
                0x000a15f8                patch_dbglog_module_install
 *fill*         0x000a162a        0x2 00
 .ex_init_text  0x000a162c       0x1a mac_core/patch/AR6320/v3/.output/AR6320/hw.3/lib/lib_maccore_patches.a(ar600p_beacon_patch.o)
                0x000a162c                ar600P_beacon_patch_install
 *fill*         0x000a1646        0x2 00
 .ex_init_text  0x000a1648       0x62 mac_core/patch/AR6320/v3/.output/AR6320/hw.3/lib/lib_maccore_patches.a(ar6000_power_patch.o)
                0x000a1648                ar6000_power_patch_install
 *fill*         0x000a16aa        0x2 00
 .ex_init_text  0x000a16ac       0x51 mac_core/patch/AR6320/v3/.output/AR6320/hw.3/lib/lib_maccore_patches.a(cmnos_intrinf_patch.o)
                0x000a16ac                cmnos_intrinf_install_patch
 *fill*         0x000a16fd        0x3 00
 .ex_init_text  0x000a1700       0x1c mac_core/patch/AR6320/v3/.output/AR6320/hw.3/lib/lib_maccore_patches.a(wal_beacon_patch.o)
                0x000a1700                wal_beacon_patch_install
 .ex_init_text  0x000a171c        0xd mac_core/patch/AR6320/v3/.output/AR6320/hw.3/lib/lib_maccore_patches.a(wal_swba_patch.o)
                0x000a171c                wal_swba_install_patch
 *fill*         0x000a1729        0x3 00
 .ex_init_text  0x000a172c       0x6e mac_core/patch/AR6320/v3/.output/AR6320/hw.3/lib/lib_maccore_patches.a(ar600P_retention_patch.o)
                0x000a172c                ar600P_retention_patch_install
 *fill*         0x000a179a        0x2 00
 .ex_init_text  0x000a179c      0x135 mac_core/patch/AR6320/v3/.output/AR6320/hw.3/lib/lib_maccore_patches.a(ar_wal_tx_dm_patch.o)
                0x000a179c                patch_tx_dm_init
                0x000a18b8                ar_wal_tx_dm_patch_install
 *fill*         0x000a18d1        0x3 00
 .ex_init_text  0x000a18d4       0x68 mac_core/patch/AR6320/v3/.output/AR6320/hw.3/lib/lib_maccore_patches.a(patch_copy_engine.o)
                0x000a18d4                patch_copy_engine
 .ex_init_text  0x000a193c       0x1e mac_core/patch/AR6320/v3/.output/AR6320/hw.3/lib/lib_maccore_patches.a(wal_concurrency_patch.o)
                0x000a193c                wal_concurrency_install_patch
 *fill*         0x000a195a        0x2 00
 .ex_init_text  0x000a195c       0x2a mac_core/patch/AR6320/v3/.output/AR6320/hw.3/lib/lib_maccore_patches.a(ar_wal_tdls_patch.o)
                0x000a195c                ar_wal_tdls_patch_install
 *fill*         0x000a1986        0x2 00
 .ex_init_text  0x000a1988        0xe mac_core/patch/AR6320/v3/.output/AR6320/hw.3/lib/lib_maccore_patches.a(cmnos_timer_patch.o)
                0x000a1988                patch_cmnos_timer_module_install
 *fill*         0x000a1996        0x2 00
 .ex_init_text  0x000a1998       0x2a mac_core/patch/AR6320/v3/.output/AR6320/hw.3/lib/lib_maccore_patches.a(ar_wal_tx_hcm_patch.o)
                0x000a1998                patch_tx_hcm_attach
                0x000a19b0                ar_wal_tx_hcm_patch_install
 *fill*         0x000a19c2        0x2 00
 .ex_init_text  0x000a19c4       0x31 mac_core/patch/AR6320/v3/.output/AR6320/hw.3/lib/lib_maccore_patches.a(ar_wal_tdls_conn_table_patch.o)
                0x000a19c4                ar_wal_tdls_conn_table_patch_install
 *fill*         0x000a19f5        0x3 00
 .ex_init_text  0x000a19f8       0x35 mac_core/patch/AR6320/v3/.output/AR6320/hw.3/lib/lib_maccore_patches.a(ar600P_recv_patch.o)
                0x000a19f8                ar600P_recv_patch_install
                0x000a1a20                ar6320_recv_size_patch_install
 *fill*         0x000a1a2d        0x3 00
 .ex_init_text  0x000a1a30       0x53 mac_core/patch/AR6320/v3/.output/AR6320/hw.3/lib/lib_maccore_patches.a(os_install_wlan_extra_memory_patches.o)
                0x000a1a30                patch_CE_fini
                0x000a1a50                os_install_wlan_extra_memory_patches
 *fill*         0x000a1a83        0x1 00
 .ex_init_text  0x000a1a84       0x12 mac_core/patch/AR6320/v3/.output/AR6320/hw.3/lib/lib_maccore_patches.a(sha1_patch.o)
                0x000a1a84                sha1_install_patch
 *fill*         0x000a1a96        0x2 00
 .ex_init_text  0x000a1a98       0x65 mac_core/patch/AR6320/v3/.output/AR6320/hw.3/lib/lib_maccore_patches.a(ar_wal_txbf_patch.o)
                0x000a1a98                patch_wal_txbfee_init
                0x000a1af0                ar_wal_txbf_patch_install
 *fill*         0x000a1afd        0x3 00
 .ex_init_text  0x000a1b00       0x17 mac_core/patch/AR6320/v3/.output/AR6320/hw.3/lib/lib_maccore_patches.a(cmnos_allocram_patch.o)
                0x000a1b00                patch_cmnos_allocram_module_install
 *fill*         0x000a1b17        0x1 00
 .ex_init_text  0x000a1b18       0x2f mac_core/src/wal/whal/rtt/.output/AR6320/hw.3/lib/whal_rtt.a(whal_rtt.o)
                0x000a1b18                rtt_init
                0x000a1b30                whal_rtt_attach
 *fill*         0x000a1b47        0x1 00
 .ex_init_text  0x000a1b48       0x32 halphy/patch/AR6320/v3/.output/AR6320/hw.3/lib/lib_halphy_patches.a(halphy_install_patches.o)
                                 0x46 (size before relaxing)
                0x000a1b48                halphy_install_patches
 *fill*         0x000a1b7a        0x2 00
 .ex_init_text  0x000a1b7c       0x2c halphy/patch/AR6320/v3/.output/AR6320/hw.3/lib/lib_halphy_patches.a(ar6000_ani_patch.o)
                0x000a1b7c                ar6000_ani_patch_install
 .ex_init_text  0x000a1ba8       0x9f halphy/patch/AR6320/v3/.output/AR6320/hw.3/lib/lib_halphy_patches.a(ar6320_ini_patch.o)
                0x000a1ba8                ar6320_ini_patch_install
 *fill*         0x000a1c47        0x1 00
 .ex_init_text  0x000a1c48       0x42 halphy/patch/AR6320/v3/.output/AR6320/hw.3/lib/lib_halphy_patches.a(ar6320_tpc_config_patch.o)
                0x000a1c48                ar6320_tpc_config_patch_install
 *fill*         0x000a1c8a        0x2 00
 .ex_init_text  0x000a1c8c       0x8a halphy/patch/AR6320/v3/.output/AR6320/hw.3/lib/lib_halphy_patches.a(ar6320_eeprom_patch.o)
                0x000a1c8c                ar6000_eeprom_patch_install
 *fill*         0x000a1d16        0x2 00
 .ex_init_text  0x000a1d18       0xb0 halphy/patch/AR6320/v3/.output/AR6320/hw.3/lib/lib_halphy_patches.a(ar600P_reset_patch.o)
                0x000a1d18                hal_ar600P_reset_patch_install
 .ex_init_text  0x000a1dc8      0x11f halphy/patch/AR6320/v3/.output/AR6320/hw.3/lib/lib_halphy_patches.a(ar6000_paprd_patch.o)
                0x000a1dc8                ar6000_paprd_patch_install
 *fill*         0x000a1ee7        0x1 00
 .ex_init_text  0x000a1ee8       0x16 halphy/patch/AR6320/v3/.output/AR6320/hw.3/lib/lib_halphy_patches.a(ar6000_phy_patch.o)
                0x000a1ee8                ar6000_phy_patch_install
 *fill*         0x000a1efe        0x2 00
 .ex_init_text  0x000a1f00       0x5e mac_core/src/wal/AR/rtt/.output/AR6320/hw.3/lib/ar_wal_rtt.a(wal_rtt.o)
                0x000a1f00                _wal_rtt_init
 *fill*         0x000a1f5e        0x2 00
 .ex_init_text  0x000a1f60       0xde mac_core/src/misc/extend_alloc/.output/AR6320/hw.3/lib/libextendalloc.a(extend_allocate.o)
                0x000a1f60                _extend_allocram_init
                0x000a1fe4                _extend_allocram_register_handle
 *fill*         0x000a203e        0x2 00
 .ex_init_text  0x000a2040      0x1a5 mac_core/src/hostif/htc/.output/AR6320/hw.3/lib/libhtc.a(htc.o)
                0x000a2040                _HTCPipeAllocCtrlBuffers
                0x000a20a8                _HTCPipeInitProper
                0x000a2188                _HTC_PipeInit
                0x000a21a4                HTC_pipe_module_Install
 *fill*         0x000a21e5        0x3 00
 .ex_init_text  0x000a21e8       0x3f mac_core/src/wal/whal/ini/.output/AR6320/hw.3/lib/libwhalini.a(whalini.o)
                0x000a21e8                _whal_ini_init
                0x000a2218                whal_ini_module_install
 *fill*         0x000a2227        0x1 00
 .ex_init_text  0x000a2228       0x28 mac_core/src/utils/sm/.output/AR6320/hw.3/lib/libsm.a(sm.o)
                0x000a2228                sm_module_install
 .ex_init_text  0x000a2250      0x3b3 mac_core/src/wal/AR/coex/.output/AR6320/hw.3/lib/wal_coex.a(wal_coex.o)
                                0x3b7 (size before relaxing)
                0x000a2250                _wal_coex_wb_timer_init
                0x000a2258                _wal_coex_init
                0x000a2580                _wal_coex_complete_init
                0x000a25a0                _wal_coex_interrupt_init
                0x000a25f0                wal_coex_module_install
 *fill*         0x000a2603        0x1 00
 .ex_init_text  0x000a2604      0x24e mac_core/src/wal/AR/coex/.output/AR6320/hw.3/lib/wal_coex.a(wal_btcoex.o)
                0x000a2604                _wal_btcoex_init
                0x000a27f8                wal_btcoex_attach
 *fill*         0x000a2852        0x2 00
 .ex_init_text  0x000a2854      0x1f1 mac_core/src/wal/AR/coex/.output/AR6320/hw.3/lib/wal_coex.a(wal_mwscoex.o)
                0x000a2854                _wal_mwscoex_init
                0x000a2a20                wal_mws_attach
 *fill*         0x000a2a45        0x3 00
 .ex_init_text  0x000a2a48       0x7c mac_core/src/wal/whal/coex/.output/AR6320/hw.3/lib/whal_ar_coex.a(whal_coex.o)
                0x000a2a48                _whal_coex_attach
                0x000a2ab0                whal_coex_module_install
 .ex_init_text  0x000a2ac4       0xb5 mac_core/src/wal/whal/coex/.output/AR6320/hw.3/lib/whal_ar_coex.a(whal_mci.o)
                0x000a2ac4                _whal_mci_attach
 *fill*         0x000a2b79        0x3 00
 .ex_init_text  0x000a2b7c       0x26 mac_core/src/wal/whal/coex/.output/AR6320/hw.3/lib/whal_ar_coex.a(whal_mws.o)
                0x000a2b7c                _whal_mws_attach
 *fill*         0x000a2ba2        0x0 00
 *fill*         0x000a2ba2        0x0 00
 *fill*         0x000a2ba2        0x0 00
 *fill*         0x000a2ba2        0x0 00
 *fill*         0x000a2ba2        0x0 00
 *fill*         0x000a2ba2        0x0 00
 *fill*         0x000a2ba2        0x0 00
 *fill*         0x000a2ba2        0x0 00
 *fill*         0x000a2ba2        0x0 00
 *fill*         0x000a2ba2        0x0 00
 *fill*         0x000a2ba2        0x0 00
 *fill*         0x000a2ba2        0x0 00
 *fill*         0x000a2ba2        0x0 00
 *fill*         0x000a2ba2        0x0 00
 *fill*         0x000a2ba2        0x0 00
 *fill*         0x000a2ba2        0x0 00
 *fill*         0x000a2ba2        0x0 00
 *fill*         0x000a2ba2        0x0 00
 *fill*         0x000a2ba2        0x0 00
 *fill*         0x000a2ba2        0x0 00
 *fill*         0x000a2ba2        0x0 00
 *fill*         0x000a2ba2        0x0 00
 *fill*         0x000a2ba2        0x0 00
 *fill*         0x000a2ba2        0x0 00
 *fill*         0x000a2ba2        0x0 00
 *fill*         0x000a2ba2        0x2 00
 .ex_init_text  0x000a2ba4        0x5 mac_core/patch/AR6320/v3/.output/AR6320/hw.3/lib/lib_maccore_patches.a(ar_wal_rmc_patch.o)
                0x000a2ba4                ar_wal_rmc_patch_install
 *fill*         0x000a2ba9        0x0 00
 *fill*         0x000a2ba9        0x0 00
 *fill*         0x000a2ba9        0x0 00
 *fill*         0x000a2ba9        0x0 00
 *fill*         0x000a2ba9        0x0 00
 *fill*         0x000a2ba9        0x0 00
 *fill*         0x000a2ba9        0x0 00
 *fill*         0x000a2ba9        0x0 00
 *fill*         0x000a2ba9        0x0 00
 *fill*         0x000a2ba9        0x0 00
 *fill*         0x000a2ba9        0x0 00
 *fill*         0x000a2ba9        0x0 00
 *fill*         0x000a2ba9        0x0 00
 *fill*         0x000a2ba9        0x0 00
 *fill*         0x000a2ba9        0x0 00
 *fill*         0x000a2ba9        0x0 00
 *fill*         0x000a2ba9        0x0 00
 *fill*         0x000a2ba9        0x0 00
 *fill*         0x000a2ba9        0x0 00
 *fill*         0x000a2ba9        0x0 00
 *fill*         0x000a2ba9        0x0 00
 *fill*         0x000a2ba9        0x0 00
 *fill*         0x000a2ba9        0x0 00
 *fill*         0x000a2ba9        0x0 00
 *fill*         0x000a2ba9        0x0 00
 *fill*         0x000a2ba9        0x0 00
 *fill*         0x000a2ba9        0x0 00
                0x000a2ba9                _ex_init_text_end = ABSOLUTE (.)

.evictable_text
                0x0a000000        0x0
                0x0a000000                . = ALIGN (0x4)
                0x0a000000                _evict_text_start = ABSOLUTE (.)
 *(.evictable_text)
                0x0a000000                _evict_text_end = ABSOLUTE (.)

.alt_text       0x000a6f00      0xdbf
                0x000a6f00                _s_alt_text = .
                0x000a6f00                _alt_text_start = ABSOLUTE (.)
 mac_core/src/wal/whal/rtt/.output/AR6320/hw.3/lib/whal_rtt.a(.text)
 .text          0x000a6f00      0xcfb mac_core/src/wal/whal/rtt/.output/AR6320/hw.3/lib/whal_rtt.a(whal_rtt.o)
                0x000a6f00                get_mac_clock_freq
                0x000a6f24                rtt_send_sta_get_rxbw
                0x000a6f34                rtt_send_sta_get_txbw
                0x000a6f7c                _rtt_get_rx_frame_len
                0x000a6f8c                rtt_recv_sta_get_rxbw
                0x000a6fec                rtt_get_rx_chain_mask
                0x000a7050                rtt_read_channel_dump
                0x000a71ac                _rtt_reg_setting
                0x000a720c                rtt_frame_prepare
                0x000a7414                rtt_frame_recover
                0x000a74d0                _rtt_rx_frame_time
                0x000a7630                _rtt_ack_rx_time
                0x000a76c8                _rtt_get_txrx_delay
                0x000a77b4                rtt_get_toda
                0x000a7994                rtt_send_sta_get_rssi
                0x000a7a30                rtt_recv_sta_get_rssi
                0x000a7acc                rtt_recv_sta_get_CFR_sta
                0x000a7af8                rtt_recv_sta_do_CFR_capture
                0x000a7b5c                _rtt_get_hw_corr_value
                0x000a7bcc                rtt_fac_handler
 mac_core/src/misc/profile/.output/AR6320/hw.3/lib/libprofile.a(.text)
 protocol/src/rtt/.output/AR6320/hw.3/lib/librtt.a(.text)
 protocol/src/framegen/.output/AR6320/hw.3/lib/libframegen.a(.text)
 protocol/src/offload/.output/AR6320/hw.3/lib/liboffload.a(.text)
 protocol/src/offload_mgr/.output/AR6320/hw.3/lib/liboffload_mgr.a(.text)
 protocol/src/chatter/.output/AR6320/hw.3/lib/libchatter.a(.text)
 protocol/src/phyerr/.output/AR6320/hw.3/lib/libphyerr.a(.text)
 protocol/src/power/smps/.output/AR6320/hw.3/lib/libsmps.a(.text)
 mac_core/src/wal/whal/ini/.output/AR6320/hw.3/lib/libwhalini.a(.text)
 *fill*         0x000a7bfb        0x1 00
 .text          0x000a7bfc       0xc3 mac_core/src/wal/whal/ini/.output/AR6320/hw.3/lib/libwhalini.a(whalini.o)
                0x000a7bfc                whal_ini_setup_id
                0x000a7c38                _whal_ini_fetch_data
 *fill*         0x000a7cbf        0x0 00
 protocol/src/profile/.output/AR6320/hw.3/lib/libwlanprofile.a(.text)
 protocol/src/key_mgmt/.output/AR6320/hw.3/lib/libkeymgmt.a(.text)
 protocol/src/cfg/.output/AR6320/hw.3/lib/libcfg.a(.text)
 mac_core/src/hostif/wmisvc/.output/AR6320/hw.3/lib/libwmisvc.a(.text)
 *(.ext_iram)
                0x000a7cbf                _alt_text_end = ABSOLUTE (.)
                0x000a7cbf                _e_alt_text = .

.lit4           0x0097b000     0x5000
                0x0097b000                _lit4_start = ABSOLUTE (.)
                0x0097b000                _lit4_end = ABSOLUTE (.)
                0x0097b000                _rom_literal_start = ABSOLUTE (.)
                0x00980000                . = (. + 0x5000)
 *fill*         0x0097b000     0x5000 00
                0x00980000                _rom_literal_end = ABSOLUTE (.)

.dport0.literal
                0x00980000        0x0
                0x00980000                _dport0_literal_start = ABSOLUTE (.)
 *(.dport0.literal)
 *(.dport.literal)
                0x00980000                _dport0_literal_end = ABSOLUTE (.)

.literals       0x00980000     0x2e34
                0x00980000                _literals_start = ABSOLUTE (.)
 *(*.lit4)
 .lit4          0x00980000       0x18 mac_core/apps/utf/commonUTF/.output/AR6320/hw.3/lib/libcommonutf.a(main.o)
                                 0x1c (size before relaxing)
 .lit4          0x00980018        0x8 mac_core/apps/utf/commonUTF/.output/AR6320/hw.3/lib/libcommonutf.a(utf.o)
                                 0x28 (size before relaxing)
 .lit4          0x00980020       0x44 mac_core/apps/utf/commonUTF/.output/AR6320/hw.3/lib/libcommonutf.a(cmdEvtProcEngine.o)
                                 0x74 (size before relaxing)
 .lit4          0x00980064      0x108 mac_core/apps/utf/commonUTF/.output/AR6320/hw.3/lib/libcommonutf.a(cmdProcessing.o)
                                0x2f4 (size before relaxing)
 .lit4          0x0098016c        0x4 mac_core/apps/utf/commonUTF/.output/AR6320/hw.3/lib/libcommonutf.a(cmdProcessingSM.o)
                                 0x4c (size before relaxing)
 .lit4          0x00980170       0x6c mac_core/apps/utf/commonUTF/.output/AR6320/hw.3/lib/libcommonutf.a(genTxBinCmdTlv.o)
                                 0xac (size before relaxing)
 .lit4          0x009801dc       0x14 mac_core/apps/utf/commonUTF/.output/AR6320/hw.3/lib/libcommonutf.a(parseBinCmdStream.o)
                                 0x24 (size before relaxing)
 .lit4          0x009801f0        0x4 mac_core/apps/utf/commonUTF/.output/AR6320/hw.3/lib/libcommonutf.a(testUtil.o)
 .lit4          0x009801f4       0x1c mac_core/apps/utf/commonUTF/.output/AR6320/hw.3/lib/libcommonutf.a(whalExtensionGeneric.o)
                                 0x40 (size before relaxing)
 .lit4          0x00980210      0x364 mac_core/apps/utf/AR6320/.output/AR6320/hw.3/lib/libar6320.a(whal_tcmd.o)
                                0xe30 (size before relaxing)
 .lit4          0x00980574      0x16c mac_core/apps/utf/tcmd_utf/.output/AR6320/hw.3/lib/libtcmdutf.a(tcmd.o)
                                0x47c (size before relaxing)
 .lit4          0x009806e0       0xac mac_core/apps/utf/tcmd_utf/.output/AR6320/hw.3/lib/libtcmdutf.a(tcmd_rx.o)
                                0x1e4 (size before relaxing)
 .lit4          0x0098078c       0xb4 mac_core/apps/utf/tcmd_utf/.output/AR6320/hw.3/lib/libtcmdutf.a(tcmd_tx.o)
                                0x214 (size before relaxing)
 .lit4          0x00980840        0x4 mac_core/apps/utf/tcmd_utf/.output/AR6320/hw.3/lib/libtcmdutf.a(utfCallback.o)
                                 0x18 (size before relaxing)
 .lit4          0x00980844       0x7c mac_core/apps/utf/tcmd_utf/.output/AR6320/hw.3/lib/libtcmdutf.a(if_split.o)
                                0x134 (size before relaxing)
 .lit4          0x009808c0        0x0 mac_core/apps/utf/tcmd_utf/.output/AR6320/hw.3/lib/libtcmdutf.a(pn.o)
 .lit4          0x009808c0        0x4 mac_core/apps/utf/testScriptIF/.output/AR6320/hw.3/lib/libtestscriptif.a(testscriptIFRegister.o)
                                  0x8 (size before relaxing)
 .lit4          0x009808c4        0x0 mac_core/apps/utf/testScriptIF/.output/AR6320/hw.3/lib/libtestscriptif.a(testscriptIF.o)
                                  0x4 (size before relaxing)
 .lit4          0x009808c4      0x1b4 mac_core/apps/utf/wmiHostIF/.output/AR6320/hw.3/lib/libwmihostif.a(legHostIF.o)
                                0x5e4 (size before relaxing)
 .lit4          0x00980a78       0xcc mac_core/apps/utf/wmiHostIF/.output/AR6320/hw.3/lib/libwmihostif.a(wmi_tcmd.o)
                                0x1c4 (size before relaxing)
 .lit4          0x00980b44       0x18 mac_core/apps/utf/wmiHostIF/.output/AR6320/hw.3/lib/libwmihostif.a(htt_tgt_hif_svc.o)
                                 0x8c (size before relaxing)
 .lit4          0x00980b5c       0xd0 mac_core/src/wal/whal/reset/.output/AR6320/hw.3/lib/ar6000_cal.a(ar6320_cal.o)
                                0x8b0 (size before relaxing)
 .ex_init_text.lit4
                0x00980c2c       0x34 mac_core/src/wal/whal/reset/.output/AR6320/hw.3/lib/ar6000_cal.a(ar6320_cal.o)
                                 0x54 (size before relaxing)
 .lit4          0x00980c60      0x324 mac_core/src/wal/whal/reset/.output/AR6320/hw.3/lib/ar6000_cal.a(ar6320_rxdc_cal.o)
                                0xb44 (size before relaxing)
 .lit4          0x00980f84      0x1f4 mac_core/src/wal/whal/reset/.output/AR6320/hw.3/lib/ar6000_cal.a(ar6320_iq_cal.o)
                               0x1100 (size before relaxing)
 .lit4          0x00981178       0x94 mac_core/src/wal/whal/reset/.output/AR6320/hw.3/lib/ar6000_cal.a(ar6320_pef_cal.o)
                                0x30c (size before relaxing)
 .ex_init_text.lit4
                0x0098120c       0x2c mac_core/patch/AR6320/v3/.output/AR6320/hw.3/lib/lib_maccore_patches.a(install_patches.o)
                                 0x64 (size before relaxing)
 .ex_init_text.lit4
                0x00981238        0xc mac_core/patch/AR6320/v3/.output/AR6320/hw.3/lib/lib_maccore_patches.a(whal_install_patches.o)
                                 0x38 (size before relaxing)
 .ex_init_text.lit4
                0x00981244        0x4 mac_core/patch/AR6320/v3/.output/AR6320/hw.3/lib/lib_maccore_patches.a(wal_install_patches.o)
                                 0x5c (size before relaxing)
 .lit4          0x00981248       0x30 mac_core/patch/AR6320/v3/.output/AR6320/hw.3/lib/lib_maccore_patches.a(ar_wal_connection_pause_patch.o)
                                 0x78 (size before relaxing)
 .ex_init_text.lit4
                0x00981278       0x18 mac_core/patch/AR6320/v3/.output/AR6320/hw.3/lib/lib_maccore_patches.a(ar_wal_connection_pause_patch.o)
                                 0x20 (size before relaxing)
 .lit4          0x00981290       0x6c mac_core/patch/AR6320/v3/.output/AR6320/hw.3/lib/lib_maccore_patches.a(ar_wal_phy_dev_patch.o)
                                0x154 (size before relaxing)
 .ex_init_text.lit4
                0x009812fc       0x88 mac_core/patch/AR6320/v3/.output/AR6320/hw.3/lib/lib_maccore_patches.a(ar_wal_phy_dev_patch.o)
                                0x170 (size before relaxing)
 .lit4          0x00981384       0x88 mac_core/patch/AR6320/v3/.output/AR6320/hw.3/lib/lib_maccore_patches.a(cmnos_retention_patch.o)
                                0x1b4 (size before relaxing)
 .ex_init_text.lit4
                0x0098140c       0x3c mac_core/patch/AR6320/v3/.output/AR6320/hw.3/lib/lib_maccore_patches.a(cmnos_retention_patch.o)
                                 0x94 (size before relaxing)
 .lit4          0x00981448       0x54 mac_core/patch/AR6320/v3/.output/AR6320/hw.3/lib/lib_maccore_patches.a(ar_wal_tx_de_patch.o)
                                0x190 (size before relaxing)
 .ex_init_text.lit4
                0x0098149c       0x10 mac_core/patch/AR6320/v3/.output/AR6320/hw.3/lib/lib_maccore_patches.a(ar_wal_tx_de_patch.o)
                                 0x1c (size before relaxing)
 .lit4          0x009814ac       0x14 mac_core/patch/AR6320/v3/.output/AR6320/hw.3/lib/lib_maccore_patches.a(ar_wal_local_frames_wifi_ip01_patch.o)
                                 0xc4 (size before relaxing)
 .ex_init_text.lit4
                0x009814c0       0x14 mac_core/patch/AR6320/v3/.output/AR6320/hw.3/lib/lib_maccore_patches.a(ar_wal_local_frames_wifi_ip01_patch.o)
                                 0x20 (size before relaxing)
 .lit4          0x009814d4       0x40 mac_core/patch/AR6320/v3/.output/AR6320/hw.3/lib/lib_maccore_patches.a(pool_mgr_patch.o)
                                 0x88 (size before relaxing)
 .lit4          0x00981514      0x118 mac_core/patch/AR6320/v3/.output/AR6320/hw.3/lib/lib_maccore_patches.a(ar_wal_rx_patch.o)
                                0x6fc (size before relaxing)
 .ex_init_text.lit4
                0x0098162c       0x74 mac_core/patch/AR6320/v3/.output/AR6320/hw.3/lib/lib_maccore_patches.a(ar_wal_rx_patch.o)
                                 0x80 (size before relaxing)
 .lit4          0x009816a0       0x2c mac_core/patch/AR6320/v3/.output/AR6320/hw.3/lib/lib_maccore_patches.a(ar_wal_rx_offload_patch.o)
                                0x154 (size before relaxing)
 .ex_init_text.lit4
                0x009816cc       0x14 mac_core/patch/AR6320/v3/.output/AR6320/hw.3/lib/lib_maccore_patches.a(ar_wal_rx_offload_patch.o)
                                 0x1c (size before relaxing)
 .lit4          0x009816e0        0x0 mac_core/patch/AR6320/v3/.output/AR6320/hw.3/lib/lib_maccore_patches.a(ar_wal_rx_common_patch.o)
                                  0x4 (size before relaxing)
 .ex_init_text.lit4
                0x009816e0       0x18 mac_core/patch/AR6320/v3/.output/AR6320/hw.3/lib/lib_maccore_patches.a(ar_wal_rx_common_patch.o)
                                 0x1c (size before relaxing)
 .lit4          0x009816f8       0x34 mac_core/patch/AR6320/v3/.output/AR6320/hw.3/lib/lib_maccore_patches.a(ar_wal_vdev_patch.o)
                                0x168 (size before relaxing)
 .ex_init_text.lit4
                0x0098172c       0x30 mac_core/patch/AR6320/v3/.output/AR6320/hw.3/lib/lib_maccore_patches.a(ar_wal_vdev_patch.o)
                                 0x40 (size before relaxing)
 .lit4          0x0098175c       0x20 mac_core/patch/AR6320/v3/.output/AR6320/hw.3/lib/lib_maccore_patches.a(ar_tx_q_enque_patch.o)
                                 0xdc (size before relaxing)
 .ex_init_text.lit4
                0x0098177c        0x8 mac_core/patch/AR6320/v3/.output/AR6320/hw.3/lib/lib_maccore_patches.a(ar_tx_q_enque_patch.o)
                                  0xc (size before relaxing)
 .lit4          0x00981784       0x34 mac_core/patch/AR6320/v3/.output/AR6320/hw.3/lib/lib_maccore_patches.a(tx_sched_patch.o)
                                0x124 (size before relaxing)
 .ex_init_text.lit4
                0x009817b8       0x3c mac_core/patch/AR6320/v3/.output/AR6320/hw.3/lib/lib_maccore_patches.a(tx_sched_patch.o)
                                 0x44 (size before relaxing)
 .lit4          0x009817f4       0x98 mac_core/patch/AR6320/v3/.output/AR6320/hw.3/lib/lib_maccore_patches.a(ar_wal_tx_send_patch.o)
                                0x74c (size before relaxing)
 .ex_init_text.lit4
                0x0098188c       0x7c mac_core/patch/AR6320/v3/.output/AR6320/hw.3/lib/lib_maccore_patches.a(ar_wal_tx_send_patch.o)
                                 0xdc (size before relaxing)
 .lit4          0x00981908        0x4 mac_core/patch/AR6320/v3/.output/AR6320/hw.3/lib/lib_maccore_patches.a(ar_wal_chain_mgmt_patch.o)
                                 0x74 (size before relaxing)
 .ex_init_text.lit4
                0x0098190c       0x18 mac_core/patch/AR6320/v3/.output/AR6320/hw.3/lib/lib_maccore_patches.a(ar_wal_chain_mgmt_patch.o)
 .lit4          0x00981924       0x6c mac_core/patch/AR6320/v3/.output/AR6320/hw.3/lib/lib_maccore_patches.a(ar_wal_peer_patch.o)
                                0x340 (size before relaxing)
 .ex_init_text.lit4
                0x00981990       0x44 mac_core/patch/AR6320/v3/.output/AR6320/hw.3/lib/lib_maccore_patches.a(ar_wal_peer_patch.o)
                                 0x58 (size before relaxing)
 .lit4          0x009819d4       0x78 mac_core/patch/AR6320/v3/.output/AR6320/hw.3/lib/lib_maccore_patches.a(ar600P_txbf_patch.o)
                                0x274 (size before relaxing)
 .ex_init_text.lit4
                0x00981a4c       0x2c mac_core/patch/AR6320/v3/.output/AR6320/hw.3/lib/lib_maccore_patches.a(ar600P_txbf_patch.o)
                                 0x34 (size before relaxing)
 .lit4          0x00981a78       0x10 mac_core/patch/AR6320/v3/.output/AR6320/hw.3/lib/lib_maccore_patches.a(wal_pps_patch.o)
                                 0x34 (size before relaxing)
 .lit4          0x00981a88       0xcc mac_core/patch/AR6320/v3/.output/AR6320/hw.3/lib/lib_maccore_patches.a(ar_xmit_wifi_ip01_patch.o)
                                0x314 (size before relaxing)
 .ex_init_text.lit4
                0x00981b54       0x24 mac_core/patch/AR6320/v3/.output/AR6320/hw.3/lib/lib_maccore_patches.a(ar_xmit_wifi_ip01_patch.o)
                                 0x30 (size before relaxing)
 .lit4          0x00981b78       0x24 mac_core/patch/AR6320/v3/.output/AR6320/hw.3/lib/lib_maccore_patches.a(ar_wal_channel_change_patch.o)
                                 0xfc (size before relaxing)
 .ex_init_text.lit4
                0x00981b9c       0x18 mac_core/patch/AR6320/v3/.output/AR6320/hw.3/lib/lib_maccore_patches.a(ar_wal_channel_change_patch.o)
                                 0x1c (size before relaxing)
 .lit4          0x00981bb4       0x24 mac_core/patch/AR6320/v3/.output/AR6320/hw.3/lib/lib_maccore_patches.a(ar_wal_rc_patch.o)
                                 0xa8 (size before relaxing)
 .ex_init_text.lit4
                0x00981bd8       0x28 mac_core/patch/AR6320/v3/.output/AR6320/hw.3/lib/lib_maccore_patches.a(ar_wal_rc_patch.o)
                                 0x2c (size before relaxing)
 .ex_init_text.lit4
                0x00981c00        0x4 mac_core/patch/AR6320/v3/.output/AR6320/hw.3/lib/lib_maccore_patches.a(wal_rtt_patch.o)
                                  0xc (size before relaxing)
 .ex_init_text.lit4
                0x00981c04        0x8 mac_core/patch/AR6320/v3/.output/AR6320/hw.3/lib/lib_maccore_patches.a(whal_rtt_patch.o)
                                  0xc (size before relaxing)
 .lit4          0x00981c0c       0x34 mac_core/patch/AR6320/v3/.output/AR6320/hw.3/lib/lib_maccore_patches.a(dbglog_patch.o)
                                0x160 (size before relaxing)
 .ex_init_text.lit4
                0x00981c40       0x14 mac_core/patch/AR6320/v3/.output/AR6320/hw.3/lib/lib_maccore_patches.a(dbglog_patch.o)
                                 0x1c (size before relaxing)
 .lit4          0x00981c54       0x18 mac_core/patch/AR6320/v3/.output/AR6320/hw.3/lib/lib_maccore_patches.a(ar600p_beacon_patch.o)
                                 0x2c (size before relaxing)
 .ex_init_text.lit4
                0x00981c6c        0x4 mac_core/patch/AR6320/v3/.output/AR6320/hw.3/lib/lib_maccore_patches.a(ar600p_beacon_patch.o)
                                  0xc (size before relaxing)
 .lit4          0x00981c70       0x10 mac_core/patch/AR6320/v3/.output/AR6320/hw.3/lib/lib_maccore_patches.a(ar6000_power_patch.o)
                                 0xc0 (size before relaxing)
 .ex_init_text.lit4
                0x00981c80       0x28 mac_core/patch/AR6320/v3/.output/AR6320/hw.3/lib/lib_maccore_patches.a(ar6000_power_patch.o)
                                 0x40 (size before relaxing)
 .lit4          0x00981ca8       0x2c mac_core/patch/AR6320/v3/.output/AR6320/hw.3/lib/lib_maccore_patches.a(ar6000_interrupt_patch.o)
                                 0x8c (size before relaxing)
 .lit4          0x00981cd4       0x54 mac_core/patch/AR6320/v3/.output/AR6320/hw.3/lib/lib_maccore_patches.a(cmnos_intrinf_patch.o)
                                0x12c (size before relaxing)
 .ex_init_text.lit4
                0x00981d28       0x10 mac_core/patch/AR6320/v3/.output/AR6320/hw.3/lib/lib_maccore_patches.a(cmnos_intrinf_patch.o)
                                 0x24 (size before relaxing)
 .lit4          0x00981d38       0x98 mac_core/patch/AR6320/v3/.output/AR6320/hw.3/lib/lib_maccore_patches.a(patch_pcie.o)
                                0x170 (size before relaxing)
 .lit4          0x00981dd0       0x98 mac_core/patch/AR6320/v3/.output/AR6320/hw.3/lib/lib_maccore_patches.a(patch_usb.o)
                                0x17c (size before relaxing)
 .lit4          0x00981e68        0x4 mac_core/patch/AR6320/v3/.output/AR6320/hw.3/lib/lib_maccore_patches.a(wal_beacon_patch.o)
                                  0xc (size before relaxing)
 .ex_init_text.lit4
                0x00981e6c        0xc mac_core/patch/AR6320/v3/.output/AR6320/hw.3/lib/lib_maccore_patches.a(wal_beacon_patch.o)
                                 0x14 (size before relaxing)
 .lit4          0x00981e78        0x8 mac_core/patch/AR6320/v3/.output/AR6320/hw.3/lib/lib_maccore_patches.a(wal_swba_patch.o)
                                 0x34 (size before relaxing)
 .ex_init_text.lit4
                0x00981e80        0x4 mac_core/patch/AR6320/v3/.output/AR6320/hw.3/lib/lib_maccore_patches.a(wal_swba_patch.o)
                                  0x8 (size before relaxing)
 .lit4          0x00981e84       0x2c mac_core/patch/AR6320/v3/.output/AR6320/hw.3/lib/lib_maccore_patches.a(ar600P_retention_patch.o)
                                 0xd0 (size before relaxing)
 .ex_init_text.lit4
                0x00981eb0       0x28 mac_core/patch/AR6320/v3/.output/AR6320/hw.3/lib/lib_maccore_patches.a(ar600P_retention_patch.o)
                                 0x34 (size before relaxing)
 .lit4          0x00981ed8       0x18 mac_core/patch/AR6320/v3/.output/AR6320/hw.3/lib/lib_maccore_patches.a(patch_hif_ce.o)
                                 0x54 (size before relaxing)
 .lit4          0x00981ef0       0x48 mac_core/patch/AR6320/v3/.output/AR6320/hw.3/lib/lib_maccore_patches.a(patch_whal_coex.o)
                                 0xd0 (size before relaxing)
 .lit4          0x00981f38       0x1c mac_core/patch/AR6320/v3/.output/AR6320/hw.3/lib/lib_maccore_patches.a(patch_whal_mws.o)
                                 0x5c (size before relaxing)
 .lit4          0x00981f54       0x2c mac_core/patch/AR6320/v3/.output/AR6320/hw.3/lib/lib_maccore_patches.a(patch_whal_mci.o)
                                 0x84 (size before relaxing)
 .ex_init_text.lit4
                0x00981f80       0x10 mac_core/patch/AR6320/v3/.output/AR6320/hw.3/lib/lib_maccore_patches.a(ar_wal_tx_dm_patch.o)
                                 0x1c (size before relaxing)
 .lit4          0x00981f90        0x0 mac_core/patch/AR6320/v3/.output/AR6320/hw.3/lib/lib_maccore_patches.a(ar_wal_tx_dm_patch.o)
                                 0x24 (size before relaxing)
 .lit4          0x00981f90       0x2c mac_core/patch/AR6320/v3/.output/AR6320/hw.3/lib/lib_maccore_patches.a(patch_copy_engine.o)
                                 0xd0 (size before relaxing)
 .ex_init_text.lit4
                0x00981fbc       0x24 mac_core/patch/AR6320/v3/.output/AR6320/hw.3/lib/lib_maccore_patches.a(patch_copy_engine.o)
                                 0x38 (size before relaxing)
 .lit4          0x00981fe0        0x4 mac_core/patch/AR6320/v3/.output/AR6320/hw.3/lib/lib_maccore_patches.a(wal_concurrency_patch.o)
                                 0x1c (size before relaxing)
 .ex_init_text.lit4
                0x00981fe4        0xc mac_core/patch/AR6320/v3/.output/AR6320/hw.3/lib/lib_maccore_patches.a(wal_concurrency_patch.o)
                                 0x14 (size before relaxing)
 .lit4          0x00981ff0       0x1c mac_core/patch/AR6320/v3/.output/AR6320/hw.3/lib/lib_maccore_patches.a(ar_wal_tdls_patch.o)
                                 0x98 (size before relaxing)
 .ex_init_text.lit4
                0x0098200c       0x14 mac_core/patch/AR6320/v3/.output/AR6320/hw.3/lib/lib_maccore_patches.a(ar_wal_tdls_patch.o)
                                 0x1c (size before relaxing)
 .lit4          0x00982020       0x24 mac_core/patch/AR6320/v3/.output/AR6320/hw.3/lib/lib_maccore_patches.a(cmnos_timer_patch.o)
                                 0x30 (size before relaxing)
 .ex_init_text.lit4
                0x00982044        0x4 mac_core/patch/AR6320/v3/.output/AR6320/hw.3/lib/lib_maccore_patches.a(cmnos_timer_patch.o)
                                  0x8 (size before relaxing)
 .ex_init_text.lit4
                0x00982048        0xc mac_core/patch/AR6320/v3/.output/AR6320/hw.3/lib/lib_maccore_patches.a(ar_wal_tx_hcm_patch.o)
                                 0x10 (size before relaxing)
 .lit4          0x00982054        0x4 mac_core/patch/AR6320/v3/.output/AR6320/hw.3/lib/lib_maccore_patches.a(ar_wal_tx_hcm_patch.o)
 .lit4          0x00982058        0x8 mac_core/patch/AR6320/v3/.output/AR6320/hw.3/lib/lib_maccore_patches.a(ar_wal_tdls_conn_table_patch.o)
                                 0x88 (size before relaxing)
 .ex_init_text.lit4
                0x00982060       0x20 mac_core/patch/AR6320/v3/.output/AR6320/hw.3/lib/lib_maccore_patches.a(ar_wal_tdls_conn_table_patch.o)
                                 0x24 (size before relaxing)
 .lit4          0x00982080        0x8 mac_core/patch/AR6320/v3/.output/AR6320/hw.3/lib/lib_maccore_patches.a(ar600P_recv_patch.o)
                                 0x54 (size before relaxing)
 .ex_init_text.lit4
                0x00982088        0x8 mac_core/patch/AR6320/v3/.output/AR6320/hw.3/lib/lib_maccore_patches.a(ar600P_recv_patch.o)
                                 0x14 (size before relaxing)
 .ex_init_text.lit4
                0x00982090        0xc mac_core/patch/AR6320/v3/.output/AR6320/hw.3/lib/lib_maccore_patches.a(os_install_wlan_extra_memory_patches.o)
                                 0x1c (size before relaxing)
 .lit4          0x0098209c       0x14 mac_core/patch/AR6320/v3/.output/AR6320/hw.3/lib/lib_maccore_patches.a(patch_athos_main.o)
                                 0x58 (size before relaxing)
 .lit4          0x009820b0       0x20 mac_core/patch/AR6320/v3/.output/AR6320/hw.3/lib/lib_maccore_patches.a(cmnos_misc_patch.o)
                                 0x64 (size before relaxing)
 .lit4          0x009820d0       0x18 mac_core/patch/AR6320/v3/.output/AR6320/hw.3/lib/lib_maccore_patches.a(sha1_patch.o)
                                 0x24 (size before relaxing)
 .ex_init_text.lit4
                0x009820e8        0x8 mac_core/patch/AR6320/v3/.output/AR6320/hw.3/lib/lib_maccore_patches.a(sha1_patch.o)
                                  0xc (size before relaxing)
 .lit4          0x009820f0        0x8 mac_core/patch/AR6320/v3/.output/AR6320/hw.3/lib/lib_maccore_patches.a(patch_hif_sdio.o)
                                 0x14 (size before relaxing)
 .lit4          0x009820f8        0xc mac_core/patch/AR6320/v3/.output/AR6320/hw.3/lib/lib_maccore_patches.a(ar_wal_txbf_patch.o)
                                 0x2c (size before relaxing)
 .ex_init_text.lit4
                0x00982104        0xc mac_core/patch/AR6320/v3/.output/AR6320/hw.3/lib/lib_maccore_patches.a(ar_wal_txbf_patch.o)
                                 0x2c (size before relaxing)
 .lit4          0x00982110       0x10 mac_core/patch/AR6320/v3/.output/AR6320/hw.3/lib/lib_maccore_patches.a(wmi_dbgloghook_patch.o)
                                 0x20 (size before relaxing)
 .lit4          0x00982120       0x2c mac_core/patch/AR6320/v3/.output/AR6320/hw.3/lib/lib_maccore_patches.a(cmnos_allocram_patch.o)
                                 0x4c (size before relaxing)
 .ex_init_text.lit4
                0x0098214c        0xc mac_core/patch/AR6320/v3/.output/AR6320/hw.3/lib/lib_maccore_patches.a(cmnos_allocram_patch.o)
                                 0x10 (size before relaxing)
 .lit4          0x00982158       0x80 mac_core/src/wal/whal/rtt/.output/AR6320/hw.3/lib/whal_rtt.a(whal_rtt.o)
                                0x2dc (size before relaxing)
 .ex_init_text.lit4
                0x009821d8        0x4 mac_core/src/wal/whal/rtt/.output/AR6320/hw.3/lib/whal_rtt.a(whal_rtt.o)
                                 0x10 (size before relaxing)
 .ex_init_text.lit4
                0x009821dc        0x8 halphy/patch/AR6320/v3/.output/AR6320/hw.3/lib/lib_halphy_patches.a(halphy_install_patches.o)
                                 0x24 (size before relaxing)
 .lit4          0x009821e4       0x3c halphy/patch/AR6320/v3/.output/AR6320/hw.3/lib/lib_halphy_patches.a(ar6000_nf_cal_patch.o)
                                0x180 (size before relaxing)
 .lit4          0x00982220       0x50 halphy/patch/AR6320/v3/.output/AR6320/hw.3/lib/lib_halphy_patches.a(ar6000_ani_patch.o)
                                0x140 (size before relaxing)
 .ex_init_text.lit4
                0x00982270       0x10 halphy/patch/AR6320/v3/.output/AR6320/hw.3/lib/lib_halphy_patches.a(ar6000_ani_patch.o)
                                 0x1c (size before relaxing)
 .lit4          0x00982280       0x98 halphy/patch/AR6320/v3/.output/AR6320/hw.3/lib/lib_halphy_patches.a(ar6320_ini_patch.o)
                                0x178 (size before relaxing)
 .ex_init_text.lit4
                0x00982318       0x18 halphy/patch/AR6320/v3/.output/AR6320/hw.3/lib/lib_halphy_patches.a(ar6320_ini_patch.o)
                                 0x24 (size before relaxing)
 .lit4          0x00982330       0x60 halphy/patch/AR6320/v3/.output/AR6320/hw.3/lib/lib_halphy_patches.a(ar6320_tpc_config_patch.o)
                                0x370 (size before relaxing)
 .ex_init_text.lit4
                0x00982390       0x20 halphy/patch/AR6320/v3/.output/AR6320/hw.3/lib/lib_halphy_patches.a(ar6320_tpc_config_patch.o)
                                 0x28 (size before relaxing)
 .lit4          0x009823b0       0xd4 halphy/patch/AR6320/v3/.output/AR6320/hw.3/lib/lib_halphy_patches.a(ar6320_eeprom_patch.o)
                                0x388 (size before relaxing)
 .ex_init_text.lit4
                0x00982484       0x50 halphy/patch/AR6320/v3/.output/AR6320/hw.3/lib/lib_halphy_patches.a(ar6320_eeprom_patch.o)
                                 0x5c (size before relaxing)
 .lit4          0x009824d4       0x48 halphy/patch/AR6320/v3/.output/AR6320/hw.3/lib/lib_halphy_patches.a(ar600P_reset_patch.o)
                                0x254 (size before relaxing)
 .ex_init_text.lit4
                0x0098251c       0x2c halphy/patch/AR6320/v3/.output/AR6320/hw.3/lib/lib_halphy_patches.a(ar600P_reset_patch.o)
                                 0x40 (size before relaxing)
 .lit4          0x00982548       0xd8 halphy/patch/AR6320/v3/.output/AR6320/hw.3/lib/lib_halphy_patches.a(ar6000_paprd_patch.o)
                                0x538 (size before relaxing)
 .ex_init_text.lit4
                0x00982620       0x78 halphy/patch/AR6320/v3/.output/AR6320/hw.3/lib/lib_halphy_patches.a(ar6000_paprd_patch.o)
                                 0x94 (size before relaxing)
 .lit4          0x00982698        0x4 halphy/patch/AR6320/v3/.output/AR6320/hw.3/lib/lib_halphy_patches.a(ar6000_phy_patch.o)
                                 0x1c (size before relaxing)
 .ex_init_text.lit4
                0x0098269c        0x4 halphy/patch/AR6320/v3/.output/AR6320/hw.3/lib/lib_halphy_patches.a(ar6000_phy_patch.o)
                                  0xc (size before relaxing)
 .ex_init_text.lit4
                0x009826a0        0x4 mac_core/src/wal/AR/rtt/.output/AR6320/hw.3/lib/ar_wal_rtt.a(wal_rtt.o)
                                 0x18 (size before relaxing)
 .lit4          0x009826a4       0x1c mac_core/src/wal/AR/rtt/.output/AR6320/hw.3/lib/ar_wal_rtt.a(wal_rtt.o)
                                0x16c (size before relaxing)
 .lit4          0x009826c0       0x28 mac_core/src/wal/AR/nan/.output/AR6320/hw.3/lib/ar_wal_nan.a(wal_nan_mac.o)
                                 0xec (size before relaxing)
 .lit4          0x009826e8        0x0 /cad/tensilica/chips/peregrine/RE-2013.3-linux/peregrine/xtensa-elf/lib/xcc//libgcc.a(_udivdi3.o)
                                 0x44 (size before relaxing)
 .lit4          0x009826e8       0x10 mac_core/src/wal/whal/init/.output/AR6320/hw.3/lib/libwhal_init.a(whal_init.o)
                                 0x18 (size before relaxing)
 .lit4          0x009826f8       0x40 mac_core/apps/utf/AR6320/.output/AR6320/hw.3/lib/libar6320.a(whal_SCPC.o)
                                0x22c (size before relaxing)
 .lit4          0x00982738       0x64 mac_core/apps/utf/AR6004/.output/AR6320/hw.3/lib/libar6004utf.a(dkkernel.o)
                                 0xf4 (size before relaxing)
 .lit4          0x0098279c       0x28 mac_core/apps/utf/AR6004/.output/AR6320/hw.3/lib/libar6004utf.a(event.o)
                                 0x4c (size before relaxing)
 .lit4          0x009827c4       0x40 mac_core/apps/utf/AR6004/.output/AR6320/hw.3/lib/libar6004utf.a(hw.o)
                                 0xe0 (size before relaxing)
 .ex_init_text.lit4
                0x00982804        0xc mac_core/src/misc/extend_alloc/.output/AR6320/hw.3/lib/libextendalloc.a(extend_allocate.o)
                                 0x28 (size before relaxing)
 .lit4          0x00982810       0x14 mac_core/src/misc/extend_alloc/.output/AR6320/hw.3/lib/libextendalloc.a(extend_allocate.o)
                                 0x3c (size before relaxing)
 .ex_init_text.lit4
                0x00982824       0x48 mac_core/src/hostif/htc/.output/AR6320/hw.3/lib/libhtc.a(htc.o)
                                 0x74 (size before relaxing)
 .lit4          0x0098286c       0x28 mac_core/src/hostif/htc/.output/AR6320/hw.3/lib/libhtc.a(htc.o)
                                0x214 (size before relaxing)
 .lit4          0x00982894        0x8 mac_core/src/misc/module_id/.output/AR6320/hw.3/lib/libmodule_id.a(module_id.o)
                                 0x18 (size before relaxing)
 .lit4          0x0098289c        0xc mac_core/src/wal/whal/ini/.output/AR6320/hw.3/lib/libwhalini.a(whalini.o)
                                 0x20 (size before relaxing)
 .ex_init_text.lit4
                0x009828a8        0xc mac_core/src/wal/whal/ini/.output/AR6320/hw.3/lib/libwhalini.a(whalini.o)
                                 0x18 (size before relaxing)
 .lit4          0x009828b4        0xc mac_core/src/utils/sm/.output/AR6320/hw.3/lib/libsm.a(sm.o)
                                 0x6c (size before relaxing)
 .ex_init_text.lit4
                0x009828c0       0x1c mac_core/src/utils/sm/.output/AR6320/hw.3/lib/libsm.a(sm.o)
 .lit4          0x009828dc       0xf8 mac_core/src/wal/AR/coex/.output/AR6320/hw.3/lib/wal_coex.a(wal_coex.o)
                                0xb6c (size before relaxing)
 .ex_init_text.lit4
                0x009829d4       0x50 mac_core/src/wal/AR/coex/.output/AR6320/hw.3/lib/wal_coex.a(wal_coex.o)
                                 0xc0 (size before relaxing)
 .lit4          0x00982a24       0x70 mac_core/src/wal/AR/coex/.output/AR6320/hw.3/lib/wal_coex.a(wal_btcoex.o)
                                0x408 (size before relaxing)
 .ex_init_text.lit4
                0x00982a94       0x28 mac_core/src/wal/AR/coex/.output/AR6320/hw.3/lib/wal_coex.a(wal_btcoex.o)
                                 0x60 (size before relaxing)
 .lit4          0x00982abc       0xa4 mac_core/src/wal/AR/coex/.output/AR6320/hw.3/lib/wal_coex.a(wal_mwscoex.o)
                                0x334 (size before relaxing)
 .ex_init_text.lit4
                0x00982b60       0x1c mac_core/src/wal/AR/coex/.output/AR6320/hw.3/lib/wal_coex.a(wal_mwscoex.o)
                                 0x58 (size before relaxing)
 .lit4          0x00982b7c       0x10 mac_core/src/wal/AR/coex/.output/AR6320/hw.3/lib/wal_coex.a(wal_mwscoex_crc.o)
                                 0x38 (size before relaxing)
 .lit4          0x00982b8c        0xc mac_core/src/wal/AR/coex/.output/AR6320/hw.3/lib/wal_coex.a(qmi_idl_lib.o)
                                 0x5c (size before relaxing)
 .lit4          0x00982b98        0x0 mac_core/src/wal/AR/coex/.output/AR6320/hw.3/lib/wal_coex.a(qmi_idl_accessor.o)
                                  0x4 (size before relaxing)
 .lit4          0x00982b98        0x4 mac_core/src/wal/AR/coex/.output/AR6320/hw.3/lib/wal_coex.a(coexistence_service_v02.o)
 .lit4          0x00982b9c       0x64 mac_core/src/wal/whal/coex/.output/AR6320/hw.3/lib/whal_ar_coex.a(whal_coex.o)
                                0x340 (size before relaxing)
 .ex_init_text.lit4
                0x00982c00        0xc mac_core/src/wal/whal/coex/.output/AR6320/hw.3/lib/whal_ar_coex.a(whal_coex.o)
                                 0x1c (size before relaxing)
 .lit4          0x00982c0c       0xe4 mac_core/src/wal/whal/coex/.output/AR6320/hw.3/lib/whal_ar_coex.a(whal_mci.o)
                                0x64c (size before relaxing)
 .ex_init_text.lit4
                0x00982cf0       0x10 mac_core/src/wal/whal/coex/.output/AR6320/hw.3/lib/whal_ar_coex.a(whal_mci.o)
                                 0x2c (size before relaxing)
 .lit4          0x00982d00       0xb8 mac_core/src/wal/whal/coex/.output/AR6320/hw.3/lib/whal_ar_coex.a(whal_mws.o)
                                0x2a4 (size before relaxing)
 .ex_init_text.lit4
                0x00982db8        0x4 mac_core/src/wal/whal/coex/.output/AR6320/hw.3/lib/whal_ar_coex.a(whal_mws.o)
                                 0x10 (size before relaxing)
 .lit4          0x00982dbc       0x40 mac_core/apps/lib/.output/AR6320/hw.3/lib/libapp.a(efusew.o)
                                0x11c (size before relaxing)
 .lit4          0x00982dfc       0x38 mac_core/apps/lib/.output/AR6320/hw.3/lib/libapp.a(otpstreamw.o)
                                0x120 (size before relaxing)
 *(.gnu.linkonce.lit4.*)
                0x00982e34                _literals_end = ABSOLUTE (.)

.dram0.literal  0x00982e34        0x0
                0x00982e34                _dram0_literal_start = ABSOLUTE (.)
 *(.dram0.literal)
 *(.dram.literal)
                0x00982e34                _dram0_literal_end = ABSOLUTE (.)

.dport0.rodata  0x004144d0        0x0
                0x004144d0                _dport0_rodata_start = ABSOLUTE (.)
 *(.dport0.rodata)
 *(.dport.rodata)
                0x004144d0                _dport0_rodata_end = ABSOLUTE (.)

.dram0.rodata   0x004144d0        0x0
                0x004144d0                _dram0_rodata_start = ABSOLUTE (.)
 *(.dram0.rodata)
 *(.dram.rodata)
                0x004144d0                _dram0_rodata_end = ABSOLUTE (.)

.rodata         0x004144d0     0x2444
                0x004144d0                _rodata_start = ABSOLUTE (.)
 *(.rodata)
 .rodata        0x004144d0       0x18 mac_core/apps/utf/commonUTF/.output/AR6320/hw.3/lib/libcommonutf.a(cmdProcessing.o)
                0x004144d0                NumCALChannels2G
                0x004144d4                NumCALChannels5G
                0x004144d8                NumCALRates
                0x004144dc                NumCALChainMasks
                0x004144e0                NumCALGainIdxes
                0x004144e4                NumCALDACValues
 .rodata        0x004144e8       0x18 mac_core/apps/utf/AR6320/.output/AR6320/hw.3/lib/libar6320.a(whal_tcmd.o)
 .rodata        0x00414500       0xfa mac_core/apps/utf/tcmd_utf/.output/AR6320/hw.3/lib/libtcmdutf.a(tcmd.o)
                0x00414500                _mac_addr_table
 *fill*         0x004145fa        0x6 00
 .rodata        0x00414600       0x52 mac_core/apps/utf/tcmd_utf/.output/AR6320/hw.3/lib/libtcmdutf.a(tcmd_rx.o)
 *fill*         0x00414652        0x6 00
 .rodata        0x00414658       0x13 mac_core/apps/utf/tcmd_utf/.output/AR6320/hw.3/lib/libtcmdutf.a(tcmd_tx.o)
 *fill*         0x0041466b        0x1 00
 .rodata        0x0041466c        0xc mac_core/apps/utf/testScriptIF/.output/AR6320/hw.3/lib/libtestscriptif.a(testscriptIFRegister.o)
 *fill*         0x00414678        0x8 00
 .rodata        0x00414680      0x400 mac_core/apps/utf/wmiHostIF/.output/AR6320/hw.3/lib/libwmihostif.a(legHostIF.o)
 .rodata        0x00414a80        0x8 mac_core/apps/utf/wmiHostIF/.output/AR6320/hw.3/lib/libwmihostif.a(wmi_tcmd.o)
                0x00414a80                up_to_ac
 *fill*         0x00414a88        0x8 00
 .rodata        0x00414a90      0x400 mac_core/src/wal/whal/reset/.output/AR6320/hw.3/lib/ar6000_cal.a(ar6320_rxdc_cal.o)
 .rodata        0x00414e90      0x248 mac_core/src/wal/whal/reset/.output/AR6320/hw.3/lib/ar6000_cal.a(ar6320_iq_cal.o)
 *fill*         0x004150d8        0x8 00
 .rodata        0x004150e0      0x372 mac_core/src/wal/whal/reset/.output/AR6320/hw.3/lib/ar6000_cal.a(ar6320_pef_cal.o)
                0x004151e0                pefIQref
 *fill*         0x00415452        0x2 00
 .rodata        0x00415454       0x40 mac_core/patch/AR6320/v3/.output/AR6320/hw.3/lib/lib_maccore_patches.a(ar_wal_connection_pause_patch.o)
 *fill*         0x00415494        0xc 00
 .rodata        0x004154a0       0xb5 mac_core/patch/AR6320/v3/.output/AR6320/hw.3/lib/lib_maccore_patches.a(ar_wal_phy_dev_patch.o)
                0x004154a0                dump_reg_addr
 *fill*         0x00415555        0x3 00
 .rodata        0x00415558       0x24 mac_core/patch/AR6320/v3/.output/AR6320/hw.3/lib/lib_maccore_patches.a(ar_wal_tx_de_patch.o)
 *fill*         0x0041557c        0x4 00
 .rodata        0x00415580       0x40 mac_core/patch/AR6320/v3/.output/AR6320/hw.3/lib/lib_maccore_patches.a(ar_wal_rx_patch.o)
 .rodata        0x004155c0        0xc mac_core/patch/AR6320/v3/.output/AR6320/hw.3/lib/lib_maccore_patches.a(ar_wal_rx_offload_patch.o)
 *fill*         0x004155cc        0x4 00
 .rodata        0x004155d0        0x6 mac_core/patch/AR6320/v3/.output/AR6320/hw.3/lib/lib_maccore_patches.a(ar_wal_vdev_patch.o)
 *fill*         0x004155d6        0x2 00
 .rodata        0x004155d8       0x10 mac_core/patch/AR6320/v3/.output/AR6320/hw.3/lib/lib_maccore_patches.a(tx_sched_patch.o)
 *fill*         0x004155e8        0x8 00
 .rodata        0x004155f0       0xb8 mac_core/patch/AR6320/v3/.output/AR6320/hw.3/lib/lib_maccore_patches.a(ar_wal_tx_send_patch.o)
 *fill*         0x004156a8        0x8 00
 .rodata        0x004156b0       0x20 mac_core/patch/AR6320/v3/.output/AR6320/hw.3/lib/lib_maccore_patches.a(ar_wal_peer_patch.o)
 .rodata        0x004156d0       0x1e mac_core/patch/AR6320/v3/.output/AR6320/hw.3/lib/lib_maccore_patches.a(wal_pps_patch.o)
 *fill*         0x004156ee        0x2 00
 .rodata        0x004156f0       0x1a mac_core/patch/AR6320/v3/.output/AR6320/hw.3/lib/lib_maccore_patches.a(ar_xmit_wifi_ip01_patch.o)
 *fill*         0x0041570a        0x6 00
 .rodata        0x00415710       0x16 mac_core/patch/AR6320/v3/.output/AR6320/hw.3/lib/lib_maccore_patches.a(patch_pcie.o)
 *fill*         0x00415726        0xa 00
 .rodata        0x00415730       0x10 mac_core/patch/AR6320/v3/.output/AR6320/hw.3/lib/lib_maccore_patches.a(patch_whal_mci.o)
 .rodata        0x00415740        0xe mac_core/patch/AR6320/v3/.output/AR6320/hw.3/lib/lib_maccore_patches.a(patch_copy_engine.o)
 *fill*         0x0041574e        0x2 00
 .rodata        0x00415750        0xc mac_core/patch/AR6320/v3/.output/AR6320/hw.3/lib/lib_maccore_patches.a(ar_wal_tdls_conn_table_patch.o)
 *fill*         0x0041575c        0x4 00
 .rodata        0x00415760       0x28 mac_core/patch/AR6320/v3/.output/AR6320/hw.3/lib/lib_maccore_patches.a(wmi_dbgloghook_patch.o)
                0x00415760                dbglog_dispatch_entries
 *fill*         0x00415788        0x8 00
 .rodata        0x00415790       0x70 mac_core/src/wal/whal/rtt/.output/AR6320/hw.3/lib/whal_rtt.a(whal_rtt.o)
                0x00415790                whal_rtt_api_fn_tbl
                0x004157c8                map_bw_to_num_tones
                0x004157d0                map_bw_to_fft_size
 .rodata        0x00415800       0x50 halphy/patch/AR6320/v3/.output/AR6320/hw.3/lib/lib_halphy_patches.a(ar6000_nf_cal_patch.o)
 .rodata        0x00415850       0x10 halphy/patch/AR6320/v3/.output/AR6320/hw.3/lib/lib_halphy_patches.a(ar6320_ini_patch.o)
 .rodata        0x00415860       0x40 halphy/patch/AR6320/v3/.output/AR6320/hw.3/lib/lib_halphy_patches.a(ar6320_tpc_config_patch.o)
 .rodata        0x004158a0       0x9d halphy/patch/AR6320/v3/.output/AR6320/hw.3/lib/lib_halphy_patches.a(ar6320_eeprom_patch.o)
 *fill*         0x0041593d        0x3 00
 .rodata        0x00415940      0x101 halphy/patch/AR6320/v3/.output/AR6320/hw.3/lib/lib_halphy_patches.a(ar6000_paprd_patch.o)
 *fill*         0x00415a41        0x3 00
 .rodata        0x00415a44       0x3b /cad/tensilica/chips/peregrine/RE-2013.3-linux/peregrine/xtensa-elf/lib/xcc//libgcc.a(lib2funcs.o)
                0x00415a44                __xtensa_trampoline_template
 *fill*         0x00415a7f        0x1 00
 .rodata        0x00415a80        0x8 mac_core/apps/utf/AR6320/.output/AR6320/hw.3/lib/libar6320.a(whal_SCPC.o)
 .rodata        0x00415a88       0x18 mac_core/src/utils/sm/.output/AR6320/hw.3/lib/libsm.a(sm.o)
 .rodata        0x00415aa0        0x2 mac_core/src/wal/AR/coex/.output/AR6320/hw.3/lib/wal_coex.a(wal_coex.o)
 *fill*         0x00415aa2        0xe 00
 .rodata        0x00415ab0       0xdc mac_core/src/wal/AR/coex/.output/AR6320/hw.3/lib/wal_coex.a(wal_mwscoex.o)
 *fill*         0x00415b8c        0x4 00
 .rodata        0x00415b90      0x400 mac_core/src/wal/AR/coex/.output/AR6320/hw.3/lib/wal_coex.a(wal_mwscoex_crc.o)
                0x00415b90                crc16_table
                0x00415d90                crc_16_l_table
 .rodata        0x00415f90      0x37e mac_core/src/wal/AR/coex/.output/AR6320/hw.3/lib/wal_coex.a(coexistence_service_v02.o)
 *fill*         0x0041630e        0x2 00
 .rodata        0x00416310       0x90 mac_core/src/wal/whal/coex/.output/AR6320/hw.3/lib/whal_ar_coex.a(whal_coex.o)
 .rodata        0x004163a0      0x240 mac_core/src/wal/whal/coex/.output/AR6320/hw.3/lib/whal_ar_coex.a(whal_mci.o)
 .rodata        0x004165e0       0xa0 mac_core/src/wal/whal/coex/.output/AR6320/hw.3/lib/whal_ar_coex.a(whal_mws.o)
 *(.rodata.*)
 .rodata.str1.4
                0x00416680       0x8b mac_core/apps/utf/commonUTF/.output/AR6320/hw.3/lib/libcommonutf.a(cmdProcessing.o)
 *fill*         0x0041670b        0x1 00
 .rodata.str1.4
                0x0041670c       0x27 mac_core/apps/utf/commonUTF/.output/AR6320/hw.3/lib/libcommonutf.a(genTxBinCmdTlv.o)
 *fill*         0x00416733        0x1 00
 .rodata.str1.4
                0x00416734      0x1b9 mac_core/apps/utf/wmiHostIF/.output/AR6320/hw.3/lib/libwmihostif.a(legHostIF.o)
                                0x1c1 (size before relaxing)
 *fill*         0x004168ed        0x3 00
 .rodata.str1.4
                0x004168f0       0x12 mac_core/patch/AR6320/v3/.output/AR6320/hw.3/lib/lib_maccore_patches.a(patch_usb.o)
 .rodata.str1.4
                0x00000000       0x14 mac_core/patch/AR6320/v3/.output/AR6320/hw.3/lib/lib_maccore_patches.a(sha1_patch.o)
                                  0x1 (size before relaxing)
 *(.gnu.linkonce.r.*)
 *(.rodata1)
                0x00416902                __XT_EXCEPTION_TABLE__ = ABSOLUTE (.)
 *(.xt_except_table)
 *(.gcc_except_table)
 *(.gnu.linkonce.e.*)
 *(.gnu.version_r)
                0x00416904                . = ALIGN (0x4)
 *fill*         0x00416902        0x2 00
                0x00416904                _bss_table_start = ABSOLUTE (.)
                0x00416904        0x4 LONG 0x416918 _dport0_bss_start
                0x00416908        0x4 LONG 0x416918 _dport0_bss_end
                0x0041690c        0x4 LONG 0x41a7b0 _bss_start
                0x00416910        0x4 LONG 0x42ca40 _bss_end
                0x00416914                _bss_table_end = ABSOLUTE (.)
                0x00416914                _rodata_end = ABSOLUTE (.)

.dport0.data    0x00416914        0x0
                0x00416914                _dport0_data_start = ABSOLUTE (.)
 *(.dport0.data)
 *(.dport.data)
                0x00416914                _dport0_data_end = ABSOLUTE (.)

.dport0.bss     0x00416914        0x4
                0x00416918                . = ALIGN (0x8)
 *fill*         0x00416914        0x4 00
                0x00416918                _dport0_bss_start = ABSOLUTE (.)
 *(.dport0.bss)
                0x00416918                . = ALIGN (0x8)
                0x00416918                _dport0_bss_end = ABSOLUTE (.)

.dram0.data     0x00416918        0x0
                0x00416918                _dram0_data_start = ABSOLUTE (.)
 *(.dram0.data)
 *(.dram.data)
                0x00416918                _dram0_data_end = ABSOLUTE (.)

.data           0x00416920     0x3e90
                0x00416920                _data_start = ABSOLUTE (.)
 *(.data)
 .data          0x00416920        0x0 mac_core/apps/utf/commonUTF/.output/AR6320/hw.3/lib/libcommonutf.a(main.o)
 .data          0x00416920        0x0 mac_core/apps/utf/commonUTF/.output/AR6320/hw.3/lib/libcommonutf.a(utf.o)
 .data          0x00416920        0x0 mac_core/apps/utf/commonUTF/.output/AR6320/hw.3/lib/libcommonutf.a(cmdEvtProcEngine.o)
 .data          0x00416920      0xb70 mac_core/apps/utf/commonUTF/.output/AR6320/hw.3/lib/libcommonutf.a(cmdProcessing.o)
                0x00416c30                Mask2Rate
                0x00416f30                HT40_RateMask
                0x00416f50                Rate2MaskBitNo
                0x00417430                CmdHandlers
 .data          0x00417490      0x6e0 mac_core/apps/utf/commonUTF/.output/AR6320/hw.3/lib/libcommonutf.a(cmdProcessingSM.o)
                0x00417490                Op2StateEvt
                0x004174f0                CmdProcSM
 .data          0x00417b70        0x0 mac_core/apps/utf/commonUTF/.output/AR6320/hw.3/lib/libcommonutf.a(genTxBinCmdTlv.o)
 .data          0x00417b70        0x8 mac_core/apps/utf/commonUTF/.output/AR6320/hw.3/lib/libcommonutf.a(parseBinCmdStream.o)
                0x00417b70                binCmdStreamParser
 .data          0x00417b78        0x0 mac_core/apps/utf/commonUTF/.output/AR6320/hw.3/lib/libcommonutf.a(testUtil.o)
 .data          0x00417b78        0x0 mac_core/apps/utf/commonUTF/.output/AR6320/hw.3/lib/libcommonutf.a(whalExtensionGeneric.o)
 *fill*         0x00417b78        0x8 00
 .data          0x00417b80      0x180 mac_core/apps/utf/commonUTF/.output/AR6320/hw.3/lib/libcommonutf.a(_cmd_calParmBinTemplate.o)
                0x00417b80                _calParm_bin_template
 .data          0x00417d00       0x28 mac_core/apps/utf/commonUTF/.output/AR6320/hw.3/lib/libcommonutf.a(_cmd_nartCmdParmBinTemplate.o)
                0x00417d00                _nartCmdParm_bin_template
 .data          0x00417d28        0x8 mac_core/apps/utf/commonUTF/.output/AR6320/hw.3/lib/libcommonutf.a(_cmd_pmParmBinTemplate.o)
                0x00417d28                _pmParm_bin_template
 .data          0x00417d30       0xe8 mac_core/apps/utf/commonUTF/.output/AR6320/hw.3/lib/libcommonutf.a(_cmd_rxParmBinTemplate.o)
                0x00417d30                _rxParm_bin_template
 *fill*         0x00417e18        0x8 00
 .data          0x00417e20      0x498 mac_core/apps/utf/commonUTF/.output/AR6320/hw.3/lib/libcommonutf.a(_cmd_txParmBinTemplate.o)
                0x00417e20                _txParm_bin_template
 *fill*         0x004182b8        0x8 00
 .data          0x004182c0       0x60 mac_core/apps/utf/commonUTF/.output/AR6320/hw.3/lib/libcommonutf.a(cmdParmsTemplate.o)
                0x004182c0                TestFlowCmd2ParmTemplate
 .data          0x00418320       0x70 mac_core/apps/utf/commonUTF/.output/AR6320/hw.3/lib/libcommonutf.a(_cmd_nartRspParmTxtTemplate.o)
                0x00418320                _nartRspParm_txt_template
 .data          0x00418390       0x38 mac_core/apps/utf/commonUTF/.output/AR6320/hw.3/lib/libcommonutf.a(_cmd_rspGenericParmTxtTemplate.o)
                0x00418390                _rspGenericParm_txt_template
 *fill*         0x004183c8        0x8 00
 .data          0x004183d0      0x364 mac_core/apps/utf/commonUTF/.output/AR6320/hw.3/lib/libcommonutf.a(_cmd_rxStatusParmTxtTemplate.o)
                0x004183d0                _rxStatusParm_txt_template
 *fill*         0x00418734        0xc 00
 .data          0x00418740      0xad4 mac_core/apps/utf/commonUTF/.output/AR6320/hw.3/lib/libcommonutf.a(_cmd_submitreportParmTxtTemplate.o)
                0x00418740                _submitreportParm_txt_template
 *fill*         0x00419214        0xc 00
 .data          0x00419220      0x2bc mac_core/apps/utf/commonUTF/.output/AR6320/hw.3/lib/libcommonutf.a(_cmd_txStatusParmTxtTemplate.o)
                0x00419220                _txStatusParm_txt_template
 .data          0x004194dc        0x0 mac_core/apps/utf/AR6320/.output/AR6320/hw.3/lib/libar6320.a(ar6320Register.o)
 *fill*         0x004194dc        0x4 00
 .data          0x004194e0       0x2c mac_core/apps/utf/AR6320/.output/AR6320/hw.3/lib/libar6320.a(whal_tcmd.o)
 *fill*         0x0041950c        0x4 00
 .data          0x00419510       0x53 mac_core/apps/utf/tcmd_utf/.output/AR6320/hw.3/lib/libtcmdutf.a(tcmd.o)
                0x00419510                g_waltest_ast_config
                0x00419530                SA_ADDR
                0x00419538                DA_ADDR
                0x00419540                BSS_ADDR
                0x00419550                BCAST_ADDR
                0x00419558                WDS_DA_ADDR
 .data          0x00419563        0x0 mac_core/apps/utf/tcmd_utf/.output/AR6320/hw.3/lib/libtcmdutf.a(tcmd_rx.o)
 *fill*         0x00419563        0x1 00
 .data          0x00419564       0x10 mac_core/apps/utf/tcmd_utf/.output/AR6320/hw.3/lib/libtcmdutf.a(tcmd_tx.o)
                0x00419564                g_waltest_tx_pktlen
                0x00419568                g_frag_no
                0x0041956c                g_waltest_tx_amsdu_max_size
 .data          0x00419574        0x0 mac_core/apps/utf/tcmd_utf/.output/AR6320/hw.3/lib/libtcmdutf.a(utfCallback.o)
 .data          0x00419574        0x0 mac_core/apps/utf/tcmd_utf/.output/AR6320/hw.3/lib/libtcmdutf.a(if_split.o)
 .data          0x00419574        0x0 mac_core/apps/utf/tcmd_utf/.output/AR6320/hw.3/lib/libtcmdutf.a(pn.o)
 .data          0x00419574        0x0 mac_core/apps/utf/testScriptIF/.output/AR6320/hw.3/lib/libtestscriptif.a(testscriptIFRegister.o)
 .data          0x00419574        0x0 mac_core/apps/utf/testScriptIF/.output/AR6320/hw.3/lib/libtestscriptif.a(testscriptIF.o)
 .data          0x00419574        0x0 mac_core/apps/utf/wmiHostIF/.output/AR6320/hw.3/lib/libwmihostif.a(legHostIF.o)
 .data          0x00419574        0x4 mac_core/apps/utf/wmiHostIF/.output/AR6320/hw.3/lib/libwmihostif.a(wmi_tcmd.o)
 .data          0x00419578       0x58 mac_core/apps/utf/wmiHostIF/.output/AR6320/hw.3/lib/libwmihostif.a(htt_tgt_hif_svc.o)
                0x00419578                htt_tgt_hif_internal_indir_tbl
                0x00419590                htt_tgt_hif_svc_api_indir_tbl
 .data          0x004195d0       0x58 mac_core/src/wal/whal/reset/.output/AR6320/hw.3/lib/ar6000_cal.a(ar6320_cal.o)
 *fill*         0x00419628        0x8 00
 .data          0x00419630      0x120 mac_core/src/wal/whal/reset/.output/AR6320/hw.3/lib/ar6000_cal.a(ar6320_rxdc_cal.o)
                0x00419710                G_RATIO_BQ1_MAN
                0x00419720                G_RATIO_BQ1_EXP_NEG
                0x00419730                G_RATIO_TIA_MAN
                0x00419740                G_RATIO_TIA_EXP_NEG
 .data          0x00419750      0x430 mac_core/src/wal/whal/reset/.output/AR6320/hw.3/lib/ar6000_cal.a(ar6320_iq_cal.o)
                0x004197e0                ReverseSeq_128
                0x004199e0                sin_table
                0x00419af0                cl_gain_mod_limits
                0x00419b00                cl_dac_val_tab
 .data          0x00419b80       0xe4 mac_core/src/wal/whal/reset/.output/AR6320/hw.3/lib/ar6000_cal.a(ar6320_pef_cal.o)
                0x00419b80                whalPefCalIndirectionTable
                0x00419bb0                pefRefCoef
 .data          0x00419c64        0x0 mac_core/patch/AR6320/v3/.output/AR6320/hw.3/lib/lib_maccore_patches.a(install_patches.o)
 .data          0x00419c64        0x0 mac_core/patch/AR6320/v3/.output/AR6320/hw.3/lib/lib_maccore_patches.a(whal_install_patches.o)
 .data          0x00419c64        0x0 mac_core/patch/AR6320/v3/.output/AR6320/hw.3/lib/lib_maccore_patches.a(wal_install_patches.o)
 .data          0x00419c64        0x0 mac_core/patch/AR6320/v3/.output/AR6320/hw.3/lib/lib_maccore_patches.a(ar_wal_connection_pause_patch.o)
 .data          0x00419c64        0x0 mac_core/patch/AR6320/v3/.output/AR6320/hw.3/lib/lib_maccore_patches.a(ar_wal_phy_dev_patch.o)
 .data          0x00419c64        0x4 mac_core/patch/AR6320/v3/.output/AR6320/hw.3/lib/lib_maccore_patches.a(cmnos_retention_patch.o)
                0x00419c64                mem_deep_slp_en
 .data          0x00419c68        0x0 mac_core/patch/AR6320/v3/.output/AR6320/hw.3/lib/lib_maccore_patches.a(ar_wal_tx_de_patch.o)
 .data          0x00419c68        0x0 mac_core/patch/AR6320/v3/.output/AR6320/hw.3/lib/lib_maccore_patches.a(ar_wal_local_frames_wifi_ip01_patch.o)
 .data          0x00419c68        0x0 mac_core/patch/AR6320/v3/.output/AR6320/hw.3/lib/lib_maccore_patches.a(pool_mgr_patch.o)
 .data          0x00419c68        0xc mac_core/patch/AR6320/v3/.output/AR6320/hw.3/lib/lib_maccore_patches.a(ar_wal_rx_patch.o)
                0x00419c68                g_dbg_burst_vivo_time_period
                0x00419c6c                g_dbg_burst_vivo_thresh
                0x00419c70                g_dbg_local_bufs_min
 .data          0x00419c74        0x0 mac_core/patch/AR6320/v3/.output/AR6320/hw.3/lib/lib_maccore_patches.a(ar_wal_rx_offload_patch.o)
 .data          0x00419c74        0x0 mac_core/patch/AR6320/v3/.output/AR6320/hw.3/lib/lib_maccore_patches.a(ar_wal_rx_common_patch.o)
 .data          0x00419c74        0x8 mac_core/patch/AR6320/v3/.output/AR6320/hw.3/lib/lib_maccore_patches.a(ar_wal_vdev_patch.o)
                0x00419c74                g_sta_kickout_th
                0x00419c78                g_cmn_kickout_th
 .data          0x00419c7c        0x0 mac_core/patch/AR6320/v3/.output/AR6320/hw.3/lib/lib_maccore_patches.a(ar_tx_q_enque_patch.o)
 .data          0x00419c7c       0x14 mac_core/patch/AR6320/v3/.output/AR6320/hw.3/lib/lib_maccore_patches.a(tx_sched_patch.o)
                0x00419c7c                g_dbg_burst_duration
                0x00419c80                g_dbg_delay_ack
                0x00419c84                g_dbg_aggr_timeout
                0x00419c88                g_dbg_aggr_mpdu_limit
                0x00419c8c                g_dbg_aggr_mpdu_len
 .data          0x00419c90       0x30 mac_core/patch/AR6320/v3/.output/AR6320/hw.3/lib/lib_maccore_patches.a(ar_wal_tx_send_patch.o)
                0x00419c90                g_dbg_burstampdutime_auto
                0x00419c94                g_dbg_burst_txoplimit
                0x00419c98                g_dbg_legacy_bursting
                0x00419c9c                g_bb_rx_sounding_save_value
                0x00419ca0                g_tx_ba_size_check_ampdu_size
                0x00419ca4                g_dbg_set_msdu_retry_bit
                0x00419ca8                g_dbg_tbtt_prot_margin
                0x00419cac                g_dbg_burst_water_mark
                0x00419cb0                g_dbg_max_ppdu_airtime_89mcs
                0x00419cb4                g_dbg_max_ppdu_airtime_othermcs
                0x00419cb8                g_dbg_burst_txoplimit_per_bw
 .data          0x00419cc0        0x0 mac_core/patch/AR6320/v3/.output/AR6320/hw.3/lib/lib_maccore_patches.a(ar_wal_chain_mgmt_patch.o)
 .data          0x00419cc0        0x0 mac_core/patch/AR6320/v3/.output/AR6320/hw.3/lib/lib_maccore_patches.a(ar_wal_peer_patch.o)
 .data          0x00419cc0        0x0 mac_core/patch/AR6320/v3/.output/AR6320/hw.3/lib/lib_maccore_patches.a(ar600P_txbf_patch.o)
 .data          0x00419cc0        0x0 mac_core/patch/AR6320/v3/.output/AR6320/hw.3/lib/lib_maccore_patches.a(wal_pps_patch.o)
 .data          0x00419cc0        0xc mac_core/patch/AR6320/v3/.output/AR6320/hw.3/lib/lib_maccore_patches.a(ar_xmit_wifi_ip01_patch.o)
 .data          0x00419ccc        0x4 mac_core/patch/AR6320/v3/.output/AR6320/hw.3/lib/lib_maccore_patches.a(ar_wal_channel_change_patch.o)
                0x00419ccc                g_dbg_reset_enable
 .data          0x00419cd0        0x6 mac_core/patch/AR6320/v3/.output/AR6320/hw.3/lib/lib_maccore_patches.a(ar_wal_rc_patch.o)
                0x00419cd0                g_dbg_legacy_rate_retries
                0x00419cd4                g_rc_rate_thr_amsdu_low
                0x00419cd5                g_rc_rate_thr_no_amsdu
 .data          0x00419cd6        0x0 mac_core/patch/AR6320/v3/.output/AR6320/hw.3/lib/lib_maccore_patches.a(wal_rtt_patch.o)
 .data          0x00419cd6        0x0 mac_core/patch/AR6320/v3/.output/AR6320/hw.3/lib/lib_maccore_patches.a(whal_rtt_patch.o)
 *fill*         0x00419cd6        0x2 00
 .data          0x00419cd8        0x8 mac_core/patch/AR6320/v3/.output/AR6320/hw.3/lib/lib_maccore_patches.a(dbglog_patch.o)
                0x00419cd8                g_dbg_m_id_max
                0x00419cdc                wlanfw_diag_version
 .data          0x00419ce0        0x0 mac_core/patch/AR6320/v3/.output/AR6320/hw.3/lib/lib_maccore_patches.a(ar600p_beacon_patch.o)
 .data          0x00419ce0        0x4 mac_core/patch/AR6320/v3/.output/AR6320/hw.3/lib/lib_maccore_patches.a(ar6000_power_patch.o)
                0x00419ce0                g_dsrMacAwakeEnable
 .data          0x00419ce4        0x0 mac_core/patch/AR6320/v3/.output/AR6320/hw.3/lib/lib_maccore_patches.a(ar6000_interrupt_patch.o)
 .data          0x00419ce4        0x4 mac_core/patch/AR6320/v3/.output/AR6320/hw.3/lib/lib_maccore_patches.a(cmnos_intrinf_patch.o)
                0x00419ce4                g_pKernelStack
 .data          0x00419ce8        0x0 mac_core/patch/AR6320/v3/.output/AR6320/hw.3/lib/lib_maccore_patches.a(patch_pcie.o)
 *fill*         0x00419ce8        0x8 00
 .data          0x00419cf0       0x38 mac_core/patch/AR6320/v3/.output/AR6320/hw.3/lib/lib_maccore_patches.a(patch_usb.o)
                0x00419cf0                gpio_usb_vbus_intr
 .data          0x00419d28        0x0 mac_core/patch/AR6320/v3/.output/AR6320/hw.3/lib/lib_maccore_patches.a(wal_beacon_patch.o)
 .data          0x00419d28        0x0 mac_core/patch/AR6320/v3/.output/AR6320/hw.3/lib/lib_maccore_patches.a(wal_swba_patch.o)
 .data          0x00419d28        0xc mac_core/patch/AR6320/v3/.output/AR6320/hw.3/lib/lib_maccore_patches.a(ar600P_retention_patch.o)
                0x00419d28                g_dbg_reg_wr_track_enabled
                0x00419d2c                dyn_bw
                0x00419d30                g_dbg_reg_wr_track_max
 .data          0x00419d34        0x0 mac_core/patch/AR6320/v3/.output/AR6320/hw.3/lib/lib_maccore_patches.a(ar_wal_rmc_patch.o)
 .data          0x00419d34        0x0 mac_core/patch/AR6320/v3/.output/AR6320/hw.3/lib/lib_maccore_patches.a(whal_rgc_patch.o)
 .data          0x00419d34        0xc mac_core/patch/AR6320/v3/.output/AR6320/hw.3/lib/lib_maccore_patches.a(patch_hif_ce.o)
                0x00419d34                ce_large_pkt_size
                0x00419d38                g_dbg_ce_infinite_tries
                0x00419d3c                patch_HIF_CE_max_push_attempts
 .data          0x00419d40        0x0 mac_core/patch/AR6320/v3/.output/AR6320/hw.3/lib/lib_maccore_patches.a(patch_whal_coex.o)
 .data          0x00419d40        0x4 mac_core/patch/AR6320/v3/.output/AR6320/hw.3/lib/lib_maccore_patches.a(patch_whal_mws.o)
 .data          0x00419d44        0x0 mac_core/patch/AR6320/v3/.output/AR6320/hw.3/lib/lib_maccore_patches.a(patch_whal_mci.o)
 .data          0x00419d44        0x0 mac_core/patch/AR6320/v3/.output/AR6320/hw.3/lib/lib_maccore_patches.a(ar_wal_tx_dm_patch.o)
 .data          0x00419d44       0x14 mac_core/patch/AR6320/v3/.output/AR6320/hw.3/lib/lib_maccore_patches.a(patch_copy_engine.o)
                0x00419d44                patch_CE_per_engine_iteration_limit
                0x00419d48                patch_CE_per_engine_max_reap
 .data          0x00419d58        0x0 mac_core/patch/AR6320/v3/.output/AR6320/hw.3/lib/lib_maccore_patches.a(wal_concurrency_patch.o)
 .data          0x00419d58        0x0 mac_core/patch/AR6320/v3/.output/AR6320/hw.3/lib/lib_maccore_patches.a(ar_wal_tdls_patch.o)
 .data          0x00419d58        0x0 mac_core/patch/AR6320/v3/.output/AR6320/hw.3/lib/lib_maccore_patches.a(cmnos_timer_patch.o)
 .data          0x00419d58        0x0 mac_core/patch/AR6320/v3/.output/AR6320/hw.3/lib/lib_maccore_patches.a(ar_wal_tx_hcm_patch.o)
 .data          0x00419d58        0x0 mac_core/patch/AR6320/v3/.output/AR6320/hw.3/lib/lib_maccore_patches.a(ar_wal_tdls_conn_table_patch.o)
 .data          0x00419d58        0x0 mac_core/patch/AR6320/v3/.output/AR6320/hw.3/lib/lib_maccore_patches.a(ar600P_recv_patch.o)
 *fill*         0x00419d58        0x8 00
 .data          0x00419d60       0x30 mac_core/patch/AR6320/v3/.output/AR6320/hw.3/lib/lib_maccore_patches.a(os_install_wlan_extra_memory_patches.o)
                0x00419d60                g_patch_extra_dram_num
                0x00419d70                g_patch_extra_dram_arenas
 .data          0x00419d90        0x0 mac_core/patch/AR6320/v3/.output/AR6320/hw.3/lib/lib_maccore_patches.a(patch_athos_main.o)
 .data          0x00419d90        0x0 mac_core/patch/AR6320/v3/.output/AR6320/hw.3/lib/lib_maccore_patches.a(cmnos_misc_patch.o)
 .data          0x00419d90        0x0 mac_core/patch/AR6320/v3/.output/AR6320/hw.3/lib/lib_maccore_patches.a(sha1_patch.o)
 .data          0x00419d90        0x0 mac_core/patch/AR6320/v3/.output/AR6320/hw.3/lib/lib_maccore_patches.a(patch_hif_sdio.o)
 .data          0x00419d90        0x0 mac_core/patch/AR6320/v3/.output/AR6320/hw.3/lib/lib_maccore_patches.a(ar_wal_txbf_patch.o)
 .data          0x00419d90       0x14 mac_core/patch/AR6320/v3/.output/AR6320/hw.3/lib/lib_maccore_patches.a(wmi_dbgloghook_patch.o)
                0x00419d90                dbglog_dispatch_tbl
 .data          0x00419da4        0x0 mac_core/patch/AR6320/v3/.output/AR6320/hw.3/lib/lib_maccore_patches.a(cmnos_allocram_patch.o)
 *fill*         0x00419da4        0xc 00
 .data          0x00419db0      0x110 mac_core/src/wal/whal/rtt/.output/AR6320/hw.3/lib/whal_rtt.a(whal_rtt.o)
                0x00419db0                whal_rtt_internal_fn_tbl
                0x00419dc8                chain_info_tbl_addr
                0x00419dd0                chain_info_tbl_data
                0x00419de0                preamble_duration
                0x00419df0                legacy_tm_ack_rx_time
                0x00419e10                ACK_TIME_MCS_0
                0x00419e18                pre_bw_to_bw
                0x00419e20                ACK_TIME_MCS_1
                0x00419e28                ACK_TIME_MCS_3
                0x00419e30                rtt_tx_delay_wb294i
                0x00419e40                rtt_rx_delay_wb294i
                0x00419e60                rtt_rx_chain_0x1_5G_adjust
                0x00419e70                rtt_rx_chain_0x1_2G_adjust
                0x00419e80                rtt_rx_chain_0x2_5G_adjust
                0x00419e90                rtt_rx_chain_0x2_2G_adjust
                0x00419ea0                rtt_rx_spur_enable_adjust
                0x00419eb0                packet_length
 .data          0x00419ec0        0x0 halphy/patch/AR6320/v3/.output/AR6320/hw.3/lib/lib_halphy_patches.a(halphy_install_patches.o)
 .data          0x00419ec0        0x0 halphy/patch/AR6320/v3/.output/AR6320/hw.3/lib/lib_halphy_patches.a(ar6000_nf_cal_patch.o)
 .data          0x00419ec0      0x108 halphy/patch/AR6320/v3/.output/AR6320/hw.3/lib/lib_halphy_patches.a(ar6000_ani_patch.o)
                0x00419ec0                allow_ani
                0x00419ed0                firstep_table
                0x00419ef0                cycpwr_thr1_table
                0x00419f00                ofdm_level_table
                0x00419f80                cck_level_table
 .data          0x00419fc8        0x0 halphy/patch/AR6320/v3/.output/AR6320/hw.3/lib/lib_halphy_patches.a(ar6320_ini_patch.o)
 *fill*         0x00419fc8        0x8 00
 .data          0x00419fd0       0x7f halphy/patch/AR6320/v3/.output/AR6320/hw.3/lib/lib_halphy_patches.a(ar6320_tpc_config_patch.o)
                0x00419fd0                attenSettings
                0x00419ff0                attenSteps
                0x0041a010                atten_table_2g_chain0
                0x0041a020                atten_table_2g_chain1
                0x0041a030                atten_table_5g_chain0
                0x0041a040                atten_table_5g_chain1
 *fill*         0x0041a04f        0x1 00
 .data          0x0041a050       0x31 halphy/patch/AR6320/v3/.output/AR6320/hw.3/lib/lib_halphy_patches.a(ar6320_eeprom_patch.o)
                0x0041a050                PRI20_FIR2_ATTN
                0x0041a060                vmodeGpioSelect
 *fill*         0x0041a081        0xf 00
 .data          0x0041a090       0x5e halphy/patch/AR6320/v3/.output/AR6320/hw.3/lib/lib_halphy_patches.a(ar600P_reset_patch.o)
                0x0041a094                g_dbg_wait_reg_loop_count
                0x0041a098                g_dbg_wait_reg_mode
                0x0041a0a0                patch_rfModeArray
                0x0041a0e0                patch_bandArray
 *fill*         0x0041a0ee        0x2 00
 .data          0x0041a0f0        0x4 halphy/patch/AR6320/v3/.output/AR6320/hw.3/lib/lib_halphy_patches.a(ar6000_paprd_patch.o)
                0x0041a0f0                g_forced_dac_gain
                0x0041a0f2                dynamicsqLimit
                0x0041a0f3                first_DPD_call
 .data          0x0041a0f4        0x0 halphy/patch/AR6320/v3/.output/AR6320/hw.3/lib/lib_halphy_patches.a(ar6000_phy_patch.o)
 *fill*         0x0041a0f4        0xc 00
 .data          0x0041a100       0x78 mac_core/src/wal/AR/rtt/.output/AR6320/hw.3/lib/ar_wal_rtt.a(wal_rtt.o)
                0x0041a100                wal_rtt_int_fn_tbl
                0x0041a114                wal_rtt_api_fn_tbl
                0x0041a154                rtt_bw_wmi_bw
                0x0041a160                rtt_chain_to_no
                0x0041a170                bw_size
 .data          0x0041a178       0x88 mac_core/src/wal/AR/nan/.output/AR6320/hw.3/lib/ar_wal_nan.a(wal_nan_mac.o)
                0x0041a178                g_wal_nan_mac_ctxt
                0x0041a1c4                g_dbg_nan_mac_dwcm_en
                0x0041a1c8                _wal_nan_mac_fn
 .data          0x0041a200        0x0 /cad/tensilica/chips/peregrine/RE-2013.3-linux/peregrine/xtensa-elf/lib/xcc//libgcc.a(_divsi3.o)
 .data          0x0041a200        0x0 /cad/tensilica/chips/peregrine/RE-2013.3-linux/peregrine/xtensa-elf/lib/xcc//libgcc.a(_modsi3.o)
 .data          0x0041a200        0x0 /cad/tensilica/chips/peregrine/RE-2013.3-linux/peregrine/xtensa-elf/lib/xcc//libgcc.a(_udivsi3.o)
 .data          0x0041a200        0x0 /cad/tensilica/chips/peregrine/RE-2013.3-linux/peregrine/xtensa-elf/lib/xcc//libgcc.a(_umodsi3.o)
 .data          0x0041a200        0x0 /cad/tensilica/chips/peregrine/RE-2013.3-linux/peregrine/xtensa-elf/lib/xcc//libgcc.a(_ashrdi3.o)
 .data          0x0041a200        0x0 /cad/tensilica/chips/peregrine/RE-2013.3-linux/peregrine/xtensa-elf/lib/xcc//libgcc.a(_lshrdi3.o)
 .data          0x0041a200        0x0 /cad/tensilica/chips/peregrine/RE-2013.3-linux/peregrine/xtensa-elf/lib/xcc//libgcc.a(_muldi3.o)
 .data          0x0041a200        0x0 /cad/tensilica/chips/peregrine/RE-2013.3-linux/peregrine/xtensa-elf/lib/xcc//libgcc.a(_udivdi3.o)
 .data          0x0041a200        0x0 /cad/tensilica/chips/peregrine/RE-2013.3-linux/peregrine/xtensa-elf/lib/xcc//libgcc.a(lib2funcs.o)
 .data          0x0041a200        0x0 mac_core/src/wal/whal/init/.output/AR6320/hw.3/lib/libwhal_init.a(whal_init.o)
 .data          0x0041a200       0x30 mac_core/apps/utf/AR6320/.output/AR6320/hw.3/lib/libar6320.a(whal_SCPC.o)
                0x0041a200                Table
 .data          0x0041a230        0x0 mac_core/apps/utf/AR6004/.output/AR6320/hw.3/lib/libar6004utf.a(dkkernel.o)
 .data          0x0041a230        0x0 mac_core/apps/utf/AR6004/.output/AR6320/hw.3/lib/libar6004utf.a(event.o)
 .data          0x0041a230        0x0 mac_core/apps/utf/AR6004/.output/AR6320/hw.3/lib/libar6004utf.a(hw.o)
 .data          0x0041a230        0x0 mac_core/apps/utf/AR6004/.output/AR6320/hw.3/lib/libar6004utf.a(main.o)
 .data          0x0041a230       0x10 mac_core/src/misc/extend_alloc/.output/AR6320/hw.3/lib/libextendalloc.a(extend_allocate.o)
                0x0041a230                ExtendAllocateApis
 .data          0x0041a240       0x70 mac_core/src/hostif/htc/.output/AR6320/hw.3/lib/libhtc.a(htc.o)
                0x0041a240                g_HTCPipeIndirectionTable
 .data          0x0041a2b0        0xc mac_core/src/misc/module_id/.output/AR6320/hw.3/lib/libmodule_id.a(module_id.o)
                0x0041a2b0                module_id_api
                0x0041a2b4                module_id_fns
 .data          0x0041a2bc        0x0 mac_core/src/wal/whal/ini/.output/AR6320/hw.3/lib/libwhalini.a(whalini.o)
 .data          0x0041a2bc        0x0 mac_core/src/utils/sm/.output/AR6320/hw.3/lib/libsm.a(sm.o)
 *fill*         0x0041a2bc        0x4 00
 .data          0x0041a2c0      0x22c mac_core/src/wal/AR/coex/.output/AR6320/hw.3/lib/wal_coex.a(wal_coex.o)
                0x0041a2c0                walCoexApiTable
                0x0041a4d8                CoexConfigMgr2Chain
                0x0041a4dc                CoexConfigMgr1Chain
                0x0041a4e0                CoexConfigMgr3Chain
 .data          0x0041a4ec      0x148 mac_core/src/wal/AR/coex/.output/AR6320/hw.3/lib/wal_coex.a(wal_btcoex.o)
 *fill*         0x0041a634        0xc 00
 .data          0x0041a640      0x105 mac_core/src/wal/AR/coex/.output/AR6320/hw.3/lib/wal_coex.a(wal_mwscoex.o)
                0x0041a728                pn
                0x0041a730                tddcfgparam
 .data          0x0041a745        0x0 mac_core/src/wal/AR/coex/.output/AR6320/hw.3/lib/wal_coex.a(wal_mwscoex_crc.o)
 .data          0x0041a745        0x0 mac_core/src/wal/AR/coex/.output/AR6320/hw.3/lib/wal_coex.a(qmi_idl_lib.o)
 .data          0x0041a745        0x0 mac_core/src/wal/AR/coex/.output/AR6320/hw.3/lib/wal_coex.a(qmi_idl_accessor.o)
 *fill*         0x0041a745        0x3 00
 .data          0x0041a748       0x38 mac_core/src/wal/AR/coex/.output/AR6320/hw.3/lib/wal_coex.a(coexistence_service_v02.o)
                0x0041a748                coex_qmi_idl_service_object_v02
 .data          0x0041a780        0xc mac_core/src/wal/whal/coex/.output/AR6320/hw.3/lib/whal_ar_coex.a(whal_coex.o)
                0x0041a780                whalCoexModuleApiTable
 .data          0x0041a78c        0x0 mac_core/src/wal/whal/coex/.output/AR6320/hw.3/lib/whal_ar_coex.a(whal_mci.o)
 .data          0x0041a78c        0x0 mac_core/src/wal/whal/coex/.output/AR6320/hw.3/lib/whal_ar_coex.a(whal_mws.o)
 .data          0x0041a78c        0x0 mac_core/apps/lib/.output/AR6320/hw.3/lib/libapp.a(efusew.o)
 .data          0x0041a78c        0x0 mac_core/apps/lib/.output/AR6320/hw.3/lib/libapp.a(otpstreamw.o)
 *(.data.*)
 *(.gnu.linkonce.d.*)
 *(.data1)
 *(.sdata)
 *(.sdata.*)
 *(.gnu.linkonce.s.*)
 *(.sdata2)
 *(.sdata2.*)
 *(.gnu.linkonce.s2.*)
 *(.jcr)
 *(.eh_frame)
 .eh_frame      0x0041a78c       0x24 /cad/tensilica/chips/peregrine/RE-2013.3-linux/peregrine/xtensa-elf/lib/xcc//libgcc.a(_udivdi3.o)
 *crtbegin.o(.ctors)
 *(EXCLUDE_FILE(*crtend.o) .ctors)
 *(SORT(.ctors.*))
 *(.ctors)
 *crtbegin.o(.dtors)
 *(EXCLUDE_FILE(*crtend.o) .dtors)
 *(SORT(.dtors.*))
 *(.dtors)
                0x0041a7b0                __XT_EXCEPTION_DESCS__ = ABSOLUTE (.)
 *(.xt_except_desc)
 *(.gnu.linkonce.h.*)
                0x0041a7b0                __XT_EXCEPTION_DESCS_END__ = ABSOLUTE (.)
 *(.xt_except_desc_end)
 *(.dynamic)
 *(.gnu.version_d)
                0x0041a7b0                _data_end = ABSOLUTE (.)

.bss            0x0041a7b0    0x12290
                0x0041a7b0                . = ALIGN (0x8)
                0x0041a7b0                _bss_start = ABSOLUTE (.)
 *(.dynsbss)
 *(.sbss)
 *(.sbss.*)
 *(.gnu.linkonce.sb.*)
 *(.scommon)
 *(.sbss2)
 *(.sbss2.*)
 *(.gnu.linkonce.sb2.*)
 *(.dynbss)
 *(.bss)
 .bss           0x0041a7b0        0x0 mac_core/apps/utf/commonUTF/.output/AR6320/hw.3/lib/libcommonutf.a(main.o)
 .bss           0x0041a7b0       0x1c mac_core/apps/utf/commonUTF/.output/AR6320/hw.3/lib/libcommonutf.a(utf.o)
                0x0041a7b0                HostIF
                0x0041a7bc                ValuesOfInterest
                0x0041a7c4                ChipFunc
 .bss           0x0041a7cc       0x7c mac_core/apps/utf/commonUTF/.output/AR6320/hw.3/lib/libcommonutf.a(cmdEvtProcEngine.o)
                0x0041a7cc                CmdStateInfo
 .bss           0x0041a848      0xba0 mac_core/apps/utf/commonUTF/.output/AR6320/hw.3/lib/libcommonutf.a(cmdProcessing.o)
                0x0041a848                rx_tcmdParms
                0x0041accc                hostTlvCmdProcess
                0x0041b2e0                tx_tcmdParms
 .bss           0x0041b3e8        0x0 mac_core/apps/utf/commonUTF/.output/AR6320/hw.3/lib/libcommonutf.a(cmdProcessingSM.o)
 .bss           0x0041b3e8      0x8bc mac_core/apps/utf/commonUTF/.output/AR6320/hw.3/lib/libcommonutf.a(genTxBinCmdTlv.o)
                0x0041bc98                parmTemplate
 .bss           0x0041bca4     0x1014 mac_core/apps/utf/commonUTF/.output/AR6320/hw.3/lib/libcommonutf.a(parseBinCmdStream.o)
                0x0041bca4                CmdStreamInfo
 .bss           0x0041ccb8        0x0 mac_core/apps/utf/commonUTF/.output/AR6320/hw.3/lib/libcommonutf.a(testUtil.o)
 .bss           0x0041ccb8      0x60c mac_core/apps/utf/commonUTF/.output/AR6320/hw.3/lib/libcommonutf.a(whalExtensionGeneric.o)
                0x0041ccb8                _PostWhalResetSettings
 .bss           0x0041d2c4        0x0 mac_core/apps/utf/commonUTF/.output/AR6320/hw.3/lib/libcommonutf.a(_cmd_calParmBinTemplate.o)
 .bss           0x0041d2c4        0x0 mac_core/apps/utf/commonUTF/.output/AR6320/hw.3/lib/libcommonutf.a(_cmd_nartCmdParmBinTemplate.o)
 .bss           0x0041d2c4        0x0 mac_core/apps/utf/commonUTF/.output/AR6320/hw.3/lib/libcommonutf.a(_cmd_pmParmBinTemplate.o)
 .bss           0x0041d2c4        0x0 mac_core/apps/utf/commonUTF/.output/AR6320/hw.3/lib/libcommonutf.a(_cmd_rxParmBinTemplate.o)
 .bss           0x0041d2c4        0x0 mac_core/apps/utf/commonUTF/.output/AR6320/hw.3/lib/libcommonutf.a(_cmd_txParmBinTemplate.o)
 .bss           0x0041d2c4        0x0 mac_core/apps/utf/commonUTF/.output/AR6320/hw.3/lib/libcommonutf.a(cmdParmsTemplate.o)
 .bss           0x0041d2c4        0x0 mac_core/apps/utf/commonUTF/.output/AR6320/hw.3/lib/libcommonutf.a(_cmd_nartRspParmTxtTemplate.o)
 .bss           0x0041d2c4        0x0 mac_core/apps/utf/commonUTF/.output/AR6320/hw.3/lib/libcommonutf.a(_cmd_rspGenericParmTxtTemplate.o)
 .bss           0x0041d2c4        0x0 mac_core/apps/utf/commonUTF/.output/AR6320/hw.3/lib/libcommonutf.a(_cmd_rxStatusParmTxtTemplate.o)
 .bss           0x0041d2c4        0x0 mac_core/apps/utf/commonUTF/.output/AR6320/hw.3/lib/libcommonutf.a(_cmd_submitreportParmTxtTemplate.o)
 .bss           0x0041d2c4        0x0 mac_core/apps/utf/commonUTF/.output/AR6320/hw.3/lib/libcommonutf.a(_cmd_txStatusParmTxtTemplate.o)
 .bss           0x0041d2c4        0x0 mac_core/apps/utf/AR6320/.output/AR6320/hw.3/lib/libar6320.a(ar6320Register.o)
 *fill*         0x0041d2c4        0xc 00
 .bss           0x0041d2d0       0xa8 mac_core/apps/utf/AR6320/.output/AR6320/hw.3/lib/libar6320.a(whal_tcmd.o)
                0x0041d300                single_tone_backup
 *fill*         0x0041d378        0x8 00
 .bss           0x0041d380      0xeb4 mac_core/apps/utf/tcmd_utf/.output/AR6320/hw.3/lib/libtcmdutf.a(tcmd.o)
                0x0041d380                isSGI
                0x0041d384                rom_ar6000SetupPpduCommon
                0x0041d388                tcmd_state
                0x0041d3bc                utf_dev
                0x0041d3e4                SCPCIsDone
                0x0041d3ec                tcmdRxStat
                0x0041d878                tcmdTxStat
                0x0041d890                stop_tx
                0x0041d898                tcmd_adjusted_nf
                0x0041d8a0                MY_MAC_ADDR
 *fill*         0x0041e234        0xc 00
 .bss           0x0041e240     0x1f40 mac_core/apps/utf/tcmd_utf/.output/AR6320/hw.3/lib/libtcmdutf.a(tcmd_rx.o)
                0x0041e240                g_waltest_rx_ctxt
                0x0041e354                g_rate_index
                0x0041e35c                g_waltest_rx_ds
                0x0041e3f0                g_rx_buf_indx
                0x0041e400                waltest_rx_htt_bufs
                0x0041e410                waltest_rx_htt_ring
                0x0041e420                waltest_ath_bufs
                0x0041e4b0                waltest_rxbufs
 .bss           0x00420180     0x2a94 mac_core/apps/utf/tcmd_utf/.output/AR6320/hw.3/lib/libtcmdutf.a(tcmd_tx.o)
                0x00420180                g_waltest_ctxt
                0x004201cc                g_encap_cfg
                0x00420204                g_waltest_tx_80211_frag
                0x00420208                g_tcmd_numpkts_in_queue
                0x0042020c                ppdu_end
                0x0042028c                ppdu_start
                0x0042036c                g_tcmd_flag_queue_more_pkts
                0x00420370                pkt_buffer_seg1
                0x00420380                pkt_buffer_trailer
                0x00420390                pkt_buffer_seg0
                0x00422390                fdp_buffer
                0x00422b90                fdp_comp_msgs
 *fill*         0x00422c14        0xc 00
 .bss           0x00422c20       0x40 mac_core/apps/utf/tcmd_utf/.output/AR6320/hw.3/lib/libtcmdutf.a(utfCallback.o)
                0x00422c20                TxCallbackFunc
                0x00422c30                RxCallbackFuncs
 .bss           0x00422c60        0x0 mac_core/apps/utf/tcmd_utf/.output/AR6320/hw.3/lib/libtcmdutf.a(if_split.o)
 .bss           0x00422c60        0x0 mac_core/apps/utf/tcmd_utf/.output/AR6320/hw.3/lib/libtcmdutf.a(pn.o)
 .bss           0x00422c60        0x0 mac_core/apps/utf/testScriptIF/.output/AR6320/hw.3/lib/libtestscriptif.a(testscriptIFRegister.o)
 .bss           0x00422c60        0x0 mac_core/apps/utf/testScriptIF/.output/AR6320/hw.3/lib/libtestscriptif.a(testscriptIF.o)
 .bss           0x00422c60     0x1334 mac_core/apps/utf/wmiHostIF/.output/AR6320/hw.3/lib/libwmihostif.a(legHostIF.o)
                0x00422c60                dkThreadArray
                0x00422c80                dkThread
                0x00422c84                currentDevIndex
                0x00422c88                replyBuf
                0x00422c90                tcmdLinkTRx
                0x004233d4                tcmdTxStatusReport
                0x004233d8                sleep_enable
                0x004233dc                sent_bytes
                0x004233e0                received_bytes
                0x004233e4                numThreads
                0x004233f0                otp_test_data
                0x004237f0                txRssiEvmSamples
                0x00423a60                rxRssiEvmSamplesGood
                0x00423cd0                rxRssiEvmSamplesBad
                0x00423f40                statPool
 *fill*         0x00423f94        0xc 00
 .bss           0x00423fa0      0xc50 mac_core/apps/utf/wmiHostIF/.output/AR6320/hw.3/lib/libwmihostif.a(wmi_tcmd.o)
                0x00423fe4                swapEnable
                0x004243c0                host_app_space
                0x004243d0                dataPayload
                0x00424bd0                g_ac_to_htc_ep
 .bss           0x00424bf0       0xdc mac_core/apps/utf/wmiHostIF/.output/AR6320/hw.3/lib/libwmihostif.a(htt_tgt_hif_svc.o)
                0x00424bf0                g_htt_tgt_hif_svc_state_ptr
                0x00424bf4                g_htt_tgt_hif_svc_state
 *fill*         0x00424ccc        0x4 00
 .bss           0x00424cd0       0x44 mac_core/src/wal/whal/reset/.output/AR6320/hw.3/lib/ar6000_cal.a(ar6320_cal.o)
                0x00424cd4                num_rx_chains
                0x00424cd8                active_to_receive_backup
                0x00424cdc                is_half_rate
                0x00424ce0                is_quarter_rate
                0x00424ce4                cur_tbl_idx
                0x00424ce5                num_tx_chains
                0x00424ce8                hw_tbl_freq
                0x00424cf0                postNfCalTimer
                0x00424d10                cur_tbl_freq
 *fill*         0x00424d14        0xc 00
 .bss           0x00424d20      0x580 mac_core/src/wal/whal/reset/.output/AR6320/hw.3/lib/ar6000_cal.a(ar6320_rxdc_cal.o)
                0x00424d30                G_RATIO_LNA_MAN
                0x00424d50                G_RATIO_LNA_EXP_NEG
                0x00424d70                G_RATIO_MIX_MAN
                0x00424d80                G_RATIO_MIX_EXP_NEG
                0x00424d90                odac_meas
                0x00425190                meas
                0x004251e0                ref_K
                0x00425250                wl_top_rxtx2_caltx
                0x00425258                wl_bb_bb8_caltx
                0x00425260                wl_bb_bb9_caltx
                0x00425268                wl_bb_bb10_caltx
                0x00425270                wl_top_rxtx1_caltx
                0x00425278                rffe_5g_en_calpa
                0x00425280                rffe_5g_1_wltx5_calpa
                0x00425288                rffe_5g_1_wlda5_calpa
                0x00425290                rffe_2grx_en_calpa
                0x00425298                rffe_2gtx_en_calpa
 .bss           0x004252a0     0x1780 mac_core/src/wal/whal/reset/.output/AR6320/hw.3/lib/ar6000_cal.a(ar6320_iq_cal.o)
                0x004252a0                skip_iq_comp_for_cl_cal
                0x004252a4                recal
                0x004252a8                pWhalIQCalIndirectionTable
                0x004252b0                cur_gainmap
                0x004252b4                recal_with_diff_init_gain
                0x004252b8                tx_tone_gain
                0x004252bc                rx_used_gain
                0x004252c0                cur_clmap
                0x004252d0                iq_corr_res_mag
                0x004257d0                iq_corr_coef_all
                0x00425bd0                iq_corr_res_pha
                0x004260d0                gainmap
                0x00426150                iqc_valid
                0x00426160                tx_iqc_coeff_array
                0x004261e0                tx_cl_dac_val_array
                0x00426260                sin_2phi_array
                0x004262e0                cos_2phi_array
                0x00426360                rx_iqc_coeff_array
                0x004263e0                ChanFD
                0x004265e0                IFFT_out_real
                0x004267e0                IFFT_out_imag
                0x004269e0                clmap
 .bss           0x00426a20       0x38 mac_core/src/wal/whal/reset/.output/AR6320/hw.3/lib/ar6000_cal.a(ar6320_pef_cal.o)
                0x00426a20                pPefRefCoef
                0x00426a28                pWhalPefCalIndirectionTable
                0x00426a30                pPefIQref
 .bss           0x00426a58        0x0 mac_core/patch/AR6320/v3/.output/AR6320/hw.3/lib/lib_maccore_patches.a(install_patches.o)
 .bss           0x00426a58        0x4 mac_core/patch/AR6320/v3/.output/AR6320/hw.3/lib/lib_maccore_patches.a(whal_install_patches.o)
 .bss           0x00426a5c        0x0 mac_core/patch/AR6320/v3/.output/AR6320/hw.3/lib/lib_maccore_patches.a(wal_install_patches.o)
 .bss           0x00426a5c        0x8 mac_core/patch/AR6320/v3/.output/AR6320/hw.3/lib/lib_maccore_patches.a(ar_wal_connection_pause_patch.o)
                0x00426a5c                wal_connection_pause_block_enable
                0x00426a60                wal_connection_pause_block_disable
 *fill*         0x00426a64        0xc 00
 .bss           0x00426a70      0x150 mac_core/patch/AR6320/v3/.output/AR6320/hw.3/lib/lib_maccore_patches.a(ar_wal_phy_dev_patch.o)
                0x00426a70                g_use_opt_whal_reset
                0x00426a74                g_soc_chip_ver
                0x00426a7c                g_pdev_ext
                0x00426a80                g_wal_vdev_ext_array
                0x00426a84                g_wal_vdev_dbg_link_stats_array
                0x00426a88                rom_wal_pdev_get_cycle_counters
                0x00426a8c                rom_wal_set_pdev_param
                0x00426a90                g_dbg_bb_wdt_loop_count
                0x00426aa0                reg_record
 .bss           0x00426bc0      0x128 mac_core/patch/AR6320/v3/.output/AR6320/hw.3/lib/lib_maccore_patches.a(cmnos_retention_patch.o)
                0x00426bc0                g_dbg_isr_ref
                0x00426bc4                g_dbg_isr_idx
                0x00426bc8                debug_inum_pre
                0x00426bcc                wakeup_ltecoex
                0x00426bd0                rom_cmnos_retention_init
                0x00426be0                g_dbg_isr_history
                0x00426cd0                ltecoex_timer
 .bss           0x00426ce8       0x50 mac_core/patch/AR6320/v3/.output/AR6320/hw.3/lib/lib_maccore_patches.a(ar_wal_tx_de_patch.o)
                0x00426ce8                g_dbg_de_cache_hits
                0x00426cf4                g_wal_de_cache
                0x00426d24                g_dbg_de_cache_disable
                0x00426d28                g_dbg_de_cache_stored
 .bss           0x00426d38        0x4 mac_core/patch/AR6320/v3/.output/AR6320/hw.3/lib/lib_maccore_patches.a(ar_wal_local_frames_wifi_ip01_patch.o)
                0x00426d38                rom_local_data_frame_send_with_rate
 .bss           0x00426d3c        0x8 mac_core/patch/AR6320/v3/.output/AR6320/hw.3/lib/lib_maccore_patches.a(pool_mgr_patch.o)
                0x00426d3c                pool_ctxt_list
 *fill*         0x00426d44        0xc 00
 .bss           0x00426d50      0x370 mac_core/patch/AR6320/v3/.output/AR6320/hw.3/lib/lib_maccore_patches.a(ar_wal_rx_patch.o)
                0x00426d50                g_dbg_rx_buf_chain
                0x00426d54                g_p_tmp_msdu_list_dbg
                0x00426d58                g_dbg_rx_reentry
                0x00426d5c                g_rx_reorder_stats
                0x00426d60                rx_fullreorder_buffer_mgmt_stats
                0x00426d68                g_dbg_burst_vivo_rxpktcnt
                0x00426d6c                g_dbg_rx_last_ok_ms
                0x00426d70                g_dbg_assert_on_ftm_err
                0x00426d74                g_dbg_num_local_bufs
                0x00427080                g_dbg_local_bufs_timeout
 .bss           0x004270c0        0x4 mac_core/patch/AR6320/v3/.output/AR6320/hw.3/lib/lib_maccore_patches.a(ar_wal_rx_offload_patch.o)
                0x004270c0                rom_rx_offload_attach
 .bss           0x004270c4        0x0 mac_core/patch/AR6320/v3/.output/AR6320/hw.3/lib/lib_maccore_patches.a(ar_wal_rx_common_patch.o)
 *fill*         0x004270c4        0xc 00
 .bss           0x004270d0       0x50 mac_core/patch/AR6320/v3/.output/AR6320/hw.3/lib/lib_maccore_patches.a(ar_wal_vdev_patch.o)
                0x004270d0                rom_wal_vdev_detach
                0x004270d4                rom_wal_vdev_attach
                0x004270d8                rom_wal_vdev_down
                0x004270dc                rom_wal_vdev_start
                0x004270e0                vdev_11g_erp_enabled
 .bss           0x00427120        0x8 mac_core/patch/AR6320/v3/.output/AR6320/hw.3/lib/lib_maccore_patches.a(ar_tx_q_enque_patch.o)
                0x00427124                g_htt_tgt_tx_compl_idx_bitmap
 *fill*         0x00427128        0x8 00
 .bss           0x00427130       0x38 mac_core/patch/AR6320/v3/.output/AR6320/hw.3/lib/lib_maccore_patches.a(tx_sched_patch.o)
                0x00427130                g_dbg_aggr_tid_mask
                0x00427134                g_dbg_timer_started
                0x00427138                g_dbg_burst_timeout
                0x0042713c                g_dbg_burst_break
                0x00427140                g_dbg_aggr_tid
                0x00427144                g_dbg_sched_burstsize_scaling
                0x00427150                g_dbg_aggr_timer
 *fill*         0x00427168        0x8 00
 .bss           0x00427170      0x1f4 mac_core/patch/AR6320/v3/.output/AR6320/hw.3/lib/lib_maccore_patches.a(ar_wal_tx_send_patch.o)
                0x00427174                g_dbg_tx_ppdu_stat_bmap
                0x00427178                g_dbg_ifOutOfSync
                0x0042717c                time_dsr
                0x00427180                g_wmac_access_freed_ppdu
                0x00427184                tsf_wb_offset
                0x00427188                g_cw_min_from_ap_is_valid
                0x0042718c                g_txq_timeout_cca_busy
                0x00427190                g_dbg_pause_qcu_enabled
                0x00427194                g_dbg_burst_vivo_disable
                0x00427198                g_dbg_burst_vivo_rxpresent
                0x0042719c                g_dbg_burst_vivo_txpresent
                0x004271a0                g_dbg_pause_sifs_burst
                0x004271a4                g_dbg_tx_ppdu
                0x004271a8                time_post_dsr_avg
                0x004271ac                time_ack
                0x004271b0                time_air
                0x004271b4                time_dsr_ack_avg
                0x004271b8                time_ack_air_avg
                0x004271bc                pkt_info_ctxt_ppdu_cnt
                0x004271c0                g_dbg_tx_last_ok_ms
                0x004271c4                g_dbg_mpdu_before_assert
                0x004271c8                rom_tx_send_proc_mpdu_swdone
                0x004271cc                g_dbg_final_mpdu
                0x004271d0                g_dbg_mpdu_list_head
                0x004271d4                g_dbg_mpdu_retry_list_head
                0x004271d8                time_ppdu_cnt
                0x004271dc                rom_wal_tx_send_update_wmm_params
                0x004271e0                rom_tx_send_flush_tid
                0x004271e4                rom_tx_send_init_tid_txsate
                0x004271e8                pkt_info_ctxt_wb_tsf_offset
                0x004271ec                time_post
                0x00427210                g_txq_cca_busy_refstart
                0x00427240                g_mgmt_ac_link_stats
                0x00427340                g_cw_min_from_ap
 .bss           0x00427364        0x0 mac_core/patch/AR6320/v3/.output/AR6320/hw.3/lib/lib_maccore_patches.a(ar_wal_chain_mgmt_patch.o)
 *fill*         0x00427364        0xc 00
 .bss           0x00427370       0xe0 mac_core/patch/AR6320/v3/.output/AR6320/hw.3/lib/lib_maccore_patches.a(ar_wal_peer_patch.o)
                0x00427370                rom_wal_peer_get_param
                0x00427374                g_tid_ext_pool
                0x00427378                g_tid_ext_list
                0x00427380                rom_wal_peer_set_param
                0x00427384                rom_ar_wal_peer_free_tid
                0x00427388                rom_ar_wal_peer_update_rxrate
                0x0042738c                rom_wal_peer_set_key
                0x00427390                g_wal_peer_key
 .bss           0x00427450       0xb0 mac_core/patch/AR6320/v3/.output/AR6320/hw.3/lib/lib_maccore_patches.a(ar600P_txbf_patch.o)
                0x00427450                g_cbf_war
                0x004274e4                rom_ar6000TxbfeeSetCBIndex
                0x004274e8                rom_ar6000TxbfeeSetNGIndex
                0x004274ec                rom_ar6000TxbfeeInit
                0x004274f0                g_cbf_table
                0x004274f4                txbf_power_mode_cb
 .bss           0x00427500        0x0 mac_core/patch/AR6320/v3/.output/AR6320/hw.3/lib/lib_maccore_patches.a(wal_pps_patch.o)
 .bss           0x00427500       0x74 mac_core/patch/AR6320/v3/.output/AR6320/hw.3/lib/lib_maccore_patches.a(ar_xmit_wifi_ip01_patch.o)
                0x00427500                g_ppdu_info_cache_hit
                0x0042750c                rom_StopTxDma
                0x00427510                g_ppdu_info_cache
 .bss           0x00427574       0x1c mac_core/patch/AR6320/v3/.output/AR6320/hw.3/lib/lib_maccore_patches.a(ar_wal_channel_change_patch.o)
                0x00427574                g_force_full_whal_reset
 .bss           0x00427590        0x4 mac_core/patch/AR6320/v3/.output/AR6320/hw.3/lib/lib_maccore_patches.a(ar_wal_rc_patch.o)
                0x00427590                g_txbf_musu_stats
 .bss           0x00427594        0x0 mac_core/patch/AR6320/v3/.output/AR6320/hw.3/lib/lib_maccore_patches.a(wal_rtt_patch.o)
 .bss           0x00427594        0x0 mac_core/patch/AR6320/v3/.output/AR6320/hw.3/lib/lib_maccore_patches.a(whal_rtt_patch.o)
 *fill*         0x00427594        0xc 00
 .bss           0x004275a0       0x60 mac_core/patch/AR6320/v3/.output/AR6320/hw.3/lib/lib_maccore_patches.a(dbglog_patch.o)
                0x004275a0                dbglog_send_debug_logs_cb
                0x004275a4                dbglog_send_debug_logs_cookie
                0x004275a8                dbglog_thickness
                0x004275ac                dbglog_config
                0x004275bc                patch_debuglog
                0x004275c0                diag_message_enabled
                0x004275d0                patch_logtimer
 .bss           0x00427600        0x8 mac_core/patch/AR6320/v3/.output/AR6320/hw.3/lib/lib_maccore_patches.a(ar600p_beacon_patch.o)
                0x00427600                ROM_ar6000SetStaBeaconTimers
 .bss           0x00427608        0x8 mac_core/patch/AR6320/v3/.output/AR6320/hw.3/lib/lib_maccore_patches.a(ar6000_power_patch.o)
                0x00427608                whalSetPowerModeCbList
 .bss           0x00427610        0x8 mac_core/patch/AR6320/v3/.output/AR6320/hw.3/lib/lib_maccore_patches.a(ar6000_interrupt_patch.o)
                0x00427610                rom_ar6000EnableInterrupts
                0x00427614                rom_ar6000DisableInterrupts
 *fill*         0x00427618        0x8 00
 .bss           0x00427620      0x124 mac_core/patch/AR6320/v3/.output/AR6320/hw.3/lib/lib_maccore_patches.a(cmnos_intrinf_patch.o)
                0x00427620                g_dbg_dsr_idx
                0x00427624                rom_cmnos_intr_dsrs_pending
                0x00427628                g_continuous_reading_count
                0x0042762c                mcerr_APB_error_1
                0x00427630                mcerr_AHB_error_1
                0x00427634                stackinit_isr_flag
                0x00427638                rom_cmnos_intr_handle_pending_dsrs
                0x00427640                g_dbg_dsr_history
                0x004276c0                g_dbg_longest_dsr
 *fill*         0x00427744        0x4 00
 .bss           0x00427748       0x18 mac_core/patch/AR6320/v3/.output/AR6320/hw.3/lib/lib_maccore_patches.a(patch_pcie.o)
                0x00427748                pcie_is_prepaused
                0x0042774c                pcie_prepause_tstamp
                0x00427750                pcie_pause_tstamp
                0x00427758                pcie_resume_tstamp
 .bss           0x00427760      0x234 mac_core/patch/AR6320/v3/.output/AR6320/hw.3/lib/lib_maccore_patches.a(patch_usb.o)
                0x00427764                g_bypass_EV129550
                0x00427768                crashbuf
 .bss           0x00427994        0x4 mac_core/patch/AR6320/v3/.output/AR6320/hw.3/lib/lib_maccore_patches.a(wal_beacon_patch.o)
 .bss           0x00427998        0x0 mac_core/patch/AR6320/v3/.output/AR6320/hw.3/lib/lib_maccore_patches.a(wal_swba_patch.o)
 .bss           0x00427998       0x20 mac_core/patch/AR6320/v3/.output/AR6320/hw.3/lib/lib_maccore_patches.a(ar600P_retention_patch.o)
                0x00427998                rom_ar6000RetentionRadioLongshiftRestore
                0x0042799c                g_dbg_reg_wr_track_cur_idx
                0x004279a0                g_dbg_reg_wr_track
                0x004279a4                g_shadow_reg_err_addr
                0x004279a8                rom_ar6000RetentionRadioLongshiftSave
                0x004279ac                rom_ar6000RetentionShadowBBRegister
                0x004279b0                rom_ar6000RetentionShadowMACRegister
                0x004279b4                rom_ar6000RetentionShadowAnalogRegister
 .bss           0x004279b8        0x8 mac_core/patch/AR6320/v3/.output/AR6320/hw.3/lib/lib_maccore_patches.a(ar_wal_rmc_patch.o)
                0x004279b8                g_rgc_context_ptr
                0x004279bc                g_rgc_context_ext_ptr
 .bss           0x004279c0        0x0 mac_core/patch/AR6320/v3/.output/AR6320/hw.3/lib/lib_maccore_patches.a(whal_rgc_patch.o)
 .bss           0x004279c0        0x4 mac_core/patch/AR6320/v3/.output/AR6320/hw.3/lib/lib_maccore_patches.a(patch_hif_ce.o)
                0x004279c0                g_CE_send_status_count
 .bss           0x004279c4       0x15 mac_core/patch/AR6320/v3/.output/AR6320/hw.3/lib/lib_maccore_patches.a(patch_whal_coex.o)
                0x004279c4                g_Wlan1ssSelfGenCHainMask
                0x004279c8                gWhalCoexHalphyEventCb
                0x004279cc                gWhalCoexCalCb
                0x004279d0                rom_whal_coex_cal_start
                0x004279d4                rom_whal_coex_cal_end
                0x004279d8                g_Wlan1ssTxCHainMask
 *fill*         0x004279d9        0x3 00
 .bss           0x004279dc        0xc mac_core/patch/AR6320/v3/.output/AR6320/hw.3/lib/lib_maccore_patches.a(patch_whal_mws.o)
 .bss           0x004279e8        0x4 mac_core/patch/AR6320/v3/.output/AR6320/hw.3/lib/lib_maccore_patches.a(patch_whal_mci.o)
                0x004279e8                rom_whal_mci_send_req_wake
 .bss           0x004279ec        0x8 mac_core/patch/AR6320/v3/.output/AR6320/hw.3/lib/lib_maccore_patches.a(ar_wal_tx_dm_patch.o)
                0x004279ec                g_wal_pdev
                0x004279f0                rom_tx_dm_init
 .bss           0x004279f4       0x14 mac_core/patch/AR6320/v3/.output/AR6320/hw.3/lib/lib_maccore_patches.a(patch_copy_engine.o)
                0x004279f4                g_dbg_ce_sync_count
                0x004279f8                g_dbg_ce_sync_count_max
                0x004279fc                rom_CE_send_cb_register
                0x00427a00                rom_CE_recv_cb_register
                0x00427a04                rom_CE_watermark_cb_register
 .bss           0x00427a08        0x4 mac_core/patch/AR6320/v3/.output/AR6320/hw.3/lib/lib_maccore_patches.a(wal_concurrency_patch.o)
                0x00427a08                rom_wal_concurrency_vdev_attach
 .bss           0x00427a0c        0x8 mac_core/patch/AR6320/v3/.output/AR6320/hw.3/lib/lib_maccore_patches.a(ar_wal_tdls_patch.o)
                0x00427a0c                rom_wal_tdls_set_param
                0x00427a10                rom_wal_tdls_get_param
 *fill*         0x00427a14        0x4 00
 .bss           0x00427a18       0x10 mac_core/patch/AR6320/v3/.output/AR6320/hw.3/lib/lib_maccore_patches.a(cmnos_timer_patch.o)
                0x00427a18                g_dbg_ptimer
                0x00427a1c                g_dbg_invalid_ptimer
                0x00427a20                g_dbg_hang_count
 .bss           0x00427a28        0x0 mac_core/patch/AR6320/v3/.output/AR6320/hw.3/lib/lib_maccore_patches.a(ar_wal_tx_hcm_patch.o)
 .bss           0x00427a28        0x4 mac_core/patch/AR6320/v3/.output/AR6320/hw.3/lib/lib_maccore_patches.a(ar_wal_tdls_conn_table_patch.o)
 .bss           0x00427a2c        0xc mac_core/patch/AR6320/v3/.output/AR6320/hw.3/lib/lib_maccore_patches.a(ar600P_recv_patch.o)
                0x00427a30                rom_ar6000RecvReset
                0x00427a34                rom_SetRxFilter
 .bss           0x00427a38        0x0 mac_core/patch/AR6320/v3/.output/AR6320/hw.3/lib/lib_maccore_patches.a(os_install_wlan_extra_memory_patches.o)
 .bss           0x00427a38       0x14 mac_core/patch/AR6320/v3/.output/AR6320/hw.3/lib/lib_maccore_patches.a(patch_athos_main.o)
                0x00427a38                g_dbg_int_pcie_cnt
                0x00427a3c                g_dbg_int_pcie_fw_indicator
                0x00427a40                g_dbg_int_pcie_core_ctrl_wake
                0x00427a44                g_dbg_int_pcie_core_ctrl_set
                0x00427a48                g_dbg_int_pcie_core_ctrl_clear
 .bss           0x00427a4c       0x18 mac_core/patch/AR6320/v3/.output/AR6320/hw.3/lib/lib_maccore_patches.a(cmnos_misc_patch.o)
                0x00427a4c                report_wait_func
                0x00427a50                g_dbg_notify_cnt
                0x00427a54                cmnos_assfail_cb_list
                0x00427a5c                g_dbg_ass_cnt
                0x00427a60                rom_cmnos_assfail
 .bss           0x00427a64        0x0 mac_core/patch/AR6320/v3/.output/AR6320/hw.3/lib/lib_maccore_patches.a(sha1_patch.o)
 .bss           0x00427a64        0x0 mac_core/patch/AR6320/v3/.output/AR6320/hw.3/lib/lib_maccore_patches.a(patch_hif_sdio.o)
 .bss           0x00427a64        0x8 mac_core/patch/AR6320/v3/.output/AR6320/hw.3/lib/lib_maccore_patches.a(ar_wal_txbf_patch.o)
 .bss           0x00427a6c        0x0 mac_core/patch/AR6320/v3/.output/AR6320/hw.3/lib/lib_maccore_patches.a(wmi_dbgloghook_patch.o)
 *fill*         0x00427a6c        0x4 00
 .bss           0x00427a70      0x124 mac_core/patch/AR6320/v3/.output/AR6320/hw.3/lib/lib_maccore_patches.a(cmnos_allocram_patch.o)
                0x00427a84                PACKED
 .bss           0x00427b94        0x7 mac_core/src/wal/whal/rtt/.output/AR6320/hw.3/lib/whal_rtt.a(whal_rtt.o)
                0x00427b94                rtt_regfield_save
 *fill*         0x00427b9b        0x1 00
 .bss           0x00427b9c        0x4 halphy/patch/AR6320/v3/.output/AR6320/hw.3/lib/lib_halphy_patches.a(halphy_install_patches.o)
 .bss           0x00427ba0       0x20 halphy/patch/AR6320/v3/.output/AR6320/hw.3/lib/lib_halphy_patches.a(ar6000_nf_cal_patch.o)
                0x00427ba4                savePending
                0x00427bac                maxCCAPower_dirty
                0x00427bb0                rom_ar6000NfStartCal
                0x00427bb8                nfmaxCCAPower
 .bss           0x00427bc0       0x38 halphy/patch/AR6320/v3/.output/AR6320/hw.3/lib/lib_halphy_patches.a(ar6000_ani_patch.o)
                0x00427bdc                enable_ani_ptr
                0x00427be0                ani_reset_ptr
 .bss           0x00427bf8        0x4 halphy/patch/AR6320/v3/.output/AR6320/hw.3/lib/lib_halphy_patches.a(ar6320_ini_patch.o)
                0x00427bf8                analog_pmu5_inited
 *fill*         0x00427bfc        0x4 00
 .bss           0x00427c00      0x112 halphy/patch/AR6320/v3/.output/AR6320/hw.3/lib/lib_halphy_patches.a(ar6320_tpc_config_patch.o)
                0x00427c00                g_clpcSensitivePdadc
                0x00427c04                ROM_ar6320SetTpcCLPC
                0x00427c08                ROM_ar6320PdetDcCal
                0x00427c0c                ROM_ar6320ProgAlut
                0x00427c10                temp_plut
                0x00427d10                g_CplcOffsetThermal
 *fill*         0x00427d12        0x2 00
 .bss           0x00427d14       0x39 halphy/patch/AR6320/v3/.output/AR6320/hw.3/lib/lib_halphy_patches.a(ar6320_eeprom_patch.o)
                0x00427d14                cur_ini_ver
                0x00427d18                pSpurMitApi
                0x00427d1c                g_Otp2gBiasInfo
                0x00427d1e                g_is2GHz
                0x00427d20                ROM_ar6000EepromSetBoardValues
                0x00427d24                g_ChannelSwitchUpdateScanPowerLimit
                0x00427d28                pThermal_chan
                0x00427d2c                pThermal_timer
                0x00427d30                pAr6000SetPaprdReducedPower
                0x00427d34                pAr6000AdjustPowerPerRate
                0x00427d38                pAr6000EepromProgramTxPowerRegisters
                0x00427d3e                g_ofdmAckPwr
                0x00427d40                g_ofdmAckPwrOffset
                0x00427d44                rom_ar6000SetCCKspur
                0x00427d48                ROM_ar6000SetRegulatoryDomain
                0x00427d4c                g_RegularyDomainSet
 *fill*         0x00427d4d        0x3 00
 .bss           0x00427d50       0xa0 halphy/patch/AR6320/v3/.output/AR6320/hw.3/lib/lib_halphy_patches.a(ar600P_reset_patch.o)
                0x00427d50                g_dbg_changech_enter_time
                0x00427d54                rom_ar6000ChannelSwitch
                0x00427d58                g_dbg_changech_txit_time
                0x00427d5c                bEnable_CTS_CBW
                0x00427d60                romar6000WaitReg
                0x00427d64                g_dbg_wait_reg_track_idx
                0x00427d68                ResetSCPCMode
                0x00427d6c                g_dbg_reset_enter_time
                0x00427d74                g_dbg_reset_exit_time
                0x00427d78                rom_ar6000WriteAssocid
                0x00427d7c                g_max_halttime
                0x00427d80                g_avg_halttime
                0x00427d84                g_haltcount
                0x00427d88                savedExt40Value
                0x00427d8c                rom_ar6000SetTxPowerLimit
                0x00427d90                SCPC_DPD_training_packet_hang
                0x00427da0                g_dbg_wait_reg_track
 .bss           0x00427df0      0x126 halphy/patch/AR6320/v3/.output/AR6320/hw.3/lib/lib_halphy_patches.a(ar6000_paprd_patch.o)
                0x00427df0                rom_ar6000DPDanalogWAR
                0x00427df4                scpcStruct
                0x00427e54                ScpcIndirectionTable
                0x00427e80                DPDTBLMASK_2G
                0x00427e81                DPDTBLMASK_5G
                0x00427e90                rom_ar6000PaprdForceTxGainIdx
                0x00427e94                START_COARSE_IDX_5G
                0x00427e96                START_COARSE_IDX_ch1
                0x00427e9c                rom_ar6000PaprdProcessTrainingData
                0x00427ea0                g_dpd_war
                0x00427f08                rom_ar6000PaprdReset
                0x00427f0c                pResetStruct
                0x00427f10                rom_ar6000PaprdSmTimer
 *fill*         0x00427f16        0x2 00
 .bss           0x00427f18        0x4 halphy/patch/AR6320/v3/.output/AR6320/hw.3/lib/lib_halphy_patches.a(ar6000_phy_patch.o)
                0x00427f18                rom_ar6000SetChannel
 .bss           0x00427f1c        0x0 mac_core/src/wal/AR/rtt/.output/AR6320/hw.3/lib/ar_wal_rtt.a(wal_rtt.o)
 .bss           0x00427f1c        0x8 mac_core/src/wal/AR/nan/.output/AR6320/hw.3/lib/ar_wal_nan.a(wal_nan_mac.o)
 .bss           0x00427f24        0x0 /cad/tensilica/chips/peregrine/RE-2013.3-linux/peregrine/xtensa-elf/lib/xcc//libgcc.a(_divsi3.o)
 .bss           0x00427f24        0x0 /cad/tensilica/chips/peregrine/RE-2013.3-linux/peregrine/xtensa-elf/lib/xcc//libgcc.a(_modsi3.o)
 .bss           0x00427f24        0x0 /cad/tensilica/chips/peregrine/RE-2013.3-linux/peregrine/xtensa-elf/lib/xcc//libgcc.a(_udivsi3.o)
 .bss           0x00427f24        0x0 /cad/tensilica/chips/peregrine/RE-2013.3-linux/peregrine/xtensa-elf/lib/xcc//libgcc.a(_umodsi3.o)
 .bss           0x00427f24        0x0 /cad/tensilica/chips/peregrine/RE-2013.3-linux/peregrine/xtensa-elf/lib/xcc//libgcc.a(_ashrdi3.o)
 .bss           0x00427f24        0x0 /cad/tensilica/chips/peregrine/RE-2013.3-linux/peregrine/xtensa-elf/lib/xcc//libgcc.a(_lshrdi3.o)
 .bss           0x00427f24        0x0 /cad/tensilica/chips/peregrine/RE-2013.3-linux/peregrine/xtensa-elf/lib/xcc//libgcc.a(_muldi3.o)
 .bss           0x00427f24        0x0 /cad/tensilica/chips/peregrine/RE-2013.3-linux/peregrine/xtensa-elf/lib/xcc//libgcc.a(_udivdi3.o)
 .bss           0x00427f24        0x0 /cad/tensilica/chips/peregrine/RE-2013.3-linux/peregrine/xtensa-elf/lib/xcc//libgcc.a(lib2funcs.o)
 .bss           0x00427f24        0x0 mac_core/src/wal/whal/init/.output/AR6320/hw.3/lib/libwhal_init.a(whal_init.o)
 *fill*         0x00427f24        0xc 00
 .bss           0x00427f30      0x120 mac_core/apps/utf/AR6320/.output/AR6320/hw.3/lib/libar6320.a(whal_SCPC.o)
 .bss           0x00428050     0x4150 mac_core/apps/utf/AR6004/.output/AR6320/hw.3/lib/libar6004utf.a(dkkernel.o)
                0x00428050                old_intr
                0x00428060                kpClientTable
                0x004281a0                memTable
 .bss           0x0042c1a0        0x0 mac_core/apps/utf/AR6004/.output/AR6320/hw.3/lib/libar6004utf.a(event.o)
 .bss           0x0042c1a0      0x4f0 mac_core/apps/utf/AR6004/.output/AR6320/hw.3/lib/libar6004utf.a(hw.o)
                0x0042c1a0                globDrvInfo
                0x0042c1a8                cal_offset
                0x0042c1ac                sleep_control_reg
                0x0042c1b0                cpu_clk_reg
                0x0042c1b4                core_clk_reg
                0x0042c1b8                clk_control_reg
                0x0042c1bc                ldo_volt_reg
                0x0042c1c0                ldo_a_volt_reg
                0x0042c1c4                sdio_ldo_volt_reg
                0x0042c1c8                core_pad_enable_reg
                0x0042c1cc                sdio_wrapper_reg
                0x0042c1d0                val
                0x0042c1e0                mdk_crc32_table
                0x0042c5e0                pdkInfo
                0x0042c680                pDevInfoArray
 .bss           0x0042c690       0x3c mac_core/apps/utf/AR6004/.output/AR6320/hw.3/lib/libar6004utf.a(main.o)
                0x0042c690                isrEventQ
                0x0042c6a4                triggerEventQ
                0x0042c6b8                dsrQ
 .bss           0x0042c6cc        0x4 mac_core/src/misc/extend_alloc/.output/AR6320/hw.3/lib/libextendalloc.a(extend_allocate.o)
                0x0042c6cc                extendAllocramCont
 .bss           0x0042c6d0       0xe0 mac_core/src/hostif/htc/.output/AR6320/hw.3/lib/libhtc.a(htc.o)
                0x0042c6d0                g_htc_credit_op_his_idx
                0x0042c6e0                g_pHTCInstances
 .bss           0x0042c7b0        0x4 mac_core/src/misc/module_id/.output/AR6320/hw.3/lib/libmodule_id.a(module_id.o)
                0x0042c7b0                g_module_id_ctx
 .bss           0x0042c7b4        0x4 mac_core/src/wal/whal/ini/.output/AR6320/hw.3/lib/libwhalini.a(whalini.o)
                0x0042c7b4                iniDset
 .bss           0x0042c7b8        0x0 mac_core/src/utils/sm/.output/AR6320/hw.3/lib/libsm.a(sm.o)
 .bss           0x0042c7b8        0x8 mac_core/src/wal/AR/coex/.output/AR6320/hw.3/lib/wal_coex.a(wal_coex.o)
                0x0042c7b8                pCoexDev
 .bss           0x0042c7c0      0x14c mac_core/src/wal/AR/coex/.output/AR6320/hw.3/lib/wal_coex.a(wal_btcoex.o)
                0x0042c7c0                pBtCoexDev
                0x0042c7c4                walBtCoexApiTable
 .bss           0x0042c90c      0x110 mac_core/src/wal/AR/coex/.output/AR6320/hw.3/lib/wal_coex.a(wal_mwscoex.o)
                0x0042c90c                pMwsCoexDev
                0x0042c910                walMwsCoexApiTable
                0x0042ca00                common_qmi_idl_type_table_object_v01
 .bss           0x0042ca1c        0x0 mac_core/src/wal/AR/coex/.output/AR6320/hw.3/lib/wal_coex.a(wal_mwscoex_crc.o)
 .bss           0x0042ca1c        0x0 mac_core/src/wal/AR/coex/.output/AR6320/hw.3/lib/wal_coex.a(qmi_idl_lib.o)
 .bss           0x0042ca1c        0x0 mac_core/src/wal/AR/coex/.output/AR6320/hw.3/lib/wal_coex.a(qmi_idl_accessor.o)
 .bss           0x0042ca1c        0x0 mac_core/src/wal/AR/coex/.output/AR6320/hw.3/lib/wal_coex.a(coexistence_service_v02.o)
 .bss           0x0042ca1c        0x4 mac_core/src/wal/whal/coex/.output/AR6320/hw.3/lib/whal_ar_coex.a(whal_coex.o)
                0x0042ca1c                gpWhalCoexStruct
 .bss           0x0042ca20        0x4 mac_core/src/wal/whal/coex/.output/AR6320/hw.3/lib/whal_ar_coex.a(whal_mci.o)
                0x0042ca20                gpMciStruct
 .bss           0x0042ca24       0x14 mac_core/src/wal/whal/coex/.output/AR6320/hw.3/lib/whal_ar_coex.a(whal_mws.o)
                0x0042ca24                g_mwswhal
 .bss           0x0042ca38        0x4 mac_core/apps/lib/.output/AR6320/hw.3/lib/libapp.a(efusew.o)
                0x0042ca38                efuse_wrenb_ref_count
 .bss           0x0042ca3c        0x0 mac_core/apps/lib/.output/AR6320/hw.3/lib/libapp.a(otpstreamw.o)
 *(.bss.*)
 *(.gnu.linkonce.b.*)
 *(COMMON)
 *(.dram0.bss)
                0x0042ca40                . = ALIGN (0x8)
 *fill*         0x0042ca3c        0x4 00
                0x0042ca40                _bss_end = ABSOLUTE (.)
                0x0042ca40                _end = ALIGN (0x8)
                0x0042ca40                PROVIDE (end, ALIGN (0x8))
                0x0042ca40                _stack_sentry = ALIGN (0x8)

.iram0.text     0x00985000        0x0
                0x00985000                _iram0_text_start = ABSOLUTE (.)
 *(.iram0.literal .iram.literal .iram.text.literal .iram0.text .iram.text)
                0x00985000                _iram0_text_end = ABSOLUTE (.)

.text           0x00985000    0x4c820
                0x00985000                _stext = .
                0x00985000                _text_start = ABSOLUTE (.)
 *(.entry.text)
 *(.init.literal)
 *(.init)
 *(.literal .text .text.* .stub .gnu.warning .gnu.linkonce.literal.* .gnu.linkonce.t.*.literal .gnu.linkonce.t.*)
 .text          0x00985000       0x55 mac_core/apps/utf/commonUTF/.output/AR6320/hw.3/lib/libcommonutf.a(main.o)
                0x00985000                app_start
 *fill*         0x00985055        0x3 00
 .text          0x00985058       0x99 mac_core/apps/utf/commonUTF/.output/AR6320/hw.3/lib/libcommonutf.a(utf.o)
                                 0xa5 (size before relaxing)
                0x00985058                bindHostIFFunc
                0x0098506c                bindChipSpecificFunc
                0x00985074                hostIFProcessing
                0x009850a8                cmdStreamParsingAndProcessing
                0x009850c8                utf_main
 *fill*         0x009850f1        0x3 00
 .text          0x009850f4      0x406 mac_core/apps/utf/commonUTF/.output/AR6320/hw.3/lib/libcommonutf.a(cmdEvtProcEngine.o)
                0x009852f8                cmdProcessingThread
                0x00985358                cmdProcessingEntry
                0x009853f8                cmdProcessingSM
                0x00985468                evtCmdHandler
 *fill*         0x009854fa        0x2 00
 .text          0x009854fc     0x10d5 mac_core/apps/utf/commonUTF/.output/AR6320/hw.3/lib/libcommonutf.a(cmdProcessing.o)
                               0x1125 (size before relaxing)
                0x00985cf0                sendResponse
                0x00985d28                getMask2RateFromRateIndex
                0x00985d50                getConcatBuf
                0x00985db8                setIndex
                0x00985de8                sendRxReportResponse
                0x00986484                rxSyncNotifySim
                0x009864a8                rxNotifyReg
                0x009864b4                rxNotify
                0x009864f0                rxTimeout
                0x00986520                rxSyncTimeout
                0x00986550                calDataPollTimeout
                0x00986580                createTimers
                0x009865b8                delay4CAL
 *fill*         0x009865d1        0x3 00
 .text          0x009865d4      0x166 mac_core/apps/utf/commonUTF/.output/AR6320/hw.3/lib/libcommonutf.a(cmdProcessingSM.o)
 *fill*         0x0098673a        0x2 00
 .text          0x0098673c      0x3b2 mac_core/apps/utf/commonUTF/.output/AR6320/hw.3/lib/libcommonutf.a(genTxBinCmdTlv.o)
                0x0098673c                searchTestFlowParmTemplate
                0x00986778                createCommand
                0x009867f0                addCommand
                0x00986860                addParameterToCommand
                0x00986870                addParameterToCommandWithLen
                0x00986a80                commandComplete
 *fill*         0x00986aee        0x2 00
 .text          0x00986af0      0x121 mac_core/apps/utf/commonUTF/.output/AR6320/hw.3/lib/libcommonutf.a(parseBinCmdStream.o)
                0x00986af0                prtCmdQueue
                0x00986be8                parseBinCmdStream
 *fill*         0x00986c11        0x3 00
 .text          0x00986c14       0x49 mac_core/apps/utf/commonUTF/.output/AR6320/hw.3/lib/libcommonutf.a(testUtil.o)
                0x00986c14                verifyChecksum
                0x00986c40                computeChecksumOnly
 *fill*         0x00986c5d        0x3 00
 .text          0x00986c60      0x270 mac_core/apps/utf/commonUTF/.output/AR6320/hw.3/lib/libcommonutf.a(whalExtensionGeneric.o)
                0x00986c90                whalResetPostProcessing
                0x00986d38                whalStickyCmdResetPostProcessing
                0x00986e98                whalSetTxPowerLimitPlus
 .text          0x00986ed0     0x1fa5 mac_core/apps/utf/AR6320/.output/AR6320/hw.3/lib/libar6320.a(whal_tcmd.o)
                               0x2288 (size before relaxing)
                0x00986ed0                ar6000SingleCarrierConfig
                0x00986ed8                ar6000BackupSINE
                0x00986f5c                ar6000RestoreSINE
                0x00986f78                ar6000SingleCarrierEnable
                0x0098711c                ar6000SetWlanKeepAwakeCount
                0x00987144                ar6000ForceWakeMac
                0x00987174                ar6000ForceSleepMac
                0x009871a4                ar6000DisAck
                0x009871d8                ar6000DisableBackoff
                0x009871e0                ar6000EnableBackoff
                0x009871e8                ar6000SetAntSwitchTbl
                0x009871f0                ar6000GetAntSwitchTbl
                0x00987234                ar6000SetupAntenna
                0x0098723c                ar6000EnableWeakSignalDetection
                0x00987374                ar6000ReducePacketGap
                0x0098737c                ar6000ContTXTestMode
                0x009873d0                ar6000DisableScramble
                0x00987414                ar6000PwrOnOffMAC
                0x00987448                ar6000PostResetRegOverwrite
                0x00987450                ar6000ForceTxGainAnalogClear
                0x00987458                ar6000ForceTxGainAnalog
                0x0098751c                ar6000ForcePACfg
                0x00987578                ar6000ForceTxGainIdx
                0x00987614                ar6000ForceTxTgtPwr
                0x0098761c                ar6000ForceTxGain
                0x00987624                ar6000PostResetSetupOlpcCAL
                0x00987694                ar6000SetTxPowerLimitAsIs
                0x00987704                ar6000SetTransmitContentionWindow
                0x00987794                ar6000DisableCCA
                0x009877ec                ar6000ReceiveDeafMode
                0x00987960                ar6000Dac_playback
                0x00987a74                ar6000SetTpcForcedTxgainIdxWfm
                0x00987c9c                ar6000GetPdetPdadcWfm_int
                0x00987dd8                ar6000SetDcOffsetCancellationGain
                0x00987fcc                ar6000PdetDcCal
                0x00988310                ar6000PdetDcCalAll
                0x0098838c                ar6000PdSetupForced
                0x0098840c                ar6000PdetSetup
                0x00988540                ar6000SetTpcForceClpcPacket
                0x00988640                ar6000SetTpcForceClpcWfm
                0x009887e8                ar6000DisTpcForceClpcWfm
                0x00988934                ar6000SetPdetDcOffset
                0x00988a5c                ar6000SetTpcForceCplcPwr
                0x00988b0c                ar6000GetPdetPdadcWfm
                0x00988c60                ar6000GetPdetPdadcPacket
                0x00988c94                pdadc_setup
 *fill*         0x00988e75        0x3 00
 .text          0x00988e78     0x1aee mac_core/apps/utf/tcmd_utf/.output/AR6320/hw.3/lib/libtcmdutf.a(tcmd.o)
                               0x1b56 (size before relaxing)
                0x00988e78                patch_ar6000SetupPpduCommon
                0x00988ebc                tcmd_main
                0x00988f18                tcmd_wal_setup
                0x009890e4                tcmd_whalReset
                0x00989144                tcmd_reset_device
                0x00989180                tcmd_enable
                0x009892d8                processTLVPacket
                0x00989370                tcmdReadValuesOfInterest
                0x00989384                tcmd_parse_cmd
                0x00989418                tcmd_tx_readpdadc_timer_handler
                0x00989438                tcmd_tx_complete_timer_handler
                0x00989484                tcmd_tx_complete_handler
                0x0098951c                tcmd_rx_complete_handler
                0x009895e8                tcmd_ss_complete_handler
                0x0098969c                tcmd_cont_tx_set_default
                0x009896dc                tcmd_get_channel
                0x0098988c                tcmd_get_curmode
                0x0098994c                utfTxStop
                0x009899b4                utfTxChannelSetup
                0x00989a0c                utfTxStart
                0x00989a18                tcmd_cont_tx_cmd
                0x00989f58                tcmd_cont_rx_cmd
                0x0098a158                tcmd_pm_cmd
                0x0098a484                tcmd_reset_pre_callback
                0x0098a4a0                tcmd_reset_post_callback
                0x0098a8f4                utfTxStart_WhyNotWorking
 *fill*         0x0098a966        0x2 00
 .text          0x0098a968      0xd9e mac_core/apps/utf/tcmd_utf/.output/AR6320/hw.3/lib/libtcmdutf.a(tcmd_rx.o)
                                0xdaa (size before relaxing)
                0x0098a968                waltest_log_type_subtype
                0x0098aa88                waltest_check_wifi_header
                0x0098ad00                waltest_check_eth_hdr
                0x0098ad70                waltest_get_pkt_id
                0x0098adec                waltest_rx_parse_status
                0x0098af58                data_rx_ind_buf_get
                0x0098af64                _offldmgr_non_data_handler
                0x0098af74                waltest_rx_htt_handler
                0x0098b1d4                waltest_rx_htt_setup
                0x0098b294                waltest_rx_stack_handler
                0x0098b318                waltest_rx_stack_setup
                0x0098b3f8                waltest_rx_setup
                0x0098b4dc                waltest_rx_get_vdev
                0x0098b4e4                waltest_rx
                0x0098b518                waltest_rx_detach
                0x0098b5a4                waltest_rx_restore
                0x0098b660                waltest_rx_ring_setup
 *fill*         0x0098b706        0x2 00
 .text          0x0098b708      0xcb1 mac_core/apps/utf/tcmd_utf/.output/AR6320/hw.3/lib/libtcmdutf.a(tcmd_tx.o)
                                0xcd5 (size before relaxing)
                0x0098b720                waltest_tx_attach
                0x0098b7e0                waltest_tx_get_vdev
                0x0098b7e8                ieee80211_hdr_encap
                0x0098b888                waltest_init_pkts
                0x0098ba5c                waltest_free_pkt_buf
                0x0098ba94                waltest_alloc_pkt_buf
                0x0098bad0                waltest_setup_frameq_pkts
                0x0098bc54                waltest_tx_comp_buf_get
                0x0098bc60                waltest_proc_tx_desc
                0x0098bdf0                waltest_tx_comp_indicate
                0x0098bed8                waltest_tid_create_handler
                0x0098beec                waltest_send_complete_handler
                0x0098bf0c                waltest_presend_handler
                0x0098bf34                waltest_setup_data_rate
                0x0098c0f0                waltest_local_buf_free
                0x0098c0f8                waltest_tx_setup
                0x0098c24c                waltest_tx_start
                0x0098c348                waltest_tx
                0x0098c37c                waltest_tx_detach
 *fill*         0x0098c3b9        0x3 00
 .text          0x0098c3bc       0xa9 mac_core/apps/utf/tcmd_utf/.output/AR6320/hw.3/lib/libtcmdutf.a(utfCallback.o)
                0x0098c3bc                registerCallback
                0x0098c3f0                deregisterCallback
                0x0098c410                deregisterTxCallback
                0x0098c420                registerTxCallback
                0x0098c430                runTxCallback
                0x0098c448                runThroughCallback
 *fill*         0x0098c465        0x3 00
 .text          0x0098c468      0x378 mac_core/apps/utf/tcmd_utf/.output/AR6320/hw.3/lib/libtcmdutf.a(if_split.o)
                                0x3b4 (size before relaxing)
                0x0098c468                patch_dbglog_record_log_tcmd
                0x0098c470                disable_dbg_log
                0x0098c480                tcmd_attach
                0x0098c7a8                ath_tx_setup
 .text          0x0098c7e0       0x1c mac_core/apps/utf/testScriptIF/.output/AR6320/hw.3/lib/libtestscriptif.a(testscriptIFRegister.o)
                0x0098c7e0                registerOneHostIF
 .text          0x0098c7fc       0x2f mac_core/apps/utf/testScriptIF/.output/AR6320/hw.3/lib/libtestscriptif.a(testscriptIF.o)
                0x0098c7fc                testscriptIFAttach
                0x0098c804                testscriptIFCmdStreamFetch
 *fill*         0x0098c82b        0x1 00
 .text          0x0098c82c     0x2292 mac_core/apps/utf/wmiHostIF/.output/AR6320/hw.3/lib/libwmihostif.a(legHostIF.o)
                               0x23ae (size before relaxing)
                0x0098c82c                initLegHostIFCmdsSupport
                0x0098c844                tcReadCmds
                0x0098c84c                htcDispatchCmd
                0x0098c854                createEventCmd
                0x0098c88c                processInitF2Cmd
                0x0098c988                processRegReadCmd
                0x0098c9d0                processRegWriteCmd
                0x0098ca10                processMemReadCmd
                0x0098ca38                processMemWriteCmd
                0x0098ca58                processTargetMemClearCmd
                0x0098ca70                processTargetCalCRCCmd
                0x0098cac0                processCfgReadCmd
                0x0098cae8                processMemReadBlockCmd
                0x0098cb30                processMemWriteBlockCmd
                0x0098cb6c                processStickyWriteCmd
                0x0098cce4                processStickyClearCmd
                0x0098cdb8                processCloseDeviceCmd
                0x0098cdd0                processHwReset
                0x0098cdf8                processResetDeviceCmd
                0x0098ce4c                processGetRefClkSpeedCmd
                0x0098ce78                processSleepCmd
                0x0098ce88                processEfuseReadCmd
                0x0098cef0                processEfuseWriteCmd
                0x0098cf40                processOtpReadCmd
                0x0098cffc                processOtpWriteCmd
                0x0098d040                processOtpResetCmd
                0x0098d05c                processOtpLoadCmd
                0x0098d06c                processTxDataStats
                0x0098d220                txDataStatsReport
                0x0098d33c                processRxDataStats
                0x0098d7a0                processSSDataStats
                0x0098d934                rxDataStatsReport
                0x0098dbc4                setupTcmdParms
                0x0098dbdc                tcmd_link_trx_init
                0x0098dc4c                tcmdLinkTx
                0x0098dd10                processTxStatusStartPerRate
                0x0098de7c                processTxDataStartCmd
                0x0098df8c                sendTxDataStatus
                0x0098e128                processTxDataStopCmd
                0x0098e1a8                processTxDataStatusCmd
                0x0098e1f0                processRxStatusStartCmd
                0x0098e284                processRxDataStartCmd
                0x0098e3a8                sendRxDataStatus
                0x0098e540                processRxDataStopCmd
                0x0098e590                processRxDataStatusCmd
                0x0098e5bc                processEepromWriteItemsCmd
                0x0098e644                processEepromBlockRead
                0x0098e670                sendNartResponse
                0x0098e714                processNartCommand
                0x0098e9d0                initThreadInfo
                0x0098e9f0                alloc_pool_stat_init
                0x0098ea1c                return_all_stat_buf
                0x0098ea30                current_pool_stat_buf
                0x0098ea38                free_all_stat_buf
                0x0098ea60                get_pool_stat_buf
                0x0098ea90                free_pool_stat_buf
 *fill*         0x0098eabe        0x2 00
 .text          0x0098eac0      0x6f6 mac_core/apps/utf/wmiHostIF/.output/AR6320/hw.3/lib/libwmihostif.a(wmi_tcmd.o)
                0x0098eac0                wmi_tcmd_ctrl_svc_connect
                0x0098eaf8                wmiTcmdInit
                0x0098ecd4                wmiIFAttach
                0x0098ece4                wmi_alloc_evbuf
                0x0098ed1c                wmi_control_refill
                0x0098ed54                wmi_free_evbuf
                0x0098ed74                wmi_tcmd_event_send
                0x0098ed9c                wmi_tcmd_service_ready_event
                0x0098ee44                wmi_tcmd_ready_event
                0x0098eef8                parse_unifiedcmd
                0x0098ef9c                wmi_cmd_rx
                0x0098efdc                wmi_tcmd_htc_rx
                0x0098f054                wmi_tcmd_htc_tx_complete
                0x0098f074                wmi_tcmd_cont_rx_reply_event
                0x0098f084                wmi_tc_cmds_reply_event
                0x0098f094                wmi_utf_unified_reply
 *fill*         0x0098f1b6        0x2 00
 .text          0x0098f1b8      0x2ec mac_core/apps/utf/wmiHostIF/.output/AR6320/hw.3/lib/libwmihostif.a(htt_tgt_hif_svc.o)
                0x0098f1b8                _htt_tgt_hif_svc_data_to_host
                0x0098f270                _htt_tgt_hif_svc_msg_to_host
                0x0098f2c8                _htt_tgt_hif_svc_connect
                0x0098f2d0                _htt_tgt_hif_svc_callback
                0x0098f2d8                _htt_tgt_hif_svc_cb_set
                0x0098f310                _htt_tgt_hif_svc_max_msg_sz
                0x0098f31c                _htt_tgt_hif_svc_h2t_input
                0x0098f324                _htt_tgt_hif_svc_h2t_msg_cb_set
                0x0098f368                _htt_tgt_hif_svc_h2t_refill_recv_buf
                0x0098f3ac                _htt_tgt_hif_svc_h2t_recv_buf_pool_init
                0x0098f3c0                _htt_tgt_hif_svc_h2t_recv_buf_pool_attach
                0x0098f42c                _htt_tgt_hif_svc_init
 .text          0x0098f4a4     0x1c4c mac_core/src/wal/whal/reset/.output/AR6320/hw.3/lib/ar6000_cal.a(ar6320_cal.o)
                               0x1d73 (size before relaxing)
                0x0098f4a4                whalIsAntennaShared
                0x00991038                ar6320ForceTxOff
                0x00991080                ar6320RestoreTxOn
 *fill*         0x009910f0        0x0 00
 .text          0x009910f0     0x36f6 mac_core/src/wal/whal/reset/.output/AR6320/hw.3/lib/ar6000_cal.a(ar6320_rxdc_cal.o)
                               0x3826 (size before relaxing)
                0x009917a0                rshift_plus_half
                0x00991b24                ar6000TimeElapsed
                0x009923f0                XPowerY
                0x00993814                ar6000RxDcDTIMRestore
                0x009947d4                ar6000InitRxDcCalStruct
 *fill*         0x009947e6        0x2 00
 .text          0x009947e8     0x472b mac_core/src/wal/whal/reset/.output/AR6320/hw.3/lib/ar6000_cal.a(ar6320_iq_cal.o)
                               0x4a4b (size before relaxing)
                0x009954b4                my_round
                0x00998f04                ar6000InitIQCalStruct
 *fill*         0x00998f13        0x1 00
 .text          0x00998f14      0xdd7 mac_core/src/wal/whal/reset/.output/AR6320/hw.3/lib/ar6000_cal.a(ar6320_pef_cal.o)
                                0xe5b (size before relaxing)
                0x00998f14                patch_my_div
                0x00999840                ar6000PefCheckPefCalResult
                0x00999b34                ar6000PefAssignRefTbl
                0x00999b50                ar6000PefGetConfig
                0x00999bd4                ar6000PefCalRestore
                0x00999c44                ar6000PefEnableTbl
                0x00999cdc                ar6000InitPefCalStruct
 *fill*         0x00999ceb        0x1 00
 .text          0x00999cec      0x276 mac_core/patch/AR6320/v3/.output/AR6320/hw.3/lib/lib_maccore_patches.a(ar_wal_connection_pause_patch.o)
                0x00999cec                patch_ar_connection_pause_state_pause_send_n_event
                0x00999d80                patch_ar_connection_pause_state_pause_send_n_exit
                0x00999e0c                patch_ar_connection_pause_state_block_entry
                0x00999e80                patch_ar_wal_connection_pause_dev_event_handler
                0x00999ec8                patch_ar_wal_connection_pause_block_enable
                0x00999f14                patch_ar_wal_connection_pause_block_disable
 *fill*         0x00999f62        0x2 00
 .text          0x00999f64      0x651 mac_core/patch/AR6320/v3/.output/AR6320/hw.3/lib/lib_maccore_patches.a(ar_wal_phy_dev_patch.o)
                                0x655 (size before relaxing)
                0x00999f64                patch_wal_dev_reset
                0x0099a0b8                read_register
                0x0099a0c0                dump_bb_mac_reg
                0x0099a258                patch_wal_phy_dev_set_power_state
                0x0099a350                patch_wal_phy_dev_fast_wake_request
                0x0099a36c                patch_wal_phy_dev_fast_wake_release
                0x0099a388                wal_get_pdev_filter
                0x0099a390                wal_get_pdev_paused
                0x0099a39c                patch_wal_pdev_suspend
                0x0099a4a8                patch_wal_pdev_resume
                0x0099a4f0                patch_wal_pdev_get_cycle_counters
                0x0099a514                patch_wal_pdev_get_my_rx_counter
                0x0099a524                patch_wal_set_pdev_param
                0x0099a560                patch_wal_pdev_get_sifburst_flag
                0x0099a56c                patch_wal_rx_remote_ring_buffer_stats_publish
                0x0099a59c                patch_wal_rx_remote_ring_buffer_stats_reset
                0x0099a5a4                wal_get_rssi_comb
 *fill*         0x0099a5b5        0x3 00
 .text          0x0099a5b8      0x46a mac_core/patch/AR6320/v3/.output/AR6320/hw.3/lib/lib_maccore_patches.a(cmnos_retention_patch.o)
                                0x4ae (size before relaxing)
                0x0099a5b8                patch_athos_interrupt_handler
                0x0099a664                patch_cmnos_retention_save_isr
                0x0099a790                ltecoex_timer_handler
                0x0099a7a0                ltecoex_wakeup_handler
                0x0099a7c4                patch_cmnos_retention_restore_isr
                0x0099a978                patch_cmnos_retention_pwr_vol_iso_en
                0x0099a980                patch_cmnos_retention_hyst_en
 *fill*         0x0099aa22        0x2 00
 .text          0x0099aa24      0xd3a mac_core/patch/AR6320/v3/.output/AR6320/hw.3/lib/lib_maccore_patches.a(ar_wal_tx_de_patch.o)
                0x0099aa24                _tx_de_cache_match
                0x0099aa98                _tx_de_register_coex_cb
                0x0099aaa4                _tx_de_unregister_coex_cb
                0x0099aab0                patch_tx_de_input
                0x0099b640                patch_tx_de_eapol_peer_send_complete
                0x0099b744                patch_wal_tx_de_setup_dscp_mapping
 *fill*         0x0099b75e        0x2 00
 .text          0x0099b760      0x7e9 mac_core/patch/AR6320/v3/.output/AR6320/hw.3/lib/lib_maccore_patches.a(ar_wal_local_frames_wifi_ip01_patch.o)
                0x0099b760                patch_local_frame_handle_completion
                0x0099b87c                patch_local_frame_send_with_rate
                0x0099bb98                patch_mgmt_frame_send_with_rate
                0x0099be78                patch_local_frame_set_pm
                0x0099bedc                patch_local_data_frame_send_with_rate
 *fill*         0x0099bf49        0x3 00
 .text          0x0099bf4c      0x289 mac_core/patch/AR6320/v3/.output/AR6320/hw.3/lib/lib_maccore_patches.a(pool_mgr_patch.o)
                                0x28d (size before relaxing)
                0x0099bf4c                _pool_mem_iter_init
                0x0099bf58                _pool_mem_iter_next
                0x0099c0b4                _pool_init_ex
                0x0099c1b4                patch_pool_mgr
 *fill*         0x0099c1d5        0x3 00
 .text          0x0099c1d8     0x35bc mac_core/patch/AR6320/v3/.output/AR6320/hw.3/lib/lib_maccore_patches.a(ar_wal_rx_patch.o)
                               0x35c0 (size before relaxing)
                0x0099c1d8                patch_rx_process_recv_status
                0x0099dc7c                patch_rx_ring_msdu_pop
                0x0099def0                patch_rx_suspend
                0x0099df44                patch_rx_resume_ll
                0x0099e034                rx_block_resume
                0x0099e054                patch_rx_ring_reque_buffers
                0x0099e090                _rx_data_reorder_flush
                0x0099e0bc                _rx_local_buf_lwm
                0x0099e0d0                patch_rx_attach
                0x0099e1e0                patch_rx_setup_ring_for_offload
                0x0099e3a0                patch_rx_restore_ring_from_offload
                0x0099e4f0                patch_rx_ring_msdu_discard
                0x0099e52c                patch_rx_ring_amsdu_discard
                0x0099e7d8                patch_rx_free_msdu
                0x0099e800                patch_rx_free_mpdu
                0x0099e82c                patch_rx_is_local_ring_offloaded
                0x0099e840                patch_rx_ring_h_cv_info_pop
                0x0099e8fc                patch_rx_ring_setup
                0x0099eb50                patch_rx_ring_refill_timeout
                0x0099eb5c                patch_rx_ring_req_refill
                0x0099ed80                patch_rx_ring_refill_comp_cb
                0x0099eeb8                patch_rx_init_status_ring_ll
                0x0099efac                patch_rx_ring_install_refill_cbs
                0x0099f030                patch_rx_ring_amsdu_pop
                0x0099f090                patch_rx_ring_phy_err_pop
                0x0099f160                patch_rx_ring_mgmt_ctrl_null_pop
                0x0099f1c0                patch_rx_get_ppdu_rate_and_phy_mode
                0x0099f38c                patch_rx_ppdu_start_field
                0x0099f414                patch_rx_ppdu_end_field
                0x0099f468                patch_rx_completion_hdlr
                0x0099f4d4                patch_rx_ring_buf_consumed
                0x0099f4f8                patch_rx_offload_get_pn
                0x0099f5c0                patch_rx_set_phy_err_filter
                0x0099f5f4                patch_rx_install_capture_h_ind
                0x0099f604                patch_rx_pop_remote_buffer
                0x0099f734                rx_suspend_wmac_only
                0x0099f764                wal_rx_assfail_handler
                0x0099f774                wal_get_ext_hdr
                0x0099f780                patch_rx_ring_intf_mac_init_wlanbuf_fn
 .text          0x0099f794      0xad6 mac_core/patch/AR6320/v3/.output/AR6320/hw.3/lib/lib_maccore_patches.a(ar_wal_rx_offload_patch.o)
                0x0099f7c4                patch_rx_offload_attach
                0x0099f864                patch_rx_offload_ap_fwd_check
                0x0099f86c                patch_rx_offload_sta_fwd_check
                0x0099fba0                patch_rx_offload_fwd_check
                0x0099fe64                patch_rx_offload_igmp_mld_check
                0x0099fe6c                patch_rx_offload_register_callback
                0x0099fea0                patch_rx_offload_deregister_callback
                0x0099fef8                patch_rx_offload_set_default_callbacks_state
                0x0099ff10                patch_rx_offload_execute_callbacks
                0x009a0020                patch_rx_offload_sta_callback
                0x009a0100                patch_rx_offload_ibss_callback
                0x009a0114                patch_rx_offload_ap_callback
                0x009a0230                _rx_offload_hsoffload_callback
 *fill*         0x009a026a        0x2 00
 .text          0x009a026c       0x72 mac_core/patch/AR6320/v3/.output/AR6320/hw.3/lib/lib_maccore_patches.a(ar_wal_rx_common_patch.o)
                0x009a026c                patch_rx_ring_register_buf_handler
                0x009a0290                patch_rx_install_data_ind
                0x009a02a0                patch_rx_install_data_buf_consumed_ind
                0x009a02b0                patch_rx_install_data_fw_desc_buf_get
                0x009a02c0                patch_rx_install_non_data_ind
                0x009a02d0                patch_rx_install_data_reorder_flush
 *fill*         0x009a02de        0x2 00
 .text          0x009a02e0      0xae9 mac_core/patch/AR6320/v3/.output/AR6320/hw.3/lib/lib_maccore_patches.a(ar_wal_vdev_patch.o)
                                0xaf1 (size before relaxing)
                0x009a02e0                patch_wal_set_chan_paprd_status
                0x009a0304                _wal_vdev_ibss_tsf_oor_handler
                0x009a0350                patch_wal_vdev_up
                0x009a03d0                patch_ar_wal_vdev_mgmt_rx
                0x009a0634                patch_wal_vdev_get_snr
                0x009a06dc                patch_wal_vdev_detach
                0x009a06f8                wal_vdev_get_tx_stats
                0x009a073c                patch_wal_vdev_attach
                0x009a0804                patch_wal_vdev_get_nexttbtt
                0x009a0844                wal_vdev_clear_iface_stats
                0x009a08ec                wal_vdev_start_iface_stats
                0x009a090c                wal_vdev_beacon_rx
                0x009a0928                wal_vdev_get_mgmt_action_rx_tx
                0x009a0954                wal_vdev_get_mgmt_rx
                0x009a0974                wal_vdev_get_rssi
                0x009a09ac                wal_vdev_get_iface_tx_rx_apmdus
                0x009a09e0                wal_vdev_get_iface_tx_retries_short_long
                0x009a0a14                wal_vdev_get_iface_contention_stats
                0x009a0a70                wal_vdev_get_iface_tx_stats
                0x009a0ab8                wal_vdev_get_iface_rx_stats
                0x009a0adc                wal_vdev_get_iface_mcast_stats
                0x009a0b10                wal_vdev_get_radio_tx_rx_time
                0x009a0b40                patch_wal_vdev_get_hw_qdepth
                0x009a0b68                patch_wal_vdev_get_qdepth
                0x009a0b90                wal_vdev_inc_rx_htt_mpdu_err
                0x009a0bb0                patch_wal_vdev_down
                0x009a0c40                patch_wal_vdev_reconfig
                0x009a0c94                patch_wal_vdev_start
                0x009a0d1c                patch_wal_vdev_set_tsf_sync_type
                0x009a0d34                _wal_vdev_set_11g_erp_enable
                0x009a0d48                _wal_vdev_get_11g_erp_enable
                0x009a0d60                patch_wal_vdev_set_param
 *fill*         0x009a0dc9        0x3 00
 .text          0x009a0dcc      0x708 mac_core/patch/AR6320/v3/.output/AR6320/hw.3/lib/lib_maccore_patches.a(ar_tx_q_enque_patch.o)
                0x009a0dcc                patch_tx_q_enque_fn
                0x009a13e4                patch_tx_q_enque_discard
 .text          0x009a14d4      0x84c mac_core/patch/AR6320/v3/.output/AR6320/hw.3/lib/lib_maccore_patches.a(tx_sched_patch.o)
                0x009a1534                patch_tx_sched_register_tbd_callback
                0x009a1544                patch_tx_sched_init
                0x009a15ec                patch_tx_sched_destroy
                0x009a1628                patch_tx_sch_evt_proc_register
                0x009a1684                patch_tx_sch_evt_proc_unregister
                0x009a16c8                patch_tx_sch_evt_proc_insert
                0x009a16fc                patch_tx_sched_dispatch_conn_immed
                0x009a1770                patch_tx_sched_self_trig_timeout
                0x009a17cc                patch_tx_sch_run_sched
                0x009a184c                patch_tx_sched_algo
                0x009a19c8                patch_tx_dispatch_tid
                0x009a1acc                patch_tx_sch_evt_proc_txdone
                0x009a1b1c                patch_tx_sch_evt_proc_tickle
                0x009a1c08                patch_tx_sched_get_typesubtype
                0x009a1c58                patch_tx_sched_get_filter_value
                0x009a1ce8                patch_tx_sch_evt_proc_remove
 .text          0x009a1d20     0x3ebb mac_core/patch/AR6320/v3/.output/AR6320/hw.3/lib/lib_maccore_patches.a(ar_wal_tx_send_patch.o)
                               0x3ecb (size before relaxing)
                0x009a1d20                get_wal_tx_hwq_ext
                0x009a1d4c                patch_tx_send_start_pn
                0x009a1de8                patch_tx_send_ppdu_stat_alloc
                0x009a1e20                patch_tx_send_ppdu_stat_free
                0x009a1e64                patch_tx_send_update_win_completion
                0x009a1ff4                _wal_set_ifOutOfSync
                0x009a2084                patch_tx_send_deliver_comp_pending_descs_ext
                0x009a2354                patch_tx_send_handle_completion
                0x009a2590                patch_tx_send_completion_hdlr
                0x009a2cdc                patch_wal_tx_send_update_wmm_params
                0x009a2dbc                patch_tx_send_get_hw_queue_num
                0x009a2edc                patch_tx_send_txq_setup
                0x009a3040                patch_tx_send_construct_ppdu
                0x009a3324                raw_tx_send_start_pn
                0x009a33b4                patch_tx_send_post_ppdu
                0x009a3f24                patch_tx_send_proc_ppdu_done
                0x009a48ac                patch_tx_send_adjust_burst_txop
                0x009a498c                patch_tx_send_comp_pending_flush
                0x009a49b0                patch_tx_send_check_tx_ppdu_fail_threshold
                0x009a4be8                patch_tx_send_release_all_mpdus
                0x009a4d60                patch_tx_send_proc_mpdu_swdone
                0x009a4ea8                patch_tx_send_remove_swdone_mpdus
                0x009a517c                patch_tx_send_init_tid_txstate
                0x009a52cc                patch_tx_send_find_last_msdu
                0x009a531c                _tx_send_install_txcomp_buf_req_ext
                0x009a5348                _tx_send_install_txcomp_indicate_ext
                0x009a53a0                _txbf_war_rx_souding_disable
                0x009a53d0                _txbf_war_rx_souding_enable
                0x009a53fc                patch_tx_send_abort_tx
                0x009a54f4                patch_tx_send_resume_bottom
                0x009a5510                patch_tx_send_resume_top
                0x009a5584                patch_tx_send_burst_disable
                0x009a55d8                patch_tx_send_flush_tid
                0x009a571c                patch_tx_send_config_ba_state
                0x009a5770                patch_tx_send_queue_to_hw
                0x009a5848                patch_tx_send_merge_reque_mpdus_retry_tid
 *fill*         0x009a5bdb        0x1 00
 .text          0x009a5bdc      0x20b mac_core/patch/AR6320/v3/.output/AR6320/hw.3/lib/lib_maccore_patches.a(ar_wal_chain_mgmt_patch.o)
                                0x213 (size before relaxing)
                0x009a5bdc                patch_wal_chm_set_hw_chainmasks
                0x009a5cec                patch_wal_chm_get_hw_chainmasks
                0x009a5d2c                patch_wal_smps_disable
                0x009a5d50                patch_wal_smps_enable_hw_ctrl
                0x009a5d7c                patch_wal_smps_swsel_chainmask
                0x009a5da8                patch_wal_chm_set_tx_cck_chain_masks
 *fill*         0x009a5de7        0x1 00
 .text          0x009a5de8     0x1bf5 mac_core/patch/AR6320/v3/.output/AR6320/hw.3/lib/lib_maccore_patches.a(ar_wal_peer_patch.o)
                               0x1c09 (size before relaxing)
                0x009a5de8                wal_peer_check_need_ptk_4_way
                0x009a5df4                wal_peer_check_begin_4_way_handshake
                0x009a5e04                wal_peer_check_ptk_m4_sent
                0x009a5e10                wal_peer_set_ptk_m4_sent
                0x009a5e20                patch_ar_wal_peer_wmmac_events_callback_block
                0x009a5ec8                patch_ar_wal_wmmac_update
                0x009a5f34                patch_ar_wal_wmmac_update_used_time
                0x009a5fa0                _ar_wal_peer_wmmac_get_txtime
                0x009a5fe8                _ar_wal_wmmac_tidq_throttle
                0x009a6024                patch_ar_wal_peer_wmmac_remap_txq
                0x009a60c4                patch_ar_wal_peer_wmmac_remap_qid
                0x009a6104                patch_ar_wal_peer_wmmac_events_callback_complete
                0x009a61d8                patch_ar_wal_peer_wmmac_status
                0x009a62ac                patch_ar_wal_peer_wmmac_update
                0x009a6304                patch_ar_wal_peer_wmmac_init
                0x009a637c                patch_wal_peer_alloc
                0x009a6af4                patch_wal_peer_free
                0x009a6c40                patch_ar_wal_peer_wmmac_deinit
                0x009a6c84                patch_ar_wal_get_tid
                0x009a6ca0                patch_wal_peer_get_param
                0x009a6cf0                patch_ar_wal_peer_set_cbf_table
                0x009a6dd0                patch_ar_wal_peer_set_nc_idx
                0x009a6e80                patch_ar_wal_peer_alloc_tid
                0x009a70d8                patch_wal_peer_set_param
                0x009a7408                patch_ar_wal_peer_set_hw_filter
                0x009a7594                patch_wal_ast_free_wds_addr
                0x009a7604                ar_wal_get_tid_ext
                0x009a7628                patch_ar_wal_peer_free_tid
                0x009a7694                patch_ar_wal_peer_tidq_empty
                0x009a7828                patch_ar_wal_peer_attach
                0x009a7884                wal_peer_check_flush_tids
                0x009a78c0                wal_peer_clear_flush_tid_cnt
                0x009a78e4                patch_wal_peer_get_mac_addr
                0x009a7970                patch_ar_wal_peer_update_rxrate
                0x009a79a8                patch_wal_peer_set_key
 *fill*         0x009a79dd        0x3 00
 .text          0x009a79e0      0x94b mac_core/patch/AR6320/v3/.output/AR6320/hw.3/lib/lib_maccore_patches.a(ar600P_txbf_patch.o)
                                0x977 (size before relaxing)
                0x009a7cf0                ar6000_paprd_tx_queue_done
                0x009a7d20                ar6000_cbf_tx_aggr_done
                0x009a7d34                ar6000_cbf_change_channel
                0x009a7d48                ar6000_cbf_dummy_frm_tx_done_check
                0x009a7d94                ar6000_cbf_txbf_en
                0x009a7dec                ar6000_cbf_paprd_training_en
                0x009a7e34                ar6000_cbf_check_mac_pcu_hang
                0x009a7ee0                patch_ar6000TxbfeeEnableUploadH
                0x009a7f3c                ar6000TxbfRxFilterPhyData
                0x009a7f74                ar6000TxbfeeRxSounding
                0x009a7fe4                patch_ar6000TxbfeeSetCBIndex
                0x009a800c                patch_ar6000TxbfeeSetNGIndex
                0x009a8034                patch_ar6000InitTxbfStruct
                0x009a80ac                patch_ar6000TxbfeeReset
                0x009a8228                ar6000TxBfPowerModeHandler
                0x009a8284                patch_ar6000CheckContinuousCBFRead
                0x009a82b0                patch_ar6000SetCbfTableReg
 *fill*         0x009a832b        0x1 00
 .text          0x009a832c       0x91 mac_core/patch/AR6320/v3/.output/AR6320/hw.3/lib/lib_maccore_patches.a(wal_pps_patch.o)
                                 0x95 (size before relaxing)
                0x009a832c                patch_wal_pps_ebt_int_handler
                0x009a83b0                wal_pps_patch_install
 *fill*         0x009a83bd        0x3 00
 .text          0x009a83c0      0xd7d mac_core/patch/AR6320/v3/.output/AR6320/hw.3/lib/lib_maccore_patches.a(ar_xmit_wifi_ip01_patch.o)
                                0xdd9 (size before relaxing)
                0x009a8bb0                ar6000_xmit_txbfee_war_en
                0x009a8bbc                patch_ar6000AllocateTxQueue
                0x009a8c94                ar6000ReEnableTxq
                0x009a8cc4                patch_ar6000ProcTxDesc
                0x009a8e00                patch_ar6000ResetTxQueue
                0x009a8e6c                patch_ar6000SetTxQueueProps
                0x009a8e84                patch_ar6000XmitReset
                0x009a9020                patch_ar6000ResetCW
                0x009a9040                patch_ar6000ConfigVMF
                0x009a9074                patch_ar6000SetPcuPSFilter
                0x009a90a8                ar6000Xmit_assfail_handler
                0x009a90f0                patch_ar6000SetSelfGenChainMasks
 *fill*         0x009a913d        0x3 00
 .text          0x009a9140      0x582 mac_core/patch/AR6320/v3/.output/AR6320/hw.3/lib/lib_maccore_patches.a(ar_wal_channel_change_patch.o)
                                0x586 (size before relaxing)
                0x009a9140                patch_wal_channel_change
                0x009a966c                patch_wal_set_home_channel
                0x009a9688                patch_wal_setup_phy_watchdog
 *fill*         0x009a96c2        0x2 00
 .text          0x009a96c4      0xbe7 mac_core/patch/AR6320/v3/.output/AR6320/hw.3/lib/lib_maccore_patches.a(ar_wal_rc_patch.o)
                0x009a96c4                _wal_rc_bcast_mcast_data_rc_param_setup
                0x009a981c                patch_wal_rc_peer_set_non_data_rc
                0x009a9834                patch_wal_rc_peer_get_non_data_rc
                0x009a989c                patch_wal_rc_query_rate_info
                0x009a9a70                patch_wal_rc_set_peer_max_msdu_size
                0x009a9ad8                patch_wal_rc_dbg_ext_tx_rate_info
                0x009a9b98                patch_wal_rc_dbg_tx_rate_info
                0x009a9c60                patch_wal_rc_rx_ext_get_phy_header_info
                0x009a9e80                patch_wal_rc_rx_get_phy_header_info
                0x009aa010                patch_wal_rc_install_rate_ctrl_query
                0x009aa01c                patch_wal_rc_install_rate_ctrl_update
                0x009aa02c                patch_wal_rc_install_rate_ctrl_fetch
                0x009aa03c                patch_wal_rc_set_max_msdus
                0x009aa07c                wal_rc_rx_peer_get_phy_header_info
                0x009aa23c                patch_wal_rc_get_vdev_tx_chainmask_4_rc
                0x009aa26c                _wal_rc_set_cck_chain_mask
                0x009aa2a0                _wal_rc_get_cck_chain_mask
 *fill*         0x009aa2ab        0x1 00
 .text          0x009aa2ac      0xb58 mac_core/patch/AR6320/v3/.output/AR6320/hw.3/lib/lib_maccore_patches.a(dbglog_patch.o)
                                0xb5c (size before relaxing)
                0x009aa2ac                patch_dbglog_call_debug_logs_cb
                0x009aa2e4                patch_dbglog_manage_log_buffer
                0x009aa3cc                patch_dbglog_add_argument
                0x009aa42c                patch_dbglog_flushbuf_timer
                0x009aa4f8                patch_dbglog_suspend
                0x009aa51c                patch_dbglog_resume
                0x009aa53c                patch_dbglog_init
                0x009aa6c0                patch_dbglog_queue_buffer
                0x009aa730                patch_dbglog_record_log_buf
                0x009aa7dc                patch_dbglog_record_log
                0x009aa964                _wlan_diag_message
                0x009aaa38                _wlan_diag_report_log_event
                0x009aab30                _wlan_diag_config
                0x009aabf4                patch_dbglog_send_debug_logs
                0x009aaca0                patch_dbglog_config_debug_module
                0x009aad9c                dbglog_get_loglvl
                0x009aadc8                dbglog_set_loglvl
 .text          0x009aae04       0x51 mac_core/patch/AR6320/v3/.output/AR6320/hw.3/lib/lib_maccore_patches.a(ar600p_beacon_patch.o)
                                 0x59 (size before relaxing)
                0x009aae04                patch_ar6000SetTsf
                0x009aae38                patch_ar6000SetStaBeaconTimers
 *fill*         0x009aae55        0x3 00
 .text          0x009aae58      0x34e mac_core/patch/AR6320/v3/.output/AR6320/hw.3/lib/lib_maccore_patches.a(ar6000_power_patch.o)
                                0x362 (size before relaxing)
                0x009aae58                patch_ar6000RFLPSynthBypassConfig
                0x009aaf80                ar6000RegisterSetPowerModeCb
                0x009aaf94                whalNotifySetPowerModeCb
                0x009aafb4                patch_ar6000SetPowerModeAwake
                0x009aafe0                patch_ar6000SetPowerModeSleep
                0x009ab00c                patch_ar6000SetPowerModeNetworkSleep
                0x009ab038                __ar6000HwSetPowerModeAwake
                0x009ab0a8                __ar6000HwSetPowerModeSleep
                0x009ab0d8                __ar6000HwSetPowerModeNetworkSleep
                0x009ab108                ar6000PowerDsrPre
                0x009ab138                ar6000PowerDsrPost
                0x009ab154                ar6000HwSetPowerModeAwake
                0x009ab170                ar6000HwSetPowerModeSleep
                0x009ab18c                ar6000HwSetPowerModeNetworkSleep
 *fill*         0x009ab1a6        0x2 00
 .text          0x009ab1a8      0x10f mac_core/patch/AR6320/v3/.output/AR6320/hw.3/lib/lib_maccore_patches.a(ar6000_interrupt_patch.o)
                                0x11f (size before relaxing)
                0x009ab1a8                patch_ar6000EnableInterrupts
                0x009ab1fc                patch_ar6000DisableInterrupts
                0x009ab290                ar6000_interrupt_patch_install
 *fill*         0x009ab2b7        0x1 00
 .text          0x009ab2b8      0x507 mac_core/patch/AR6320/v3/.output/AR6320/hw.3/lib/lib_maccore_patches.a(cmnos_intrinf_patch.o)
                                0x513 (size before relaxing)
                0x009ab2b8                patch_cmnos_intr_handle_pending_dsrs
                0x009ab6d0                patch_cmnos_intr_dsrs_pending
                0x009ab6ec                continuous_reading_check
                0x009ab750                patch_cmnos_error_isr
                0x009ab7b4                cmnos_get_intr_level
 *fill*         0x009ab7bf        0x1 00
 .text          0x009ab7c0      0x3b1 mac_core/patch/AR6320/v3/.output/AR6320/hw.3/lib/lib_maccore_patches.a(patch_pcie.o)
                                0x3d5 (size before relaxing)
                0x009ab7c0                pcie_linkdown
                0x009ab7f0                patch_pcie_reset_handler
                0x009ab8c4                patch_pcie_pause
                0x009ab928                patch_pcie_resume
                0x009ab95c                dump_rtc_registers
                0x009ab978                patch_CE_misc_handler
                0x009aba68                patch_host_wake
                0x009abaa4                patch_pcie
 *fill*         0x009abb71        0x3 00
 .text          0x009abb74      0x7b3 mac_core/patch/AR6320/v3/.output/AR6320/hw.3/lib/lib_maccore_patches.a(patch_usb.o)
                0x009abb8c                _HIFusb_notify_patch
                0x009abb94                _HIFusb_pipe_config_patch
                0x009abc10                dwc_usb3_enable_device_interrupts_patch
                0x009abc2c                _dwc_usb3_gadget_suspend_patch
                0x009abc9c                _dwc_usb3_gadget_resume_patch
                0x009abcbc                _dwc_usb3_function_remote_wakeup_patch
                0x009abce4                _handle_usb_reset_intr_patch
                0x009abd08                __dma_insert_buf_patch
                0x009abe70                usb_vbus_gpio_configure
                0x009abeb4                usb_vbus_handler
                0x009abef8                dwc_usb3_grxthrcfg
                0x009abf28                dwc_usb3_set_dcfg_nump
                0x009ac054                _____dwc_usb3_handle_ep_intr
                0x009ac1a0                patch_dwc_usb3_handle_event
                0x009ac25c                patch_dwc_usb3_disable_u1_u2
                0x009ac264                patch_usb
                0x009ac310                patch_hif_usb
 *fill*         0x009ac327        0x1 00
 .text          0x009ac328       0x6d mac_core/patch/AR6320/v3/.output/AR6320/hw.3/lib/lib_maccore_patches.a(wal_beacon_patch.o)
                                 0x71 (size before relaxing)
                0x009ac328                patch_wal_beacon_vdev_set_beacon_config
                0x009ac350                _wal_beacon_queue_reset
                0x009ac35c                patch_wal_beacon_completion_callback
 *fill*         0x009ac395        0x3 00
 .text          0x009ac398      0x1a0 mac_core/patch/AR6320/v3/.output/AR6320/hw.3/lib/lib_maccore_patches.a(wal_swba_patch.o)
                0x009ac398                _wal_swba_next_vdev_valid
                0x009ac3d8                patch_wal_swba_intr_callback
 .text          0x009ac538      0x30a mac_core/patch/AR6320/v3/.output/AR6320/hw.3/lib/lib_maccore_patches.a(ar600P_retention_patch.o)
                                0x31a (size before relaxing)
                0x009ac538                patch_ar6000RetentionRadioLongshiftSave
                0x009ac57c                patch_ar6000RetentionRadioLongshiftRestore
                0x009ac5a0                patch_ar6000RetentionMACSave
                0x009ac5e4                patch_ar6000RetentionShadowBBRegister
                0x009ac610                patch_ar6000RetentionShadowMACRegister
                0x009ac63c                patch_ar6000RetentionShadowAnalogRegister
                0x009ac668                ar6000_dyn_bw_save
                0x009ac6b4                ar6000_dyn_bw_restore
                0x009ac708                patch_ar6000RetentionBBSave
                0x009ac72c                ar6000RetentionPostRestore
                0x009ac780                patch_ar6000RetentionMACRestore
                0x009ac810                shadow_register
                0x009ac838                patch_ar600PRetentionRegWrTrack
 *fill*         0x009ac842        0x2 00
 .text          0x009ac844      0x18f mac_core/patch/AR6320/v3/.output/AR6320/hw.3/lib/lib_maccore_patches.a(patch_hif_ce.o)
                0x009ac844                patch_HIF_memcpy_wait_for_completion
                0x009ac868                patch_HIF_CE_memcpy
                0x009ac900                patch_HIF_CE_send_buffer
                0x009ac990                _HIF_CE_memcpy_avail_desc
                0x009ac9b4                patch_hif_ce
 *fill*         0x009ac9d3        0x1 00
 .text          0x009ac9d4      0x2e7 mac_core/patch/AR6320/v3/.output/AR6320/hw.3/lib/lib_maccore_patches.a(patch_whal_coex.o)
                                0x2f7 (size before relaxing)
                0x009ac9d4                patch_whal_coex_config_debug_bus
                0x009aca94                patch_whal_coex_lookup_selfgen_tx_mask
                0x009acb10                patch_whal_coex_get_selfgen_tx_mask
                0x009acb50                patch_whal_coex_set_selfgen_tx_mask
                0x009acb74                patch_whal_coex_halphy_event
                0x009acb90                patch_whal_coex_register_callback
                0x009acba8                patch_whal_coex_cal_start
                0x009acbc0                _whal_coex_cal_start_alt
                0x009acc00                patch_whal_coex_cal_end
                0x009acc28                _whal_coex_cal_end_alt
                0x009acc6c                _whal_coex_set_wal_1ss_tx_selfgen_mask_control
                0x009acc7c                patch_whal_coex
 *fill*         0x009accbb        0x1 00
 .text          0x009accbc      0x1da mac_core/patch/AR6320/v3/.output/AR6320/hw.3/lib/lib_maccore_patches.a(patch_whal_mws.o)
                0x009accbc                _whal_mws_enable_WCI2
                0x009acd1c                _whal_mws_tx_grant_config
                0x009ace24                patch_whal_mws_wlan_tpc_limit_set
                0x009ace88                patch_whal_mws_coex
 *fill*         0x009ace96        0x2 00
 .text          0x009ace98      0x47c mac_core/patch/AR6320/v3/.output/AR6320/hw.3/lib/lib_maccore_patches.a(patch_whal_mci.o)
                0x009ace98                patch_whal_mci_process_bt_cal_req
                0x009acf34                patch_whal_mci_send_bt_status_query
                0x009acf70                patch_whal_mci_send_msg
                0x009ad0a4                patch_whal_mci_wlan_cal_validate_result
                0x009ad1b0                patch_whal_mci_send_pending_msgs
                0x009ad290                patch_whal_mci_send_req_wake
                0x009ad2e0                patch_whal_mci
 .text          0x009ad314       0xfb mac_core/patch/AR6320/v3/.output/AR6320/hw.3/lib/lib_maccore_patches.a(ar_wal_tx_dm_patch.o)
                0x009ad314                patch_tx_dm_bin_desc_alloc
                0x009ad390                _tx_dm_bin_desc_free
 *fill*         0x009ad40f        0x1 00
 .text          0x009ad410      0x4b7 mac_core/patch/AR6320/v3/.output/AR6320/hw.3/lib/lib_maccore_patches.a(patch_copy_engine.o)
                                0x4bf (size before relaxing)
                0x009ad410                patch_CE_check_idle
                0x009ad4ac                patch_CE_per_engine_handler
                0x009ad5dc                patch_CE_send
                0x009ad7d4                patch_partial_CE_per_engine_handler_adjust
                0x009ad818                patch_CE_send_cb_register
                0x009ad838                patch_CE_recv_cb_register
                0x009ad858                patch_CE_watermark_cb_register
                0x009ad878                ce_assfail_handler
 *fill*         0x009ad8c7        0x1 00
 .text          0x009ad8c8      0x2b2 mac_core/patch/AR6320/v3/.output/AR6320/hw.3/lib/lib_maccore_patches.a(wal_concurrency_patch.o)
 *fill*         0x009adb7a        0x2 00
 .text          0x009adb7c      0x3b7 mac_core/patch/AR6320/v3/.output/AR6320/hw.3/lib/lib_maccore_patches.a(ar_wal_tdls_patch.o)
                                0x3bb (size before relaxing)
                0x009adb7c                patch_wal_tdls_set_param
                0x009adcd8                patch_wal_tdls_get_param
                0x009add58                patch_ar_wal_tdls_attach
                0x009add88                _ar_wal_tdls_process_rx_frame
                0x009ade30                patch_ar_wal_tdls_vattach
                0x009adeb8                _wal_tdls_wlan_action_notif
 *fill*         0x009adf33        0x1 00
 .text          0x009adf34       0xf4 mac_core/patch/AR6320/v3/.output/AR6320/hw.3/lib/lib_maccore_patches.a(cmnos_timer_patch.o)
                0x009adf34                patch_cmnos_custom_timer_handler
                0x009adff0                patch_timer_hang_check_handle
 .text          0x009ae028       0x37 mac_core/patch/AR6320/v3/.output/AR6320/hw.3/lib/lib_maccore_patches.a(ar_wal_tx_hcm_patch.o)
                0x009ae028                patch_tx_hcm_bin_alloc
 *fill*         0x009ae05f        0x1 00
 .text          0x009ae060      0x7a2 mac_core/patch/AR6320/v3/.output/AR6320/hw.3/lib/lib_maccore_patches.a(ar_wal_tdls_conn_table_patch.o)
                0x009ae060                patch_ar_wal_tdls_free_conn_table_entry
                0x009ae14c                patch_ar_wal_tdls_clear_table_entry
                0x009ae1d4                patch_ar_wal_tdls_update_conn_table_entry
                0x009ae2e8                patch_ar_wal_tdls_update_conn_table_entry_state
                0x009ae454                patch_ar_wal_tdls_conn_table_timer
                0x009ae71c                patch_ar_wal_tdls_conn_table_search_index
                0x009ae7a0                patch_ar_wal_tdls_conn_track_start
                0x009ae7c0                patch_ar_wal_tdls_conn_table_attach
 *fill*         0x009ae802        0x2 00
 .text          0x009ae804      0x133 mac_core/patch/AR6320/v3/.output/AR6320/hw.3/lib/lib_maccore_patches.a(ar600P_recv_patch.o)
                                0x13f (size before relaxing)
                0x009ae858                patch_ar6000SetRxFilter
                0x009ae880                patch_ar6000GetRxRingFwIndx
                0x009ae8c0                patch_ar6000DfsCacOnOff
 *fill*         0x009ae937        0x1 00
 .text          0x009ae938       0xda mac_core/patch/AR6320/v3/.output/AR6320/hw.3/lib/lib_maccore_patches.a(patch_athos_main.o)
                                 0xe6 (size before relaxing)
                0x009ae938                patch_athos_interrupt_pcie_host
                0x009ae9e8                patch_athos_interrupt_host
                0x009aea04                athos_main_patch_install
 *fill*         0x009aea12        0x2 00
 .text          0x009aea14      0x140 mac_core/patch/AR6320/v3/.output/AR6320/hw.3/lib/lib_maccore_patches.a(cmnos_misc_patch.o)
                0x009aea14                patch_cmnos_report_failure_to_host
                0x009aea4c                cmnos_fw_corruption_notify
                0x009aeaa8                cmnos_assfail_register
                0x009aeabc                patch_cmnos_assfail
                0x009aeaf0                cmnos_misc_set_report_wait_func
                0x009aeafc                patch_cmnos_dram_sz
                0x009aeb24                patch_cmnos_misc_module_phase0_install
                0x009aeb44                patch_cmnos_misc_module_install
 .text          0x009aeb54      0x21e mac_core/patch/AR6320/v3/.output/AR6320/hw.3/lib/lib_maccore_patches.a(sha1_patch.o)
                0x009aeb54                patch_sha1_prf
 *fill*         0x009aed72        0x2 00
 .text          0x009aed74       0x36 mac_core/patch/AR6320/v3/.output/AR6320/hw.3/lib/lib_maccore_patches.a(patch_hif_sdio.o)
                0x009aed74                _HIF_SDIO_register_callback_patch
                0x009aed90                patch_hif_sdio
 *fill*         0x009aedaa        0x2 00
 .text          0x009aedac      0x16f mac_core/patch/AR6320/v3/.output/AR6320/hw.3/lib/lib_maccore_patches.a(ar_wal_txbf_patch.o)
                0x009aedac                wal_txbfee_set_gid_userpos
                0x009aee4c                wal_txbfee_restore_gid_usr_tbl
                0x009aef00                wal_txbfee_check_continuous_cbf_read
 *fill*         0x009aef1b        0x1 00
 .text          0x009aef1c       0xbd mac_core/patch/AR6320/v3/.output/AR6320/hw.3/lib/lib_maccore_patches.a(wmi_dbgloghook_patch.o)
                0x009aef1c                dbglog_dispatch_WMI_cmd
                0x009aefc8                patch_dbglog_WMI_register
 *fill*         0x009aefd9        0x3 00
 .text          0x009aefdc      0x20b mac_core/patch/AR6320/v3/.output/AR6320/hw.3/lib/lib_maccore_patches.a(cmnos_allocram_patch.o)
                0x009aefdc                cmnos_allocram_ex
                0x009af0ac                cmnos_allocram_mem_iter_init
                0x009af0c4                cmnos_allocram_mem_iter_next_memhunk
                0x009af160                cmnos_allocram_mem_iter_next
 *fill*         0x009af1e7        0x1 00
 .text          0x009af1e8      0x5cd halphy/patch/AR6320/v3/.output/AR6320/hw.3/lib/lib_halphy_patches.a(ar6000_nf_cal_patch.o)
                                0x5ed (size before relaxing)
                0x009af1e8                patch_ar6000NfSaveCal
                0x009af370                ar6000AGCFilterPowerRestore
                0x009af484                ar6000CLPowerSave
                0x009af48c                ar6000CLPowerRestore
                0x009af540                ar6000NF_P_LoadCal
                0x009af654                patch_ar6000NfLoadCal
                0x009af660                ar6000Nf_P_RestoreMaxpower
                0x009af6b8                patch_ar6000NfStartCal
                0x009af6f4                ar6000_nf_save
                0x009af708                ar6000_nf_restore
                0x009af71c                patch_ar6000NfInitCal
                0x009af78c                ar6000_nf_cal_patch_install
 *fill*         0x009af7b5        0x3 00
 .text          0x009af7b8      0x74d halphy/patch/AR6320/v3/.output/AR6320/hw.3/lib/lib_halphy_patches.a(ar6000_ani_patch.o)
                                0x75d (size before relaxing)
                0x009af7b8                patch_ar6000_ani_control
                0x009af954                patch_ar6000_ani_set_ofdm_noise_immunity_level
                0x009afa20                my_ar6000_ani_store_ini_values
                0x009afe48                patch_ar6000_clear_mib_counters
                0x009afeb0                ar6000_ani_rts_for_noise
                0x009afedc                ar6000_ani_get_info
                0x009afef8                ar6000_ani_is_enabled
 *fill*         0x009aff05        0x3 00
 .text          0x009aff08      0x458 halphy/patch/AR6320/v3/.output/AR6320/hw.3/lib/lib_halphy_patches.a(ar6320_ini_patch.o)
                                0x46c (size before relaxing)
                0x009aff08                patch_ar6320ProgTxFirTable
                0x009aff38                ar6320Prog5gChanDenpendPatchTables
                0x009aff90                ar6320ProgAdditionalIniTables
                0x009b009c                patch_ar6320ProgIniTables
                0x009b02b4                ar6320ProgGainTable_patch
 .text          0x009b0360     0x178c halphy/patch/AR6320/v3/.output/AR6320/hw.3/lib/lib_halphy_patches.a(ar6320_tpc_config_patch.o)
                               0x1804 (size before relaxing)
                0x009b03e8                patch_ar6000GenPlutTable
                0x009b0560                patch_ar6320AlutGeneration
                0x009b0838                Enable_ClkGating
                0x009b086c                Restore_ClkGating
                0x009b0888                patch_ar6000ClpcPlutAlutUpdate
                0x009b0d64                patch_ar6320GetPdetPdadc
                0x009b1074                patch_ar6000SetPowerCalTable
                0x009b1680                patch_ar6320SetTpcCLPC
                0x009b1738                patch_ar6320ProgAlut
                0x009b17a4                updateNewDcIndex
                0x009b17e4                patch_ar6320PdetDcCal
 .text          0x009b1aec     0x157b halphy/patch/AR6320/v3/.output/AR6320/hw.3/lib/lib_halphy_patches.a(ar6320_eeprom_patch.o)
                               0x15b3 (size before relaxing)
                0x009b1aec                ar6000GetFwIniVersion
                0x009b1c0c                ar6000GetRssiIndBm
                0x009b1ca4                ar6000GetRssiOffsetforSS
                0x009b1d98                patch_ar6000SortSpurArray
                0x009b1fcc                ar6000IsVMode2Wire
                0x009b1fe0                patch_ar6000SpurDeltaPhase
                0x009b24c4                rom_ar6000EepromSetTransmitPower_fixed
                0x009b2908                patch_ar6000InitGreenTxEerpomConfig
                0x009b2bf0                patch_ar6000GetCurrentTempInDegC
                0x009b2c78                patch_ar6000EnterVmode
                0x009b2d10                ar6000GetTxSpurTPCInitPwrCfg
                0x009b2d3c                ar6000SetSARInd
                0x009b2d48                ar6000CheckHighTempBackoff
                0x009b2da0                ar6000GetTPCInitPwrCfg
                0x009b2e20                patch_ar6000SetCCKspur
                0x009b2e64                patch_ar6000SetHomePowerRateTable
                0x009b2ed4                ar6000EepromPatchSWCOMGpio
                0x009b2edc                ar6000EepromEnableRxDiversity
                0x009b2ee4                ar6000EepromSetRxDiversity
                0x009b2eec                patch_ar6000EepromProcessConfigAddr
                0x009b2fe4                patch_ar6000SetRegulatoryDomain
                0x009b2ffc                ar6000AdjustOFDMAckPower
 *fill*         0x009b3067        0x1 00
 .text          0x009b3068      0x8c7 halphy/patch/AR6320/v3/.output/AR6320/hw.3/lib/lib_halphy_patches.a(ar600P_reset_patch.o)
                                0x906 (size before relaxing)
                0x009b3068                adjustTxRxMask
                0x009b30c4                validateChainMasks
                0x009b3124                patch_ar6000ApplyChainMasksToHw
                0x009b320c                patch_ar6000CoexSetTxPowerLimit
                0x009b32b4                patch_ar6000WaitReg
                0x009b33c4                ar6000SetSCPCModeFlag
                0x009b3588                patch_ar6000WriteAssocid
                0x009b35f8                halt_mac_dma
                0x009b3674                patch_ar6000WlanHwReset
                0x009b36dc                patch_ar6000SetHwChainMasks
                0x009b3870                patch_ar6000SetChainMasks
                0x009b3888                patch_ar6000GetChainMasks
                0x009b38a8                ar6000GetChainMasksEx
                0x009b38d4                ar6000SetCTSChannelBW
 *fill*         0x009b392f        0x1 00
 .text          0x009b3930     0x20a6 halphy/patch/AR6320/v3/.output/AR6320/hw.3/lib/lib_halphy_patches.a(ar6000_paprd_patch.o)
                               0x20f2 (size before relaxing)
                0x009b3930                ar6000DPDGetCurTblIdx
                0x009b4788                ar6000PaprdAllTableCompleted
                0x009b4b14                ar6000PaprdRestrictPower
                0x009b4b58                ar6000PaprdGetSCPCIndirectionTable
                0x009b4b60                ar6000PaprdGetSCPCStruct
                0x009b4b68                ar6000PaprdDoPsatSCPCCal
                0x009b4b8c                ar6000PaprdDoSCPCCal
                0x009b4db8                ar6000_dpd_phyerr_war_init
                0x009b4e9c                ar6000PaprdXmitDummyFrame
                0x009b5130                patch_ar6000PaprdReset
                0x009b51b0                patch_ar6000PaprdStopTimer
                0x009b51d4                patch_ar6000PaprdStartTimer
                0x009b5204                patch_ar6000PaprdCalibrationResetSM
                0x009b5228                ar6000PaprdRecoverHang
                0x009b5278                patch_ar6000PaprdCalibrationSM
                0x009b55e4                patch_ar6000PaprdDoCalibration
                0x009b56bc                patch_ar6000PaprdConfig
                0x009b5818                patch_ar6000PaprdSetPower
                0x009b5860                ar6000PaprdGetTxDesc
                0x009b587c                ar6000PaprdGetTxQ
                0x009b5964                patch_ar6000PostAwakeProcessPaprd
                0x009b5988                patch_ar6000PostSleepProcessPaprd
 *fill*         0x009b59d6        0x2 00
 .text          0x009b59d8       0x45 halphy/patch/AR6320/v3/.output/AR6320/hw.3/lib/lib_halphy_patches.a(ar6000_phy_patch.o)
                                 0x49 (size before relaxing)
 *fill*         0x009b5a1d        0x3 00
 .text          0x009b5a20      0xdb0 mac_core/src/wal/AR/rtt/.output/AR6320/hw.3/lib/ar_wal_rtt.a(wal_rtt.o)
                0x009b5a20                _wal_rtt_get_dyn_bw
                0x009b5a60                _wal_rtt_ctxt_init
                0x009b5ac4                _wal_report_type2_buffer_init
                0x009b5b1c                _wal_report_type2_buffer_clean
                0x009b5b60                _wal_report_type2_per_peer_report_buff_init
                0x009b5c08                _wal_report_type2_buffer_len
                0x009b5c3c                _wal_rtt_ctxt_clean
                0x009b5c70                _wal_rtt_resp_hw_recover
                0x009b5c84                _wal_rtt_get_tx_rate
                0x009b5c8c                _wal_rtt_get_rx_rate
                0x009b5c94                _wal_rtt_local_frame_send_with_rate
                0x009b5ce4                _wal_fac_handler
                0x009b5f9c                _wal_rtt_obtain_stronger_rssi
                0x009b5ff4                _wal_report_type2_collect_report_info
                0x009b62bc                _wal_rtt_null_ack_hdl
                0x009b6348                _wal_rtt_tmr_start_ack_hdl
                0x009b6374                _wal_rtt_tmr_stop_ack_hdl
                0x009b637c                _wal_rtt_tm_ack_hdl
                0x009b644c                _wal_rtt_mac_match
                0x009b647c                _wal_rtt_tmr_rx_hdl
                0x009b651c                _wal_rtt_tm_rx_hdl
 .text          0x009b67d0      0x49a mac_core/src/wal/AR/nan/.output/AR6320/hw.3/lib/ar_wal_nan.a(wal_nan_mac.o)
                                0x4ae (size before relaxing)
                0x009b67d0                _wal_nan_mac_cancel_dwcm_tmr
                0x009b67fc                _wal_nan_mac_fire_dwcm_tmr
                0x009b6830                _wal_nan_mac_dwcm_timeout
                0x009b68b4                _wal_nan_mac_dw_timeout
                0x009b6920                _wal_nan_mac_frame_lifetime
                0x009b692c                _wal_nan_mac_get_remaining_dw
                0x009b6948                _wal_nan_mac_update_dw
                0x009b6a48                _wal_nan_mac_set_backoff_params
                0x009b6ad0                _wal_nan_mac_get_backoff_params
                0x009b6b18                _wal_nan_mac_qcu_filter
                0x009b6b60                _wal_nan_mac_bcn_filter
                0x009b6b74                _wal_nan_mac_force_rbo
                0x009b6bbc                _wal_nan_mac_prepare_whal
                0x009b6c4c                _wal_nan_mac_resume_dwcm_tmr_exec
 *fill*         0x009b6c6a        0x2 00
 .text          0x009b6c6c      0x31a /cad/tensilica/chips/peregrine/RE-2013.3-linux/peregrine/xtensa-elf/lib/xcc//libgcc.a(_udivdi3.o)
                                0x35a (size before relaxing)
                0x009b6c6c                __udivdi3
 *fill*         0x009b6f86        0x2 00
 .text          0x009b6f88       0x23 mac_core/src/wal/whal/init/.output/AR6320/hw.3/lib/libwhal_init.a(whal_init.o)
                0x009b6f88                whal_attach_pre_init
 *fill*         0x009b6fab        0x1 00
 .text          0x009b6fac     0x13e1 mac_core/apps/utf/AR6320/.output/AR6320/hw.3/lib/libar6320.a(whal_SCPC.o)
                               0x1409 (size before relaxing)
                0x009b6fac                whal_install_patches_utf
                0x009b701c                ar6000UtfDoSCPCPerBand
                0x009b712c                ar6000EepromGetCalPiersNum
                0x009b717c                ar6000EepromIsSCPCEnable
                0x009b71a0                ar6000EepromGetSCPCGlutPier
                0x009b71e0                ar6000EepromGetSetOLPCSetting
                0x009b73ac                ar6000IsEnable2GReSegment
                0x009b73c4                ar6000EepromGetSCPCG0GoalPower
                0x009b747c                ar6000EepromGetPsat
                0x009b7530                ar6000IsDPDEnabled
                0x009b7554                ar6000EepromSCPCDone
                0x009b7568                ar6000EepromPsatPwrEepromOffsetAddress
                0x009b7588                ar6000EepromGetTxRxChainMask
                0x009b75cc                my_pow_utf
                0x009b75e4                ar6000generateTxGainTblFromCfg
                0x009b7648                ar6000PaprdSCPCFindAppropriateTxGainIndex
                0x009b768c                ar6000UtfPaprdDoSCPCCal
                0x009b7b34                ar6000UtfPaprdDoPsatSCPCCal
                0x009b7d88                my_div_utf
                0x009b7dcc                log_ten
                0x009b7e14                calc_G_fxp
                0x009b7e4c                ar6000UtfPaprdcalcbackoff
                0x009b7fbc                patch_utf_ar6000PaprdProcessTrainingData
                0x009b80b0                patch_utf_ar6000PaprdTrainNextGainIndex
                0x009b81a8                ar6000PaprdGetSCPCTxGainIndex
                0x009b81b8                ar6000UtfPaprdSCPCProgramTxCfg
                0x009b8224                ar6000UtfPaprdSCPCInitTrainingRegisters
                0x009b8290                ar6000UtfPaprdSCPCOverrideChainMask
                0x009b82a8                ar6000UtfPaprdSCPCInitTrainingVariables
                0x009b82c4                ar6000UtfPaprdSCPCTableIndexrangeGet
                0x009b82e8                ar6000UtfPaprdSCPCForceHomeChannel_0
                0x009b82f8                ar6000UtfDoSCPC
                0x009b8340                ar6000UtfdDoPsatCal
 *fill*         0x009b838d        0x3 00
 .text          0x009b8390      0x3f1 mac_core/apps/utf/AR6004/.output/AR6320/hw.3/lib/libar6004utf.a(dkkernel.o)
                                0x409 (size before relaxing)
                0x009b8490                registerClient
                0x009b84e0                unregisterClient
                0x009b8518                kpInit
                0x009b8524                kpExit
                0x009b852c                kpOpen
                0x009b857c                kpClose
                0x009b85a0                kpGetClientInfo
                0x009b85ec                kpCreateEvent
                0x009b8674                kpGetNextEvent
                0x009b86c8                kpCfgRead
                0x009b877c                kpCfgWrite
 *fill*         0x009b8781        0x3 00
 .text          0x009b8784      0x25e mac_core/apps/utf/AR6004/.output/AR6320/hw.3/lib/libar6004utf.a(event.o)
                0x009b8784                initEventQueue
                0x009b8794                deleteEventQueue
                0x009b87b8                initEventArray
                0x009b87d0                getEvent
                0x009b8800                freeEvent
                0x009b880c                createEvent
                0x009b885c                copyEvent
                0x009b88c8                pushEvent
                0x009b88fc                popEvent
                0x009b8930                removeEvent
                0x009b8974                startQueueScan
                0x009b8994                stopQueueScan
                0x009b89c4                checkForEvents
 *fill*         0x009b89e2        0x2 00
 .text          0x009b89e4      0x413 mac_core/apps/utf/AR6004/.output/AR6320/hw.3/lib/libar6004utf.a(hw.o)
                                0x41b (size before relaxing)
                0x009b89e4                uDelay
                0x009b89f4                initCrcTable
                0x009b8a24                envInit
                0x009b8ad4                envCleanup
                0x009b8ae8                deviceInit
                0x009b8bb0                hwInit
                0x009b8bc0                deviceCleanup
                0x009b8be4                checkRegSpace
                0x009b8c00                checkMemSpace
                0x009b8c1c                hwMemRead32
                0x009b8c28                hwMemClear
                0x009b8c3c                hwMemWrite32
                0x009b8c4c                hwMemWriteBlock
                0x009b8ca0                hwMemReadBlock
                0x009b8cf0                wake_up
                0x009b8cf8                deep_sleep
                0x009b8d00                hwCreateEvent
                0x009b8d40                hwCreateEvt
                0x009b8d8c                hwGetNextEvent
                0x009b8dac                hwCfgRead32
                0x009b8dcc                hwCfgWrite32
 *fill*         0x009b8df7        0x1 00
 .text          0x009b8df8      0x111 mac_core/src/misc/extend_alloc/.output/AR6320/hw.3/lib/libextendalloc.a(extend_allocate.o)
                0x009b8df8                _extend_allocram_init_done
                0x009b8ed0                _extend_allocram_get_switched_irams
 *fill*         0x009b8f09        0x3 00
 .text          0x009b8f0c     0x1481 mac_core/src/hostif/htc/.output/AR6320/hw.3/lib/libhtc.a(htc.o)
                0x009b8f0c                _HTC_PipeAddBufferResources
                0x009b8f14                _HTCPipePutRecvBuffers
                0x009b8f40                _HTCPipeGetRecvBuffer
                0x009b8f5c                _HTCPipePostRecvBuffers
                0x009b8fdc                _HTCPipeProcessControlMsg
                0x009b9174                _HTCPipeProcessConnectMsg
                0x009b92f0                _HTCPipeSendSuspendCompleted
                0x009b933c                HifLayerSendDoneCallback
                0x009b9480                _HTCPipeProcessRecvMessage
                0x009b95d8                _HTCPipeProcessRecvBundle
                0x009b966c                HifLayerRecvCallback
                0x009b97cc                _HTCSetupPipeResource
                0x009b9810                _HTC_PipeInitEx
                0x009b982c                _HTC_PipeRegisterService
                0x009b983c                _HTCPipeSetupPipes
                0x009b988c                _HTC_PipeReady
                0x009b9960                _HTC_PipeReturnBuffers
                0x009b9a18                _HTCPipeAddCreditReports
                0x009b9b04                _HTCPipeTryAllocateTrailer
                0x009b9b70                _HTC_PipeSendMsg
                0x009b9c3c                _HTC_PipePauseRecv
                0x009b9c54                _HTC_PipeResumeRecv
                0x009b9c98                _HTC_PipeGetNumSendBufsPending
                0x009b9ca0                _HTC_SuspendSend
                0x009b9dd4                _HTC_NACKSuspend
                0x009b9e30                _HTCPipeFreeMsgBuffer
                0x009b9e60                _HTCPipeAllocMsgBuffer
                0x009b9e7c                _HTCPipeProcessCtrlSendComplete
                0x009b9f5c                _HTCPipeIndicateSendComplete
                0x009b9f8c                _HTCPipeEnqueuePausedRecv
                0x009b9fb0                _HTCPipeDequeuePausedRecv
                0x009ba004                _HTCPipeIndicateRecvMgs
                0x009ba080                _HTCPipeAdjustCreditThreshold
                0x009ba0b0                _HTCPipeCheckAndSendCreditReport
                0x009ba16c                _HTCPipeRegisterWowTimestampCB
                0x009ba178                _PrepMsgInfo
                0x009ba234                _CompleteHTCMsg
                0x009ba29c                _PipeSendCommit
                0x009ba31c                _HTC_GenericPipeSendBundle
                0x009ba33c                _HTC_GenericPipeCommitLookahead
                0x009ba344                _HTC_GenericPipeClrLookaheadStatus
                0x009ba34c                _RemoveAddedTrailer
 *fill*         0x009ba38d        0x3 00
 .text          0x009ba390       0x92 mac_core/src/misc/module_id/.output/AR6320/hw.3/lib/libmodule_id.a(module_id.o)
                0x009ba390                _module_id_init
                0x009ba3d0                _module_id_to_pause_id
 *fill*         0x009ba422        0x2 00
 .text          0x009ba424      0x371 mac_core/src/utils/sm/.output/AR6320/hw.3/lib/libsm.a(sm.o)
                                0x375 (size before relaxing)
                0x009ba424                _sm_shared_create
                0x009ba4bc                _sm_init
                0x009ba4e4                _sm_get_curstate
                0x009ba4ec                _sm_get_next_state
                0x009ba4f4                _sm_get_prev_state
                0x009ba5bc                _sm_dispatch
                0x009ba6d0                _sm_transition_to
 *fill*         0x009ba795        0x3 00
 .text          0x009ba798     0x6d41 mac_core/src/wal/AR/coex/.output/AR6320/hw.3/lib/wal_coex.a(wal_coex.o)
                0x009ba798                _wal_coex_tx_de_cb
                0x009ba7bc                _wal_coex_cal_cb
                0x009ba7d0                _wal_coex_halphy_cb
                0x009ba8e0                _wal_coex_cts2s_timer_handler
                0x009ba948                _wal_coex_crit_proto_hint_expired
                0x009ba99c                _wal_coex_sleep_delay_expired
                0x009ba9a4                _wal_coex_ant_share_timer
                0x009ba9b4                _wal_coex_add_to_list
                0x009ba9fc                _wal_coex_remove_from_list
                0x009baa64                _wal_coex_isr
                0x009baa6c                _wal_coex_dsr
                0x009baa88                _wal_coex_wbtmr_dsr
                0x009baab8                _wal_coex_config_debug_gpio
                0x009baac0                _wal_coex_state_change_sim
                0x009baae0                _wal_coex_call_state_change_sim
                0x009bab20                _wal_coex_beacon_tx_event_cb
                0x009bab40                _wal_coex_swba_tbtt_cb
                0x009babd8                _wal_coex_sched_timeout
                0x009babe0                _wal_coex_chainmask_update_handler
                0x009babf4                _wal_coex_get_delta_time
                0x009bac08                _wal_coex_select_psp_vdev
                0x009baccc                _wal_coex_pause_for_sta
                0x009bad48                _wal_coex_unpause_for_sta
                0x009badac                _wal_coex_scc_sta_update
                0x009bae74                _wal_coex_rx_throughput_monitor
                0x009baf54                _wal_coex_rssi_monitor
                0x009bb00c                _wal_coex_peer_rx_thresh_reset
                0x009bb028                _wal_coex_system_rx_thresh_config
                0x009bb070                _wal_coex_system_monitor
                0x009bb1fc                _wal_coex_wlan_register_rc_cb
                0x009bb20c                _wal_coex_wlan_register_psp_cb
                0x009bb228                _wal_coex_wlan_register_smps_cb
                0x009bb238                _wal_coex_wlan_register_tdls_cb
                0x009bb248                _wal_coex_wlan_sleep_enable
                0x009bb260                _wal_coex_enter_cts2s_mode
                0x009bb2d0                _wal_coex_exit_cts2s_mode
                0x009bb32c                _wal_coex_trfmgmt_cts2s
                0x009bb488                _wal_coex_cts2s_get_nav
                0x009bb498                _wal_coex_force_cts2s_res_cb
                0x009bb4f8                _wal_coex_wlan_register_cts2s_cb
                0x009bb50c                _wal_coex_wlan_register_debug_utils
                0x009bb51c                _wal_coex_vdev_created
                0x009bb530                _wal_coex_bmiss_monitor
                0x009bb5ac                _wal_coex_update_rx_thresh
                0x009bb5e8                _wal_coex_init_rx_rate_thresh
                0x009bb6b4                _wal_coex_set_rx_rate_thresh
                0x009bb7bc                _wal_coex_peer_rx_rate_cb
                0x009bb890                _wal_coex_get_rssi
                0x009bb900                _wal_coex_chainmask_update
                0x009bba20                _wal_coex_whal_init_start_cb
                0x009bbac4                _wal_coex_whal_init_cb
                0x009bbacc                _wal_coex_channel_change_cb
                0x009bbb5c                _wal_coex_soc_power_change_cb
                0x009bbb88                _wal_coex_power_change_cb
                0x009bbca8                _wal_coex_prioritize_mgmt_frames
                0x009bbcc0                _wal_coex_prioritize_ibss_mgmt_frames
                0x009bbd20                _wal_coex_prioritize_beacon_rx
                0x009bbd50                _wal_coex_inc_beacon_priority
                0x009bbda0                _wal_coex_reset_beacon_priority
                0x009bbdf0                _wal_coex_config_rc_chainmask
                0x009bbe74                _wal_coex_update_1ss_tx_selfgen_mask
                0x009bbef4                _wal_coex_config_manager
                0x009bbfc8                _wal_coex_get_wlan_systemstate
                0x009bbfe0                _wal_coex_find_wlanstate
                0x009bc00c                _wal_coex_find_wlanstate_all_vdev
                0x009bc038                _wal_coex_is_peer_security_inprogress
                0x009bc070                _wal_coex_is_vdev_scanning
                0x009bc0a4                _wal_coex_is_vdev_connecting
                0x009bc0d8                _wal_coex_is_peer_crit_proto_hint
                0x009bc10c                _wal_coex_is_vdev_nan_discovering
                0x009bc144                _wal_coex_reassess_wlanstate
                0x009bc260                _wal_coex_determine_vdev_state
                0x009bc294                _wal_coex_update_vdev
                0x009bc334                _wal_coex_get_sap_state
                0x009bc368                _wal_coex_get_sap_vdev
                0x009bc3a4                _wal_coex_get_num_vdev_by_type
                0x009bc3e8                _wal_coex_increase_bcn_tx_priority
                0x009bc414                _wal_coex_add_to_wlanlist
                0x009bc438                _wal_coex_remove_from_wlanlist
                0x009bc480                _wal_coex_get_first_2g_vdev
                0x009bc4c4                _wal_coex_find_first_same_channel_vdev_id
                0x009bc508                _wal_coex_update_concurrency_vdev_counters
                0x009bc5fc                _wal_coex_ant_share_update
                0x009bcb78                _wal_coex_update_concurrency_state
                0x009bcc7c                _wal_coex_concurrency_manager
                0x009bcc84                _wal_coex_reset_vdev
                0x009bce5c                _wal_coex_update_wlanstate
                0x009bde44                _wal_coex_timer_handler
                0x009bde54                _wal_coex_bt_cal_timer_handler
                0x009bde70                _wal_coex_set_rc_nss
                0x009bded0                _wal_coex_configure_fullconcurrency
                0x009bdf38                _wal_coex_set_scheme
                0x009bdffc                _wal_coex_pause_wlan_peer
                0x009be004                _wal_coex_wlan_peer_unpause
                0x009be0d8                _wal_coex_is_pause_warranted
                0x009be0e0                _wal_coex_num_of_connected_2g_vdev
                0x009be138                _wal_coex_find_same_channel_vdev
                0x009be1b4                _wal_coex_update_deweight
                0x009be1bc                _wal_coex_is_rx_throughput_critical
                0x009be1e8                _wal_coex_singlechain_init
                0x009be240                _wal_coex_multichain_init
                0x009be2e4                _wal_coex_singlechain_systemupdate
                0x009be34c                _wal_coex_multichain_systemupdate
                0x009be3e8                _wal_coex_get_trafficmgmt_algorithm
                0x009be8a4                _wal_coex_set_psp_params
                0x009be8e8                _wal_coex_get_t2p2pnoa_blocking
                0x009be934                _wal_coex_get_p2pnoa_blocking_duration
                0x009be968                _wal_coex_mws_trfmgmt_psp_do
                0x009bea0c                _wal_coex_mws_trfmgmt_psp
                0x009bea64                _wal_coex_trfmgmt_psp
                0x009becd0                _wal_coex_prioritize_flow_control_frames
                0x009bed3c                _wal_coex_prioritize_wlan_collision
                0x009bed6c                _wal_coex_enter_psp_mode
                0x009bee0c                _wal_coex_exit_psp_mode
                0x009bee94                _wal_coex_psp_update_nonwlan_int
                0x009bef34                _wal_coex_wlan_state_based_mgmt_frm_weight
                0x009bef80                _wal_coex_system_update
                0x009bf72c                _wal_coex_rc_time_limit_adjust
                0x009bf754                _wal_coex_set_rc_time_limit
                0x009bf85c                _wal_coex_determine_wlan_interval
                0x009bf864                _wal_coex_scheduler_pre_op
                0x009bf86c                _wal_coex_scheduler_post_op
                0x009bf874                _wal_coex_exit_noa_mode
                0x009bf8f0                _wal_coex_enter_noa_mode
                0x009bf908                _wal_coex_trfmgmt_noa
                0x009bf910                _wal_coex_dynamic_a2dp_state_handler
                0x009bf954                _wal_coex_exit_dynamic_ocs_mode
                0x009bf9dc                _wal_coex_enter_dynamic_ocs_mode
                0x009bfaa4                _wal_coex_trfmgmt_dynamic
                0x009bfb00                _wal_coex_trfmgmt_freerun
                0x009bfcc8                _wal_coex_trfmgmt_pm
                0x009bfcd0                _wal_coex_trfmgmt_ocs
                0x009bff4c                _wal_coex_sta_send_cts2s
                0x009bffbc                _wal_coex_start_wlan_interval
                0x009bffdc                _wal_coex_start_bt_interval
                0x009c0008                _wal_coex_start_mws_interval
                0x009c0020                _wal_coex_schedule
                0x009c0794                _wal_coex_manager
                0x009c0d3c                _wal_coex_set_quiet_time
                0x009c0d7c                _wal_coex_wlan_layer_ready
                0x009c0da4                _wal_coex_wlan_register_ba_teardown_update_cb
                0x009c0db4                _wal_coex_wlan_register_data_rx_reorder_timeout_cb
                0x009c0dc4                _wal_coex_wlan_register_swbmiss_cb
                0x009c0dd4                _wal_coex_wlan_register_swbmiss_param_cb
                0x009c0de4                _wal_coex_wlan_register_cck_enable_cb
                0x009c0df4                _wal_coex_wlan_register_ocs_cb
                0x009c0e10                _wal_coex_ocs_grant_bt
                0x009c0e98                _wal_coex_opt_timer_handler
                0x009c0ea0                _wal_coex_enter_ocs_mode
                0x009c0f98                _wal_coex_exit_ocs_mode
                0x009c108c                _wal_coex_update_ocs_transition_state
                0x009c109c                _wal_coex_update_ocs_mode
                0x009c10f4                _wal_coex_wlan_register_noa_cb
                0x009c1108                _wal_coex_update_noa_data
                0x009c1110                _wal_coex_update_noa
                0x009c1118                _wal_coex_bcn_tx_handler
                0x009c1184                _wal_coex_get_ibss_state
                0x009c11b8                _wal_coex_get_ibss_vdev
                0x009c11f0                _wal_coex_trfmgmt_fixed_time
                0x009c13f0                _wal_coex_is_long_bt_req
                0x009c13f8                _wal_coex_config_oneshot_noa
                0x009c1400                _wal_coex_config_periodic_noa
                0x009c1468                _wal_coex_get_num_of_p2p_go_up
                0x009c149c                _wal_coex_prioritize_mgmt_txrx_frames
                0x009c14d4                _wal_coex_prioritize_ibss_mgmt_frames_stub
 *fill*         0x009c14d9        0x3 00
 .text          0x009c14dc     0x3a39 mac_core/src/wal/AR/coex/.output/AR6320/hw.3/lib/wal_coex.a(wal_btcoex.o)
                               0x3a3d (size before relaxing)
                0x009c14dc                _wal_btcoex_nonlink_get_type
                0x009c151c                _wal_btcoex_nonlink_extra_intervals
                0x009c15b0                _wal_btcoex_is_nonlink_active
                0x009c15c8                _wal_btcoex_forcewake_wlan
                0x009c160c                _wal_btcoex_forcewake_timer_handler
                0x009c1634                _wal_btcoex_coex_manager_context
                0x009c1650                _wal_btcoex_call_coex_manager
                0x009c167c                _wal_btcoex_transport_init_complete_cb
                0x009c168c                _wal_btcoex_pause_cb
                0x009c1710                _wal_btcoex_handle_full_sleep
                0x009c1740                _wal_btcoex_full_sleep_waking
                0x009c1774                _wal_btcoex_hwq_cb
                0x009c17c4                _wal_btcoex_intf_timer_handler
                0x009c17e0                _wal_btcoex_band_change
                0x009c17f0                _wal_btcoex_update_afh
                0x009c1940                _wal_btcoex_isr
                0x009c1960                _wal_btcoex_process_band_change
                0x009c1970                _wal_btcoex_mci_timer_handler
                0x009c19d0                _wal_btcoex_mci_recovery
                0x009c1ab8                _wal_btcoex_mci_process_gpm_int
                0x009c1b60                _wal_btcoex_snapshot_valid_sched_msgs
                0x009c1bf8                _wal_btcoex_earliest_valid_sched_msg
                0x009c1c44                _wal_btcoex_get_t2bt
                0x009c1d00                _wal_btcoex_get_bt_duration
                0x009c1e00                _wal_btcoex_mci_isr
                0x009c1fbc                _wal_btcoex_profile_list_reset_all
                0x009c203c                _wal_btcoex_config_cck_rates
                0x009c2058                _wal_btcoex_update_swbmiss_param
                0x009c20c8                _wal_btcoex_prof_info
                0x009c238c                _wal_btcoex_reset_topology_info
                0x009c250c                _wal_btcoex_alloc_local_link_id
                0x009c25a8                _wal_btcoex_dealloc_local_link_id
                0x009c260c                _wal_btcoex_get_master_required_duration
                0x009c2644                _wal_btcoex_process_btprofile_gpm
                0x009c2df4                _wal_btcoex_wlan_register_cb
                0x009c2e08                _wal_btcoex_handle_critical_links
                0x009c2e48                _wal_btcoex_process_status_update
                0x009c3008                _wal_btcoex_process_debug_print
                0x009c3010                _wal_btcoex_bt_power_on
                0x009c307c                _wal_btcoex_record_bt_rxss_lower_thresh
                0x009c3100                _wal_btcoex_record_inactivity_info
                0x009c317c                _wal_btcoex_get_t2bt_extended
                0x009c3248                _wal_btcoex_process_scan_activity
                0x009c3368                _wal_btcoex_process_scan_activity_bitmap
                0x009c33d4                _wal_btcoex_process_btle_scan_activity
                0x009c3414                _wal_btcoex_process_sched_info_trigger_rsp
                0x009c3428                _wal_btcoex_set_sched_trigger
                0x009c3494                _wal_btcoex_process_bt_scan_op
                0x009c349c                _wal_btcoex_ant_freq_overlapping_detection
                0x009c34f0                _wal_btcoex_process_connect_status
                0x009c380c                _wal_btcoex_mci_process_bt_on
                0x009c3860                _wal_btcoex_process_scan_update
                0x009c3a34                _wal_btcoex_process_long_le_scan
                0x009c3a9c                _wal_btcoex_process_report_bt_reg
                0x009c3aa4                _wal_btcoex_process_bt_queue_overflow
                0x009c3aec                _wal_btcoex_process_bt_req_wlan_flag
                0x009c3b14                _wal_btcoex_process_bt_additional_prof_info
                0x009c3b60                _wal_btcoex_update_critical_nonlink
                0x009c3c40                _wal_btcoex_mci_process_gpm
                0x009c3ef4                _wal_btcoex_setconcurrency
                0x009c3efc                _wal_btcoex_sm_idle
                0x009c3f7c                _wal_btcoex_setweight
                0x009c42b0                _wal_btcoex_config_bt_profile
                0x009c4304                _wal_btcoex_pause_bt_profile
                0x009c4350                _wal_btcoex_pause_coex_interval
                0x009c4360                _wal_btcoex_start_bt_interval
                0x009c43e8                _wal_btcoex_reset_coex_interval
                0x009c43f0                _wal_btcoex_start_wlan_interval
                0x009c4474                _wal_btcoex_start_wlan_cts2s_interval
                0x009c44e8                _wal_btcoex_set_bt_prio_limit
                0x009c44fc                _wal_btcoex_set_bt_counter_limit
                0x009c450c                _wal_btcoex_add_profile
                0x009c45c0                _wal_btcoex_remove_profile
                0x009c46a0                _wal_btcoex_track_profile
                0x009c4858                _wal_btcoex_update_bt_rxss_lower_thresh
                0x009c48e0                _wal_btcoex_enable_bt_traffic_tracking
                0x009c490c                _wal_btcoex_enable_bt_slave_inactivity_tracking
                0x009c49e0                _wal_btcoex_get_bt_traffic_status
                0x009c4a98                _wal_btcoex_is_bt_granted
                0x009c4c30                _wal_btcoex_process_periodical_traffic
                0x009c4c38                _wal_btcoex_is_high_frequency_bt_active
                0x009c4c88                _wal_btcoex_init_stub
                0x009c4c90                _wal_btcoex_forcewake_wlan_stub
                0x009c4c98                _wal_btcoex_nonlink_get_type_stub
                0x009c4ca0                _wal_btcoex_nonlink_extra_intervals_stub
                0x009c4ca8                _wal_btcoex_is_nonlink_active_stub
                0x009c4cb0                _wal_btcoex_coex_manager_context_stub
                0x009c4cb8                _wal_btcoex_call_coex_manager_stub
                0x009c4cc0                _wal_btcoex_transport_init_complete_cb_stub
                0x009c4cc8                _wal_btcoex_pause_cb_stub
                0x009c4cd0                _wal_btcoex_hwq_cb_stub
                0x009c4cd8                _wal_btcoex_handle_full_sleep_stub
                0x009c4ce0                _wal_btcoex_full_sleep_waking_stub
                0x009c4ce8                _wal_btcoex_band_change_stub
                0x009c4cf0                _wal_btcoex_update_afh_stub
                0x009c4cf8                _wal_btcoex_isr_stub
                0x009c4d00                _wal_btcoex_process_band_change_stub
                0x009c4d08                _wal_btcoex_reset_topology_info_stub
                0x009c4d10                _wal_btcoex_process_btprofile_gpm_stub
                0x009c4d18                _wal_btcoex_wlan_register_cb_stub
                0x009c4d20                _wal_btcoex_process_status_update_stub
                0x009c4d28                _wal_btcoex_process_debug_print_stub
                0x009c4d30                _wal_btcoex_setconcurrency_stub
                0x009c4d38                _wal_btcoex_sm_idle_stub
                0x009c4d40                _wal_btcoex_setweight_stub
                0x009c4d48                _wal_btcoex_config_bt_profile_stub
                0x009c4d50                _wal_btcoex_pause_bt_profile_stub
                0x009c4d58                _wal_btcoex_pause_coex_interval_stub
                0x009c4d60                _wal_btcoex_start_bt_interval_stub
                0x009c4d68                _wal_btcoex_reset_coex_interval_stub
                0x009c4d70                _wal_btcoex_start_wlan_interval_stub
                0x009c4d78                _wal_btcoex_start_wlan_cts2s_interval_stub
                0x009c4d80                _wal_btcoex_set_bt_prio_limit_stub
                0x009c4d88                _wal_btcoex_set_bt_counter_limit_stub
                0x009c4d90                _wal_btcoex_track_profile_stub
                0x009c4d98                _wal_btcoex_bt_power_on_stub
                0x009c4da0                _wal_btcoex_record_bt_rxss_lower_thresh_stub
                0x009c4da8                _wal_btcoex_record_inactivity_info_stub
                0x009c4db0                _wal_btcoex_profile_list_reset_all_stub
                0x009c4db8                _wal_btcoex_prof_info_stub
                0x009c4dc0                _wal_btcoex_add_profile_stub
                0x009c4dc8                _wal_btcoex_remove_profile_stub
                0x009c4dd0                _wal_btcoex_process_scan_activity_stub
                0x009c4dd8                _wal_btcoex_process_scan_activity_bitmap_stub
                0x009c4de0                _wal_btcoex_process_btle_scan_activity_stub
                0x009c4de8                _wal_btcoex_process_sched_info_trigger_rsp_stub
                0x009c4df0                _wal_btcoex_snapshot_valid_sched_msgs_stub
                0x009c4df8                _wal_btcoex_earliest_valid_sched_msg_stub
                0x009c4e00                _wal_btcoex_get_t2bt_stub
                0x009c4e08                _wal_btcoex_get_bt_duration_stub
                0x009c4e10                _wal_btcoex_process_bt_scan_op_stub
                0x009c4e18                _wal_btcoex_ant_freq_overlapping_detection_stub
                0x009c4e20                _wal_btcoex_process_connect_status_stub
                0x009c4e28                _wal_btcoex_process_scan_update_stub
                0x009c4e30                _wal_btcoex_process_long_le_scan_stub
                0x009c4e38                _wal_btcoex_process_report_bt_reg_stub
                0x009c4e40                _wal_btcoex_process_bt_queue_overflow_stub
                0x009c4e48                _wal_btcoex_process_bt_req_wlan_flag_stub
                0x009c4e50                _wal_btcoex_update_critical_nonlink_stub
                0x009c4e58                _wal_btcoex_set_sched_trigger_stub
                0x009c4e60                _wal_btcoex_alloc_local_link_id_stub
                0x009c4e68                _wal_btcoex_dealloc_local_link_id_stub
                0x009c4e70                _wal_btcoex_enable_bt_traffic_tracking_stub
                0x009c4e78                _wal_btcoex_enable_bt_slave_inactivity_tracking_stub
                0x009c4e80                _wal_btcoex_get_bt_traffic_status_stub
                0x009c4e88                _wal_btcoex_update_bt_rxss_lower_thresh_stub
                0x009c4e90                _wal_btcoex_is_bt_granted_stub
                0x009c4e98                _wal_btcoex_process_periodical_traffic_stub
                0x009c4ea0                _wal_btcoex_handle_critical_links_stub
                0x009c4ea8                _wal_btcoex_mci_timer_handler_stub
                0x009c4eb0                _wal_btcoex_mci_process_gpm_int_stub
                0x009c4eb8                _wal_btcoex_mci_isr_stub
                0x009c4ec0                _wal_btcoex_mci_process_gpm_stub
                0x009c4ec8                _wal_btcoex_mci_recovery_stub
                0x009c4ed0                _wal_btcoex_intf_timer_handler_stub
                0x009c4ed8                _wal_btcoex_forcewake_timer_handler_stub
                0x009c4ee0                _wal_btcoex_get_master_required_duration_stub
                0x009c4ee8                _wal_btcoex_get_t2bt_extended_stub
                0x009c4ef0                _wal_btcoex_mci_process_bt_on_stub
                0x009c4ef8                _wal_btcoex_update_swbmiss_param_stub
                0x009c4f00                _wal_btcoex_process_bt_additional_prof_info_stub
                0x009c4f08                _wal_btcoex_config_cck_rates_stub
                0x009c4f10                _wal_btcoex_is_high_frequency_bt_active_stub
 *fill*         0x009c4f15        0x3 00
 .text          0x009c4f18     0x272a mac_core/src/wal/AR/coex/.output/AR6320/hw.3/lib/wal_coex.a(wal_mwscoex.o)
                               0x274e (size before relaxing)
                0x009c4f18                wal_mwscoex_state_ind_timer_hdl
                0x009c4f60                _wal_mwscoex_isr
                0x009c4f68                _wal_mwscoex_subf_filter
                0x009c4fdc                _wal_mwscoex_wbtmr_sync
                0x009c5168                _wal_mwscoex_tdm_handler
                0x009c51a0                _wal_mwscoex_tdm_tx
                0x009c51c8                _wal_mwscoex_dsr
                0x009c5258                _wal_mwscoex_wlan_register_cb
                0x009c5268                _wal_mwscoex_conflict_update
                0x009c5568                _wal_mwscoex_avoid_freq_rpt
                0x009c55e8                _wal_mwscoex_avoid_freq_clr
                0x009c565c                _wal_mwscoex_avoid_freq_fill
                0x009c56f0                _wal_mwscoex_mwsul_handler
                0x009c5754                _wal_mwscoex_cp_msg_send
                0x009c57b4                _wal_mwscoex_hdlc_frame_and_escape
                0x009c589c                _wal_mwscoex_hdlc_unframe
                0x009c58ec                _wal_mwscoex_cp_update_filltx
                0x009c5938                _wal_mwscoex_cp_sync_filltx_chk
                0x009c59bc                _wal_mwscoex_cp_sync_filltx_do
                0x009c5ae4                _wal_mwscoex_detect_timer_hdl
                0x009c5bc4                _wal_mwscoex_cp_sync_filltx
                0x009c5c00                _wal_mwscoex_eval_forced_tdm_exit_select_dpb_scenario
                0x009c5c5c                _wal_mwscoex_eval_dpb_exit_select_forced_tdm_scenario
                0x009c5d0c                _wal_mwscoex_set_wlan_operating_mode
                0x009c5d38                _wal_mwscoex_notify_rssi_change_event
                0x009c5d88                _wal_mwscoex_dpb_forced_tdm_switch
                0x009c5e3c                _wal_mwscoex_tdm_uplink_type_switch
                0x009c5e90                _wal_mwscoex_lte_wlan_sinr_deinit
                0x009c5ec0                _wal_mwscoex_lte_wlan_sinr_init
                0x009c5f04                _wal_mwscoex_lte_wlan_start_sinr_collection
                0x009c5f34                _wal_mwscoex_lte_wlan_stop_sinr_collection
                0x009c5f60                _wal_mwscoex_lte_wlan_sinr_computation
                0x009c6118                _wal_mwscoex_cp_wlan_lte_sinr_filltx
                0x009c619c                _wal_mwscoex_lte_sinr_rsp_await_timer_handler
                0x009c61bc                _wal_mwscoex_lte_sinr_interval_timer_handler
                0x009c622c                _wal_mwscoex_cp_wlan_state_ind_filltx
                0x009c62f4                _wal_mwscoex_timer_handler
                0x009c6340                _wal_mwscoex_txgrant_update
                0x009c63ac                _wal_mwscoex_get_lte_mac_status
                0x009c63f8                _wal_mwscoex_wlan_pwrlimit_sar
                0x009c6428                _wal_mwscoex_wlan_pwrlimit_set
                0x009c64ec                _wal_mwscoex_scheme_update
                0x009c66d4                _wal_mwscoex_wlan_event
                0x009c684c                wal_mwscoex_process_wwan_state
                0x009c69d4                _wal_mwscoex_remote_event
                0x009c70f8                _wal_mwscoex_hdlc_buffer_and_unescape
                0x009c71a4                _wal_mwscoex_cp_encode_and_send
                0x009c72c4                _wal_mwscoex_cp_recv_decode
                0x009c72e4                _wal_mwscoex_verification_stub
                0x009c72ec                _wal_mwscoex_get_t2mws
                0x009c7354                _wal_mwscoex_modem_power_state
                0x009c73b0                _wal_mwscoex_chan_avoid_update
                0x009c73e0                _wal_mwscoex_get_mws_duration
                0x009c74e4                _wal_mwscoex_tdm_event
                0x009c7560                _wal_mwscoex_cp_conflict_req_filltx
                0x009c75f4                _wal_mwscoex_conflict_req_timeout_handler
                0x009c762c                _wal_mwscoex_get_fbdspt
 *fill*         0x009c7642        0x2 00
 .text          0x009c7644      0x19f mac_core/src/wal/AR/coex/.output/AR6320/hw.3/lib/wal_coex.a(wal_mwscoex_crc.o)
                0x009c7644                crc_16_calc
                0x009c76c0                crc_16_l_calc
                0x009c7744                crc_30_calc
                0x009c774c                crc_30_step
                0x009c7754                crc_16_step
                0x009c7798                crc_16_l_step
                0x009c77dc                crc_32_calc
 *fill*         0x009c77e3        0x1 00
 .text          0x009c77e4     0x1187 mac_core/src/wal/AR/coex/.output/AR6320/hw.3/lib/wal_coex.a(qmi_idl_lib.o)
                0x009c77e4                qmi_idl_next_element
                0x009c7848                qmi_idl_find_msg
                0x009c78f4                qmi_idl_decode_find_tlv
                0x009c792c                qmi_idl_decode_verify_mandatory
                0x009c79e0                qmi_idl_decode_element
                0x009c8104                qmi_idl_message_decode_v6
                0x009c8238                qmi_idl_encode_element
                0x009c87f0                qmi_idl_message_encode_v6
                0x009c888c                qmi_idl_message_decode
                0x009c88c8                qmi_idl_message_encode
                0x009c890c                qmi_idl_encode_resp_tlv
                0x009c8964                qmi_idl_get_std_resp_tlv_len
 *fill*         0x009c896b        0x1 00
 .text          0x009c896c      0x1c2 mac_core/src/wal/AR/coex/.output/AR6320/hw.3/lib/wal_coex.a(qmi_idl_accessor.o)
                0x009c896c                qmi_idl_get_idl_version
                0x009c8990                qmi_idl_get_idl_minor_version
                0x009c89bc                qmi_idl_get_service_id
                0x009c89e0                qmi_idl_get_max_service_len
                0x009c8a04                qmi_idl_get_max_message_len
                0x009c8a60                qmi_idl_get_message_c_struct_len
                0x009c8a98                qmi_idl_get_max_c_struct_len
                0x009c8aec                qmi_idl_inherit_service_object
                0x009c8b1c                qmi_idl_get_inherited_service_object
 *fill*         0x009c8b2e        0x2 00
 .text          0x009c8b30       0x15 mac_core/src/wal/AR/coex/.output/AR6320/hw.3/lib/wal_coex.a(coexistence_service_v02.o)
                0x009c8b30                coex_get_service_object_internal_v02
 *fill*         0x009c8b45        0x3 00
 .text          0x009c8b48      0x965 mac_core/src/wal/whal/coex/.output/AR6320/hw.3/lib/whal_ar_coex.a(whal_coex.o)
                                0x9e7 (size before relaxing)
                0x009c8b48                _whal_coex_intf_pause_stub
                0x009c8b50                _whal_coex_intf_unpause_stub
                0x009c8b58                _whal_coex_intf_cal_result_stub
                0x009c8b60                _whal_coex_intf_set_wal_control_stub
                0x009c8b68                _whal_coex_intf_send_afh_stub
                0x009c8b70                _whal_coex_set_nav_stub
                0x009c8b78                _whal_coex_halphy_event_stub
                0x009c8b80                _whal_coex_reset
                0x009c8cf8                _whal_coex_register_callback
                0x009c8d10                _whal_coex_set_qcu_threshold
                0x009c8d38                _whal_coex_ena_quiet_time_pkts
                0x009c8d6c                _whal_coex_set_force_quiet_time
                0x009c8da0                _whal_coex_set_nfcal
                0x009c8e00                _whal_coex_set_deweight
                0x009c8ed4                _whal_coex_set_txtx_concurrency
                0x009c8ef4                _whal_coex_set_selfgen_tx_mask
                0x009c8f34                _whal_coex_lookup_selfgen_tx_mask
                0x009c8fb0                _whal_coex_get_selfgen_tx_mask
                0x009c901c                _whal_coex_allow_cal
                0x009c9040                _whal_coex_cal_start
                0x009c9070                _whal_coex_cal_end
                0x009c90a0                _whal_coex_process_band_change
                0x009c9198                _whal_coex_update_bt_config
                0x009c91d0                _whal_coex_set_weight
                0x009c91ec                _whal_coex_get_interrupts
                0x009c9208                _whal_coex_set_wal_control
                0x009c9240                _whal_coex_config_debug_gpio
                0x009c9248                _whal_coex_get_deweight_option
                0x009c9264                _whal_coex_set_deweight_option
                0x009c9280                _whal_coex_get_deweight
                0x009c9290                _whal_coex_set_nav
                0x009c92a4                _whal_coex_wbtimer_enable
                0x009c92c8                _whal_coex_wbtimer_get_curtime
                0x009c92d8                _whal_coex_set_wbtimer_expiration
                0x009c930c                _whal_coex_config_debug_bus
                0x009c93d0                _whal_btcoex_init_gpio_toggle
                0x009c940c                _whal_btcoex_toggle_gpio
                0x009c9468                _whal_btcoex_set_gpio
 *fill*         0x009c94ad        0x3 00
 .text          0x009c94b0     0x1ed9 mac_core/src/wal/whal/coex/.output/AR6320/hw.3/lib/whal_ar_coex.a(whal_mci.o)
                               0x1fa9 (size before relaxing)
                0x009c94b0                _whal_mci_error_handler
                0x009c9528                _whal_mci_reset
                0x009c97b8                _whal_mci_datapath_reset
                0x009c980c                _whal_mci_set_full_concurrency
                0x009c98c4                _whal_mci_set_txtx_concurrency
                0x009c9920                _whal_mci_pause
                0x009c9988                _whal_mci_unpause
                0x009c9a0c                _whal_mci_send_cal_grant
                0x009c9a44                _whal_mci_send_cal_req
                0x009c9a7c                _whal_mci_send_cal_done
                0x009c9ab4                _whal_mci_poll_bt_cal_done
                0x009c9b10                _whal_mci_finish_bt_cal_req
                0x009c9b28                _whal_mci_process_bt_cal_req
                0x009c9bb8                _whal_mci_process_bt_cal_done
                0x009c9bf0                _whal_mci_process_bt_cal_msg
                0x009c9c7c                _whal_mci_wlan_cal_start
                0x009c9da0                _whal_mci_wlan_cal_validate_result
                0x009c9eac                _whal_mci_wlan_cal_end
                0x009c9ed8                _whal_mci_disable_interrupt
                0x009c9ef8                _whal_mci_enable_interrupt
                0x009c9f18                _whal_mci_send_remote_reset
                0x009c9f40                _whal_mci_send_lna_take
                0x009c9f70                _whal_mci_send_lna_transfer
                0x009c9fa0                _whal_mci_send_req_wake
                0x009ca000                _whal_mci_send_sys_waking
                0x009ca008                _whal_mci_send_sys_sleeping
                0x009ca010                _whal_mci_wait_for_txdone
                0x009ca094                _whal_mci_send_version_query
                0x009ca0d4                _whal_mci_send_version_response
                0x009ca11c                _whal_mci_send_afh
                0x009ca150                _whal_mci_send_bt_status_query
                0x009ca184                _whal_mci_send_halt_bt
                0x009ca1cc                _whal_mci_send_bt_flags
                0x009ca22c                _whal_mci_send_bt_pause_profile
                0x009ca294                _whal_mci_send_acl_inactivity_trig
                0x009ca2d8                _whal_mci_send_bt_reg_op
                0x009ca338                _whal_mci_update_hw_busy
                0x009ca348                SendMsgDebug
                0x009ca7c0                _whal_mci_send_msg
                0x009ca908                _whal_mci_check_dsr
                0x009ca950                _whal_mci_reset_sequence
                0x009ca9b0                _whal_mci_reset_sequence_complete
                0x009caa10                _whal_mci_get_rtc_interrupts
                0x009caa50                _whal_mci_mac_power_state
                0x009caa60                _whal_mci_get_interrupts
                0x009cab10                _whal_mci_get_interrupts_ena
                0x009cab34                _whal_mci_get_hw_gpm_index
                0x009cab5c                _whal_mci_reset_req_wake
                0x009cab88                _whal_mci_sleep_update
                0x009cab9c                _whal_mci_update_sleep_state
                0x009cabcc                _whal_mci_get_sleep_state
                0x009cac00                _whal_mci_send_pending_msgs
                0x009cace8                _whal_mci_get_gpm_addr
                0x009cacf4                _whal_mci_set_wal_control
                0x009cad44                _whal_mci_lna_update_enable
                0x009cad4c                _whal_mci_scheduling_msg_enable
                0x009cada4                _whal_mci_set_weight
                0x009cadcc                _whal_mci_update_int_count
                0x009cb050                _whal_mci_register_init_complete_cb
                0x009cb060                _whal_mci_register_mci_isr_cb
                0x009cb070                _whal_mci_register_pause_cb
                0x009cb080                _whal_mci_pause_bus
                0x009cb0c4                _whal_mci_unpause_bus
                0x009cb12c                _whal_mci_enable_contention_stats
                0x009cb14c                _whal_mci_set_contention_stats_prio
                0x009cb180                _whal_mci_set_contention_stats_int_limit
                0x009cb190                _whal_mci_clear_contention_stats
                0x009cb1ac                _whal_mci_enable_ch_busy_stats
                0x009cb1cc                _whal_mci_clear_ch_busy_stats
                0x009cb1e8                _whal_mci_get_contention_stats
                0x009cb214                _whal_mci_get_ch_busy_stats
                0x009cb224                _whal_mci_set_global_bt_state
                0x009cb234                _whal_mci_get_global_bt_state
                0x009cb244                _whal_mci_send_bt_rxss_thres_query
                0x009cb288                _whal_mci_send_bt_rxss_threshold_update
                0x009cb2d0                _whal_mci_get_intf_config
                0x009cb2e4                _whal_mci_get_sched_info_addr
                0x009cb2f0                _whal_mci_send_sched_info_trigger
                0x009cb350                _whal_mci_send_priority_config
 *fill*         0x009cb389        0x3 00
 .text          0x009cb38c      0xd49 mac_core/src/wal/whal/coex/.output/AR6320/hw.3/lib/whal_ar_coex.a(whal_mws.o)
                                0xda1 (size before relaxing)
                0x009cb38c                _whal_mws_clk_latch
                0x009cb58c                _whal_mws_intf_config
                0x009cb638                _whal_mws_timer0_config
                0x009cb68c                _whal_mws_timer1_config
                0x009cb6e0                _whal_mws_wlan_grant_config
                0x009cb824                _whal_mws_rxprio_config
                0x009cb958                _whal_mws_tx_grant_get
                0x009cb974                _whal_mws_rx_grant_get
                0x009cb990                _whal_mws_rx_lprio_get
                0x009cb9ac                _whal_mws_2_isbusy
                0x009cb9e4                _whal_mws_2_reset
                0x009cb9fc                _whal_mws_3_reset
                0x009cba14                _whal_mws_reset
                0x009cba2c                _whal_mws_2_tdm_txfifo_config
                0x009cba68                _whal_mws_2_tdm_rxfifo_config
                0x009cbaa4                _whal_mws_2_tdm_fifodepth_get
                0x009cbae0                _whal_mws_2_tdm_fifo_reset
                0x009cbb34                _whal_mws_2_tdm_rx_mask
                0x009cbb64                _whal_mws_2_tdm_txfifopush
                0x009cbba4                _whal_mws_2_tdm_rxfifopop
                0x009cbc58                _whal_mws_2_tdm_txfifopop_mask
                0x009cbc94                _whal_mws_2_tdm_txfifopop
                0x009cbcd4                _whal_mws_2_tcm_timeout_set
                0x009cbcf8                _whal_mws_intr_enable
                0x009cbd14                _whal_mws_intr_status
                0x009cbd2c                _whal_mws_intr_hdl_1
                0x009cbd4c                _whal_mws_intr_hdl_type7_rxed
                0x009cbd84                _whal_mws_intr_hdl_type6_rxed
                0x009cbdbc                _whal_mws_intr_hdl_type5_rxed
                0x009cbdf4                _whal_mws_intr_hdl_type4_rxed
                0x009cbe24                _whal_mws_intr_hdl_type3_rxed
                0x009cbe44                _whal_mws_intr_hdl_type0_rxed
                0x009cbe64                _whal_mws_intr_status_clear
                0x009cbe80                _whal_mws_2_tx_mask
                0x009cbeb0                _whal_mws_2_directmsg_send
                0x009cbf4c                _whal_mws_2_sw_send
                0x009cbf60                _whal_mws_2_baudclk_config
                0x009cbf8c                _whal_mws_init
                0x009cc02c                _whal_mws_2_tx_break_mask
                0x009cc05c                _whal_mws_2_rx_break_mask
                0x009cc08c                _whal_mws_wlan_tpc_limit_set
                0x009cc0a8                _whal_coex_get_nav
                0x009cc0bc                _whal_mws_wlan_tpc_cmp
 *fill*         0x009cc0d5        0x3 00
 .text          0x009cc0d8      0x3b8 mac_core/apps/lib/.output/AR6320/hw.3/lib/libapp.a(efusew.o)
                                0x3e0 (size before relaxing)
                0x009cc0d8                _efuse_enable_write
                0x009cc194                _efuse_writemask_set
                0x009cc1ac                _efuse_write
                0x009cc248                _efuse_write_macro
                0x009cc47c                efusew_module_install
 .text          0x009cc490      0x499 mac_core/apps/lib/.output/AR6320/hw.3/lib/libapp.a(otpstreamw.o)
                0x009cc490                _otpstream_write_reset
                0x009cc4dc                otpstream_symbols_count
                0x009cc520                _otpstream_symbols_select
                0x009cc560                otpstream_push
                0x009cc5c0                _do_otpstream_write
                0x009cc8d0                _otpstream_write
                0x009cc8f0                _otpstream_remaining_bytes
                0x009cc910                otpstream_write_module_install
 *fill*         0x009cc929        0x0 00
 *fill*         0x009cc929        0x0 00
 *fill*         0x009cc929        0x0 00
 *fill*         0x009cc929        0x0 00
 *fill*         0x009cc929        0x0 00
 *fill*         0x009cc929        0x0 00
 *fill*         0x009cc929        0x0 00
 *fill*         0x009cc929        0x0 00
 .text          0x009cc929        0x0 mac_core/apps/utf/commonUTF/.output/AR6320/hw.3/lib/libcommonutf.a(_cmd_calParmBinTemplate.o)
 .text          0x009cc929        0x0 mac_core/apps/utf/commonUTF/.output/AR6320/hw.3/lib/libcommonutf.a(_cmd_nartCmdParmBinTemplate.o)
 .text          0x009cc929        0x0 mac_core/apps/utf/commonUTF/.output/AR6320/hw.3/lib/libcommonutf.a(_cmd_pmParmBinTemplate.o)
 .text          0x009cc929        0x0 mac_core/apps/utf/commonUTF/.output/AR6320/hw.3/lib/libcommonutf.a(_cmd_rxParmBinTemplate.o)
 .text          0x009cc929        0x0 mac_core/apps/utf/commonUTF/.output/AR6320/hw.3/lib/libcommonutf.a(_cmd_txParmBinTemplate.o)
 .text          0x009cc929        0x0 mac_core/apps/utf/commonUTF/.output/AR6320/hw.3/lib/libcommonutf.a(cmdParmsTemplate.o)
 .text          0x009cc929        0x0 mac_core/apps/utf/commonUTF/.output/AR6320/hw.3/lib/libcommonutf.a(_cmd_nartRspParmTxtTemplate.o)
 .text          0x009cc929        0x0 mac_core/apps/utf/commonUTF/.output/AR6320/hw.3/lib/libcommonutf.a(_cmd_rspGenericParmTxtTemplate.o)
 .text          0x009cc929        0x0 mac_core/apps/utf/commonUTF/.output/AR6320/hw.3/lib/libcommonutf.a(_cmd_rxStatusParmTxtTemplate.o)
 .text          0x009cc929        0x0 mac_core/apps/utf/commonUTF/.output/AR6320/hw.3/lib/libcommonutf.a(_cmd_submitreportParmTxtTemplate.o)
 .text          0x009cc929        0x0 mac_core/apps/utf/commonUTF/.output/AR6320/hw.3/lib/libcommonutf.a(_cmd_txStatusParmTxtTemplate.o)
 *fill*         0x009cc929        0x3 00
 .text          0x009cc92c        0x5 mac_core/apps/utf/AR6320/.output/AR6320/hw.3/lib/libar6320.a(ar6320Register.o)
                0x009cc92c                registerOneChip
 *fill*         0x009cc931        0x0 00
 *fill*         0x009cc931        0x0 00
 *fill*         0x009cc931        0x0 00
 *fill*         0x009cc931        0x0 00
 *fill*         0x009cc931        0x3 00
 .text          0x009cc934      0x175 mac_core/apps/utf/tcmd_utf/.output/AR6320/hw.3/lib/libtcmdutf.a(pn.o)
                0x009cc934                get_char_index
                0x009cc93c                get_char_bit_index
                0x009cc944                get_bit
                0x009cc9a0                set_bit
                0x009cca24                init_pn
 *fill*         0x009ccaa9        0x0 00
 *fill*         0x009ccaa9        0x0 00
 *fill*         0x009ccaa9        0x0 00
 *fill*         0x009ccaa9        0x0 00
 *fill*         0x009ccaa9        0x0 00
 *fill*         0x009ccaa9        0x0 00
 *fill*         0x009ccaa9        0x0 00
 .text          0x009ccaa9        0x0 mac_core/patch/AR6320/v3/.output/AR6320/hw.3/lib/lib_maccore_patches.a(install_patches.o)
 .text          0x009ccaa9        0x0 mac_core/patch/AR6320/v3/.output/AR6320/hw.3/lib/lib_maccore_patches.a(whal_install_patches.o)
 .text          0x009ccaa9        0x0 mac_core/patch/AR6320/v3/.output/AR6320/hw.3/lib/lib_maccore_patches.a(wal_install_patches.o)
 *fill*         0x009ccaa9        0x0 00
 *fill*         0x009ccaa9        0x0 00
 *fill*         0x009ccaa9        0x0 00
 *fill*         0x009ccaa9        0x0 00
 *fill*         0x009ccaa9        0x0 00
 *fill*         0x009ccaa9        0x0 00
 *fill*         0x009ccaa9        0x0 00
 *fill*         0x009ccaa9        0x0 00
 *fill*         0x009ccaa9        0x0 00
 *fill*         0x009ccaa9        0x0 00
 *fill*         0x009ccaa9        0x0 00
 *fill*         0x009ccaa9        0x0 00
 *fill*         0x009ccaa9        0x0 00
 *fill*         0x009ccaa9        0x0 00
 *fill*         0x009ccaa9        0x0 00
 *fill*         0x009ccaa9        0x0 00
 *fill*         0x009ccaa9        0x0 00
 .text          0x009ccaa9        0x0 mac_core/patch/AR6320/v3/.output/AR6320/hw.3/lib/lib_maccore_patches.a(wal_rtt_patch.o)
 .text          0x009ccaa9        0x0 mac_core/patch/AR6320/v3/.output/AR6320/hw.3/lib/lib_maccore_patches.a(whal_rtt_patch.o)
 *fill*         0x009ccaa9        0x0 00
 *fill*         0x009ccaa9        0x0 00
 *fill*         0x009ccaa9        0x0 00
 *fill*         0x009ccaa9        0x0 00
 *fill*         0x009ccaa9        0x0 00
 *fill*         0x009ccaa9        0x0 00
 *fill*         0x009ccaa9        0x0 00
 *fill*         0x009ccaa9        0x0 00
 .text          0x009ccaa9        0x0 mac_core/patch/AR6320/v3/.output/AR6320/hw.3/lib/lib_maccore_patches.a(ar_wal_rmc_patch.o)
 *fill*         0x009ccaa9        0x3 00
 .text          0x009ccaac       0x35 mac_core/patch/AR6320/v3/.output/AR6320/hw.3/lib/lib_maccore_patches.a(whal_rgc_patch.o)
                0x009ccaac                patch_whal_rgc_supported
                0x009ccab4                patch_whal_rgc_enable
                0x009ccabc                patch_whal_rgc_set_match
                0x009ccac4                patch_whal_rgc_clear_match
                0x009ccacc                patch_whal_rgc_cache_hit
                0x009ccad4                patch_whal_rgc_cache_flush
                0x009ccadc                whal_rgc_patch_install
 *fill*         0x009ccae1        0x0 00
 *fill*         0x009ccae1        0x0 00
 *fill*         0x009ccae1        0x0 00
 *fill*         0x009ccae1        0x0 00
 *fill*         0x009ccae1        0x0 00
 *fill*         0x009ccae1        0x0 00
 *fill*         0x009ccae1        0x0 00
 *fill*         0x009ccae1        0x0 00
 *fill*         0x009ccae1        0x0 00
 *fill*         0x009ccae1        0x0 00
 .text          0x009ccae1        0x0 mac_core/patch/AR6320/v3/.output/AR6320/hw.3/lib/lib_maccore_patches.a(os_install_wlan_extra_memory_patches.o)
 *fill*         0x009ccae1        0x0 00
 *fill*         0x009ccae1        0x0 00
 *fill*         0x009ccae1        0x0 00
 *fill*         0x009ccae1        0x0 00
 *fill*         0x009ccae1        0x0 00
 *fill*         0x009ccae1        0x0 00
 .text          0x009ccae1        0x0 halphy/patch/AR6320/v3/.output/AR6320/hw.3/lib/lib_halphy_patches.a(halphy_install_patches.o)
 *fill*         0x009ccae1        0x0 00
 *fill*         0x009ccae1        0x0 00
 *fill*         0x009ccae1        0x0 00
 *fill*         0x009ccae1        0x0 00
 *fill*         0x009ccae1        0x0 00
 *fill*         0x009ccae1        0x0 00
 *fill*         0x009ccae1        0x0 00
 *fill*         0x009ccae1        0x3 00
 .text          0x009ccae4       0x68 /cad/tensilica/chips/peregrine/RE-2013.3-linux/peregrine/xtensa-elf/lib/xcc//libgcc.a(_divsi3.o)
                0x009ccae4                __divsi3
 .text          0x009ccb4c       0x49 /cad/tensilica/chips/peregrine/RE-2013.3-linux/peregrine/xtensa-elf/lib/xcc//libgcc.a(_modsi3.o)
                0x009ccb4c                __modsi3
 *fill*         0x009ccb95        0x3 00
 .text          0x009ccb98       0x50 /cad/tensilica/chips/peregrine/RE-2013.3-linux/peregrine/xtensa-elf/lib/xcc//libgcc.a(_udivsi3.o)
                0x009ccb98                __udivsi3
 .text          0x009ccbe8       0x3d /cad/tensilica/chips/peregrine/RE-2013.3-linux/peregrine/xtensa-elf/lib/xcc//libgcc.a(_umodsi3.o)
                0x009ccbe8                __umodsi3
 *fill*         0x009ccc25        0x3 00
 .text          0x009ccc28       0x19 /cad/tensilica/chips/peregrine/RE-2013.3-linux/peregrine/xtensa-elf/lib/xcc//libgcc.a(_ashrdi3.o)
                0x009ccc28                __ashrdi3
 *fill*         0x009ccc41        0x3 00
 .text          0x009ccc44       0x18 /cad/tensilica/chips/peregrine/RE-2013.3-linux/peregrine/xtensa-elf/lib/xcc//libgcc.a(_lshrdi3.o)
                0x009ccc44                __lshrdi3
 .text          0x009ccc5c       0x17 /cad/tensilica/chips/peregrine/RE-2013.3-linux/peregrine/xtensa-elf/lib/xcc//libgcc.a(_muldi3.o)
                0x009ccc5c                __muldi3
 *fill*         0x009ccc73        0x0 00
 *fill*         0x009ccc73        0x1 00
 .text          0x009ccc74       0x60 /cad/tensilica/chips/peregrine/RE-2013.3-linux/peregrine/xtensa-elf/lib/xcc//libgcc.a(lib2funcs.o)
                0x009ccc74                __xtensa_libgcc_window_spill
                0x009ccc80                __xtensa_nonlocal_goto
                0x009ccccc                __xtensa_sync_caches
 *fill*         0x009cccd4        0x0 00
 *fill*         0x009cccd4        0x0 00
 *fill*         0x009cccd4        0x0 00
 *fill*         0x009cccd4        0x0 00
 .text          0x009cccd4        0x0 mac_core/apps/utf/AR6004/.output/AR6320/hw.3/lib/libar6004utf.a(main.o)
 *fill*         0x009cccd4        0x0 00
 *fill*         0x009cccd4        0x0 00
 *fill*         0x009cccd4        0x0 00
 *fill*         0x009cccd4        0x0 00
 *fill*         0x009cccd4        0x0 00
 *fill*         0x009cccd4        0x0 00
 *fill*         0x009cccd4        0x0 00
 *fill*         0x009cccd4        0x0 00
 *fill*         0x009cccd4        0x0 00
 *fill*         0x009cccd4        0x0 00
 *fill*         0x009cccd4        0x0 00
 *fill*         0x009cccd4        0x0 00
 *fill*         0x009cccd4        0x0 00
 *fill*         0x009cccd4        0x0 00
 *fill*         0x009cccd4        0x0 00
 *(.fini.literal)
 *(.fini)
 *(.gnu.version)
                0x009cccd4                _text_end = ABSOLUTE (.)
                0x009cccd4                _etext = .
                0x009cccd4                . = ALIGN (0x4)
 *fill*         0x009cccd4        0x0 00
 *(.unpatchable.rodata)
 *fill*         0x009cccd4        0xc 00
 .unpatchable.rodata
                0x009ccce0       0x12 mac_core/apps/utf/commonUTF/.output/AR6320/hw.3/lib/libcommonutf.a(main.o)
 *fill*         0x009cccf2        0xe 00
 .unpatchable.rodata
                0x009ccd00       0x14 mac_core/apps/utf/commonUTF/.output/AR6320/hw.3/lib/libcommonutf.a(utf.o)
 *fill*         0x009ccd14        0xc 00
 .unpatchable.rodata
                0x009ccd20       0xa5 mac_core/apps/utf/commonUTF/.output/AR6320/hw.3/lib/libcommonutf.a(cmdEvtProcEngine.o)
 *fill*         0x009ccdc5        0xb 00
 .unpatchable.rodata
                0x009ccdd0       0x38 mac_core/apps/utf/commonUTF/.output/AR6320/hw.3/lib/libcommonutf.a(cmdProcessing.o)
 *fill*         0x009cce08        0x8 00
 .unpatchable.rodata
                0x009cce10       0x20 mac_core/apps/utf/commonUTF/.output/AR6320/hw.3/lib/libcommonutf.a(cmdProcessingSM.o)
 .unpatchable.rodata
                0x009cce30      0x1ce mac_core/apps/utf/commonUTF/.output/AR6320/hw.3/lib/libcommonutf.a(genTxBinCmdTlv.o)
 *fill*         0x009ccffe        0x2 00
 .unpatchable.rodata
                0x009cd000       0x14 mac_core/apps/utf/commonUTF/.output/AR6320/hw.3/lib/libcommonutf.a(parseBinCmdStream.o)
 *fill*         0x009cd014        0xc 00
 .unpatchable.rodata
                0x009cd020       0x53 mac_core/apps/utf/commonUTF/.output/AR6320/hw.3/lib/libcommonutf.a(whalExtensionGeneric.o)
 *fill*         0x009cd073        0xd 00
 .unpatchable.rodata
                0x009cd080      0x88f mac_core/apps/utf/AR6320/.output/AR6320/hw.3/lib/libar6320.a(whal_tcmd.o)
                0x009cd080                sine_wave
 *fill*         0x009cd90f        0x1 00
 .unpatchable.rodata
                0x009cd910       0xeb mac_core/apps/utf/tcmd_utf/.output/AR6320/hw.3/lib/libtcmdutf.a(tcmd.o)
 *fill*         0x009cd9fb        0x5 00
 .unpatchable.rodata
                0x009cda00        0xf mac_core/apps/utf/tcmd_utf/.output/AR6320/hw.3/lib/libtcmdutf.a(tcmd_rx.o)
 *fill*         0x009cda0f        0x1 00
 .unpatchable.rodata
                0x009cda10       0x34 mac_core/apps/utf/tcmd_utf/.output/AR6320/hw.3/lib/libtcmdutf.a(tcmd_tx.o)
 *fill*         0x009cda44        0xc 00
 .unpatchable.rodata
                0x009cda50       0x37 mac_core/apps/utf/tcmd_utf/.output/AR6320/hw.3/lib/libtcmdutf.a(if_split.o)
 *fill*         0x009cda87        0x9 00
 .unpatchable.rodata
                0x009cda90      0x4bf mac_core/apps/utf/wmiHostIF/.output/AR6320/hw.3/lib/libwmihostif.a(legHostIF.o)
 *fill*         0x009cdf4f        0x1 00
 .unpatchable.rodata
                0x009cdf50       0xe1 mac_core/apps/utf/wmiHostIF/.output/AR6320/hw.3/lib/libwmihostif.a(wmi_tcmd.o)
 *fill*         0x009ce031        0xf 00
 .unpatchable.rodata
                0x009ce040       0xf1 mac_core/src/wal/whal/reset/.output/AR6320/hw.3/lib/ar6000_cal.a(ar6320_rxdc_cal.o)
 *fill*         0x009ce131        0xf 00
 .unpatchable.rodata
                0x009ce140       0x19 mac_core/src/wal/whal/reset/.output/AR6320/hw.3/lib/ar6000_cal.a(ar6320_pef_cal.o)
 *fill*         0x009ce159        0x7 00
 .unpatchable.rodata
                0x009ce160       0x22 mac_core/patch/AR6320/v3/.output/AR6320/hw.3/lib/lib_maccore_patches.a(ar_wal_phy_dev_patch.o)
 *fill*         0x009ce182        0xe 00
 .unpatchable.rodata
                0x009ce190       0x89 mac_core/patch/AR6320/v3/.output/AR6320/hw.3/lib/lib_maccore_patches.a(ar_wal_rx_patch.o)
 *fill*         0x009ce219        0x7 00
 .unpatchable.rodata
                0x009ce220       0xa5 mac_core/patch/AR6320/v3/.output/AR6320/hw.3/lib/lib_maccore_patches.a(ar_wal_peer_patch.o)
 *fill*         0x009ce2c5        0xb 00
 .unpatchable.rodata
                0x009ce2d0       0x17 mac_core/patch/AR6320/v3/.output/AR6320/hw.3/lib/lib_maccore_patches.a(wal_pps_patch.o)
 *fill*         0x009ce2e7        0x9 00
 .unpatchable.rodata
                0x009ce2f0       0x33 mac_core/patch/AR6320/v3/.output/AR6320/hw.3/lib/lib_maccore_patches.a(cmnos_intrinf_patch.o)
 *fill*         0x009ce323        0xd 00
 .unpatchable.rodata
                0x009ce330       0xcb mac_core/patch/AR6320/v3/.output/AR6320/hw.3/lib/lib_maccore_patches.a(patch_pcie.o)
 *fill*         0x009ce3fb        0x5 00
 .unpatchable.rodata
                0x009ce400       0xa3 mac_core/patch/AR6320/v3/.output/AR6320/hw.3/lib/lib_maccore_patches.a(patch_usb.o)
 *fill*         0x009ce4a3        0xd 00
 .unpatchable.rodata
                0x009ce4b0       0xc4 mac_core/patch/AR6320/v3/.output/AR6320/hw.3/lib/lib_maccore_patches.a(patch_copy_engine.o)
 *fill*         0x009ce574        0xc 00
 .unpatchable.rodata
                0x009ce580        0xe mac_core/patch/AR6320/v3/.output/AR6320/hw.3/lib/lib_maccore_patches.a(cmnos_misc_patch.o)
 *fill*         0x009ce58e        0x2 00
 .unpatchable.rodata
                0x009ce590       0x28 mac_core/patch/AR6320/v3/.output/AR6320/hw.3/lib/lib_maccore_patches.a(wmi_dbgloghook_patch.o)
 *fill*         0x009ce5b8        0x8 00
 .unpatchable.rodata
                0x009ce5c0     0x2a60 halphy/patch/AR6320/v3/.output/AR6320/hw.3/lib/lib_halphy_patches.a(ar6320_ini_patch.o)
 .unpatchable.rodata
                0x009d1020       0x42 halphy/patch/AR6320/v3/.output/AR6320/hw.3/lib/lib_halphy_patches.a(ar6320_eeprom_patch.o)
 *fill*         0x009d1062        0xe 00
 .unpatchable.rodata
                0x009d1070        0x2 halphy/patch/AR6320/v3/.output/AR6320/hw.3/lib/lib_halphy_patches.a(ar6000_paprd_patch.o)
 *fill*         0x009d1072        0xe 00
 .unpatchable.rodata
                0x009d1080      0x2bb mac_core/apps/utf/AR6004/.output/AR6320/hw.3/lib/libar6004utf.a(dkkernel.o)
 *fill*         0x009d133b        0x5 00
 .unpatchable.rodata
                0x009d1340      0x243 mac_core/apps/utf/AR6004/.output/AR6320/hw.3/lib/libar6004utf.a(event.o)
 *fill*         0x009d1583        0xd 00
 .unpatchable.rodata
                0x009d1590      0x135 mac_core/apps/utf/AR6004/.output/AR6320/hw.3/lib/libar6004utf.a(hw.o)
 *fill*         0x009d16c5        0xb 00
 .unpatchable.rodata
                0x009d16d0       0xc8 mac_core/src/hostif/htc/.output/AR6320/hw.3/lib/libhtc.a(htc.o)
 *fill*         0x009d1798        0x8 00
 .unpatchable.rodata
                0x009d17a0       0x5f mac_core/src/wal/whal/ini/.output/AR6320/hw.3/lib/libwhalini.a(whalini.o)
 *fill*         0x009d17ff        0x1 00
 .unpatchable.rodata
                0x009d1800       0x20 mac_core/src/wal/AR/coex/.output/AR6320/hw.3/lib/wal_coex.a(wal_btcoex.o)
                0x009d1820                . = ALIGN (0x4)
 *(.iram_rwdata)
                0x009d1820                . = ALIGN (0x4)
                0x009d1820                _eiram_data = .

.debug
 *(.debug)

.line
 *(.line)

.debug_srcinfo
 *(.debug_srcinfo)

.debug_sfnames
 *(.debug_sfnames)

.comment        0x00000000     0x2801
 .comment       0x00000000       0x42 mac_core/apps/utf/commonUTF/.output/AR6320/hw.3/lib/libcommonutf.a(main.o)
                                 0x43 (size before relaxing)
 .comment       0x00000042       0x41 mac_core/apps/utf/commonUTF/.output/AR6320/hw.3/lib/libcommonutf.a(utf.o)
                                 0x42 (size before relaxing)
 .comment       0x00000083       0x4e mac_core/apps/utf/commonUTF/.output/AR6320/hw.3/lib/libcommonutf.a(cmdEvtProcEngine.o)
                                 0x4f (size before relaxing)
 .comment       0x000000d1       0x4b mac_core/apps/utf/commonUTF/.output/AR6320/hw.3/lib/libcommonutf.a(cmdProcessing.o)
                                 0x4c (size before relaxing)
 .comment       0x0000011c       0x4d mac_core/apps/utf/commonUTF/.output/AR6320/hw.3/lib/libcommonutf.a(cmdProcessingSM.o)
                                 0x4e (size before relaxing)
 .comment       0x00000169       0x4c mac_core/apps/utf/commonUTF/.output/AR6320/hw.3/lib/libcommonutf.a(genTxBinCmdTlv.o)
                                 0x4d (size before relaxing)
 .comment       0x000001b5       0x4f mac_core/apps/utf/commonUTF/.output/AR6320/hw.3/lib/libcommonutf.a(parseBinCmdStream.o)
                                 0x50 (size before relaxing)
 .comment       0x00000204       0x46 mac_core/apps/utf/commonUTF/.output/AR6320/hw.3/lib/libcommonutf.a(testUtil.o)
                                 0x47 (size before relaxing)
 .comment       0x0000024a       0x52 mac_core/apps/utf/commonUTF/.output/AR6320/hw.3/lib/libcommonutf.a(whalExtensionGeneric.o)
                                 0x53 (size before relaxing)
 .comment       0x0000029c       0x55 mac_core/apps/utf/commonUTF/.output/AR6320/hw.3/lib/libcommonutf.a(_cmd_calParmBinTemplate.o)
                                 0x56 (size before relaxing)
 .comment       0x000002f1       0x59 mac_core/apps/utf/commonUTF/.output/AR6320/hw.3/lib/libcommonutf.a(_cmd_nartCmdParmBinTemplate.o)
                                 0x5a (size before relaxing)
 .comment       0x0000034a       0x54 mac_core/apps/utf/commonUTF/.output/AR6320/hw.3/lib/libcommonutf.a(_cmd_pmParmBinTemplate.o)
                                 0x55 (size before relaxing)
 .comment       0x0000039e       0x54 mac_core/apps/utf/commonUTF/.output/AR6320/hw.3/lib/libcommonutf.a(_cmd_rxParmBinTemplate.o)
                                 0x55 (size before relaxing)
 .comment       0x000003f2       0x54 mac_core/apps/utf/commonUTF/.output/AR6320/hw.3/lib/libcommonutf.a(_cmd_txParmBinTemplate.o)
                                 0x55 (size before relaxing)
 .comment       0x00000446       0x4e mac_core/apps/utf/commonUTF/.output/AR6320/hw.3/lib/libcommonutf.a(cmdParmsTemplate.o)
                                 0x4f (size before relaxing)
 .comment       0x00000494       0x59 mac_core/apps/utf/commonUTF/.output/AR6320/hw.3/lib/libcommonutf.a(_cmd_nartRspParmTxtTemplate.o)
                                 0x5a (size before relaxing)
 .comment       0x000004ed       0x5c mac_core/apps/utf/commonUTF/.output/AR6320/hw.3/lib/libcommonutf.a(_cmd_rspGenericParmTxtTemplate.o)
                                 0x5d (size before relaxing)
 .comment       0x00000549       0x5a mac_core/apps/utf/commonUTF/.output/AR6320/hw.3/lib/libcommonutf.a(_cmd_rxStatusParmTxtTemplate.o)
                                 0x5b (size before relaxing)
 .comment       0x000005a3       0x5e mac_core/apps/utf/commonUTF/.output/AR6320/hw.3/lib/libcommonutf.a(_cmd_submitreportParmTxtTemplate.o)
                                 0x5f (size before relaxing)
 .comment       0x00000601       0x5a mac_core/apps/utf/commonUTF/.output/AR6320/hw.3/lib/libcommonutf.a(_cmd_txStatusParmTxtTemplate.o)
                                 0x5b (size before relaxing)
 .comment       0x0000065b       0x4c mac_core/apps/utf/AR6320/.output/AR6320/hw.3/lib/libar6320.a(ar6320Register.o)
                                 0x4d (size before relaxing)
 .comment       0x000006a7       0x47 mac_core/apps/utf/AR6320/.output/AR6320/hw.3/lib/libar6320.a(whal_tcmd.o)
                                 0x48 (size before relaxing)
 .comment       0x000006ee       0x42 mac_core/apps/utf/tcmd_utf/.output/AR6320/hw.3/lib/libtcmdutf.a(tcmd.o)
                                 0x43 (size before relaxing)
 .comment       0x00000730       0x45 mac_core/apps/utf/tcmd_utf/.output/AR6320/hw.3/lib/libtcmdutf.a(tcmd_rx.o)
                                 0x46 (size before relaxing)
 .comment       0x00000775       0x45 mac_core/apps/utf/tcmd_utf/.output/AR6320/hw.3/lib/libtcmdutf.a(tcmd_tx.o)
                                 0x46 (size before relaxing)
 .comment       0x000007ba       0x49 mac_core/apps/utf/tcmd_utf/.output/AR6320/hw.3/lib/libtcmdutf.a(utfCallback.o)
                                 0x4a (size before relaxing)
 .comment       0x00000803       0x46 mac_core/apps/utf/tcmd_utf/.output/AR6320/hw.3/lib/libtcmdutf.a(if_split.o)
                                 0x47 (size before relaxing)
 .comment       0x00000849       0x40 mac_core/apps/utf/tcmd_utf/.output/AR6320/hw.3/lib/libtcmdutf.a(pn.o)
                                 0x41 (size before relaxing)
 .comment       0x00000889       0x52 mac_core/apps/utf/testScriptIF/.output/AR6320/hw.3/lib/libtestscriptif.a(testscriptIFRegister.o)
                                 0x53 (size before relaxing)
 .comment       0x000008db       0x4a mac_core/apps/utf/testScriptIF/.output/AR6320/hw.3/lib/libtestscriptif.a(testscriptIF.o)
                                 0x4b (size before relaxing)
 .comment       0x00000925       0x47 mac_core/apps/utf/wmiHostIF/.output/AR6320/hw.3/lib/libwmihostif.a(legHostIF.o)
                                 0x48 (size before relaxing)
 .comment       0x0000096c       0x46 mac_core/apps/utf/wmiHostIF/.output/AR6320/hw.3/lib/libwmihostif.a(wmi_tcmd.o)
                                 0x47 (size before relaxing)
 .comment       0x000009b2       0x4d mac_core/apps/utf/wmiHostIF/.output/AR6320/hw.3/lib/libwmihostif.a(htt_tgt_hif_svc.o)
                                 0x4e (size before relaxing)
 .comment       0x000009ff       0x48 mac_core/src/wal/whal/reset/.output/AR6320/hw.3/lib/ar6000_cal.a(ar6320_cal.o)
                                 0x49 (size before relaxing)
 .comment       0x00000a47       0x4d mac_core/src/wal/whal/reset/.output/AR6320/hw.3/lib/ar6000_cal.a(ar6320_rxdc_cal.o)
                                 0x4e (size before relaxing)
 .comment       0x00000a94       0x4b mac_core/src/wal/whal/reset/.output/AR6320/hw.3/lib/ar6000_cal.a(ar6320_iq_cal.o)
                                 0x4c (size before relaxing)
 .comment       0x00000adf       0x4c mac_core/src/wal/whal/reset/.output/AR6320/hw.3/lib/ar6000_cal.a(ar6320_pef_cal.o)
                                 0x4d (size before relaxing)
 .comment       0x00000b2b       0x4d mac_core/patch/AR6320/v3/.output/AR6320/hw.3/lib/lib_maccore_patches.a(install_patches.o)
                                 0x4e (size before relaxing)
 .comment       0x00000b78       0x52 mac_core/patch/AR6320/v3/.output/AR6320/hw.3/lib/lib_maccore_patches.a(whal_install_patches.o)
                                 0x53 (size before relaxing)
 .comment       0x00000bca       0x51 mac_core/patch/AR6320/v3/.output/AR6320/hw.3/lib/lib_maccore_patches.a(wal_install_patches.o)
                                 0x52 (size before relaxing)
 .comment       0x00000c1b       0x5b mac_core/patch/AR6320/v3/.output/AR6320/hw.3/lib/lib_maccore_patches.a(ar_wal_connection_pause_patch.o)
                                 0x5c (size before relaxing)
 .comment       0x00000c76       0x52 mac_core/patch/AR6320/v3/.output/AR6320/hw.3/lib/lib_maccore_patches.a(ar_wal_phy_dev_patch.o)
                                 0x53 (size before relaxing)
 .comment       0x00000cc8       0x53 mac_core/patch/AR6320/v3/.output/AR6320/hw.3/lib/lib_maccore_patches.a(cmnos_retention_patch.o)
                                 0x54 (size before relaxing)
 .comment       0x00000d1b       0x50 mac_core/patch/AR6320/v3/.output/AR6320/hw.3/lib/lib_maccore_patches.a(ar_wal_tx_de_patch.o)
                                 0x51 (size before relaxing)
 .comment       0x00000d6b       0x61 mac_core/patch/AR6320/v3/.output/AR6320/hw.3/lib/lib_maccore_patches.a(ar_wal_local_frames_wifi_ip01_patch.o)
                                 0x62 (size before relaxing)
 .comment       0x00000dcc       0x4c mac_core/patch/AR6320/v3/.output/AR6320/hw.3/lib/lib_maccore_patches.a(pool_mgr_patch.o)
                                 0x4d (size before relaxing)
 .comment       0x00000e18       0x4d mac_core/patch/AR6320/v3/.output/AR6320/hw.3/lib/lib_maccore_patches.a(ar_wal_rx_patch.o)
                                 0x4e (size before relaxing)
 .comment       0x00000e65       0x55 mac_core/patch/AR6320/v3/.output/AR6320/hw.3/lib/lib_maccore_patches.a(ar_wal_rx_offload_patch.o)
                                 0x56 (size before relaxing)
 .comment       0x00000eba       0x54 mac_core/patch/AR6320/v3/.output/AR6320/hw.3/lib/lib_maccore_patches.a(ar_wal_rx_common_patch.o)
                                 0x55 (size before relaxing)
 .comment       0x00000f0e       0x4f mac_core/patch/AR6320/v3/.output/AR6320/hw.3/lib/lib_maccore_patches.a(ar_wal_vdev_patch.o)
                                 0x50 (size before relaxing)
 .comment       0x00000f5d       0x51 mac_core/patch/AR6320/v3/.output/AR6320/hw.3/lib/lib_maccore_patches.a(ar_tx_q_enque_patch.o)
                                 0x52 (size before relaxing)
 .comment       0x00000fae       0x4c mac_core/patch/AR6320/v3/.output/AR6320/hw.3/lib/lib_maccore_patches.a(tx_sched_patch.o)
                                 0x4d (size before relaxing)
 .comment       0x00000ffa       0x52 mac_core/patch/AR6320/v3/.output/AR6320/hw.3/lib/lib_maccore_patches.a(ar_wal_tx_send_patch.o)
                                 0x53 (size before relaxing)
 .comment       0x0000104c       0x55 mac_core/patch/AR6320/v3/.output/AR6320/hw.3/lib/lib_maccore_patches.a(ar_wal_chain_mgmt_patch.o)
                                 0x56 (size before relaxing)
 .comment       0x000010a1       0x4f mac_core/patch/AR6320/v3/.output/AR6320/hw.3/lib/lib_maccore_patches.a(ar_wal_peer_patch.o)
                                 0x50 (size before relaxing)
 .comment       0x000010f0       0x4f mac_core/patch/AR6320/v3/.output/AR6320/hw.3/lib/lib_maccore_patches.a(ar600P_txbf_patch.o)
                                 0x50 (size before relaxing)
 .comment       0x0000113f       0x4b mac_core/patch/AR6320/v3/.output/AR6320/hw.3/lib/lib_maccore_patches.a(wal_pps_patch.o)
                                 0x4c (size before relaxing)
 .comment       0x0000118a       0x55 mac_core/patch/AR6320/v3/.output/AR6320/hw.3/lib/lib_maccore_patches.a(ar_xmit_wifi_ip01_patch.o)
                                 0x56 (size before relaxing)
 .comment       0x000011df       0x59 mac_core/patch/AR6320/v3/.output/AR6320/hw.3/lib/lib_maccore_patches.a(ar_wal_channel_change_patch.o)
                                 0x5a (size before relaxing)
 .comment       0x00001238       0x4d mac_core/patch/AR6320/v3/.output/AR6320/hw.3/lib/lib_maccore_patches.a(ar_wal_rc_patch.o)
                                 0x4e (size before relaxing)
 .comment       0x00001285       0x4b mac_core/patch/AR6320/v3/.output/AR6320/hw.3/lib/lib_maccore_patches.a(wal_rtt_patch.o)
                                 0x4c (size before relaxing)
 .comment       0x000012d0       0x4c mac_core/patch/AR6320/v3/.output/AR6320/hw.3/lib/lib_maccore_patches.a(whal_rtt_patch.o)
                                 0x4d (size before relaxing)
 .comment       0x0000131c       0x4a mac_core/patch/AR6320/v3/.output/AR6320/hw.3/lib/lib_maccore_patches.a(dbglog_patch.o)
                                 0x4b (size before relaxing)
 .comment       0x00001366       0x51 mac_core/patch/AR6320/v3/.output/AR6320/hw.3/lib/lib_maccore_patches.a(ar600p_beacon_patch.o)
                                 0x52 (size before relaxing)
 .comment       0x000013b7       0x50 mac_core/patch/AR6320/v3/.output/AR6320/hw.3/lib/lib_maccore_patches.a(ar6000_power_patch.o)
                                 0x51 (size before relaxing)
 .comment       0x00001407       0x54 mac_core/patch/AR6320/v3/.output/AR6320/hw.3/lib/lib_maccore_patches.a(ar6000_interrupt_patch.o)
                                 0x55 (size before relaxing)
 .comment       0x0000145b       0x51 mac_core/patch/AR6320/v3/.output/AR6320/hw.3/lib/lib_maccore_patches.a(cmnos_intrinf_patch.o)
                                 0x52 (size before relaxing)
 .comment       0x000014ac       0x48 mac_core/patch/AR6320/v3/.output/AR6320/hw.3/lib/lib_maccore_patches.a(patch_pcie.o)
                                 0x49 (size before relaxing)
 .comment       0x000014f4       0x47 mac_core/patch/AR6320/v3/.output/AR6320/hw.3/lib/lib_maccore_patches.a(patch_usb.o)
                                 0x48 (size before relaxing)
 .comment       0x0000153b       0x4e mac_core/patch/AR6320/v3/.output/AR6320/hw.3/lib/lib_maccore_patches.a(wal_beacon_patch.o)
                                 0x4f (size before relaxing)
 .comment       0x00001589       0x4c mac_core/patch/AR6320/v3/.output/AR6320/hw.3/lib/lib_maccore_patches.a(wal_swba_patch.o)
                                 0x4d (size before relaxing)
 .comment       0x000015d5       0x54 mac_core/patch/AR6320/v3/.output/AR6320/hw.3/lib/lib_maccore_patches.a(ar600P_retention_patch.o)
                                 0x55 (size before relaxing)
 .comment       0x00001629       0x4e mac_core/patch/AR6320/v3/.output/AR6320/hw.3/lib/lib_maccore_patches.a(ar_wal_rmc_patch.o)
                                 0x4f (size before relaxing)
 .comment       0x00001677       0x4c mac_core/patch/AR6320/v3/.output/AR6320/hw.3/lib/lib_maccore_patches.a(whal_rgc_patch.o)
                                 0x4d (size before relaxing)
 .comment       0x000016c3       0x4a mac_core/patch/AR6320/v3/.output/AR6320/hw.3/lib/lib_maccore_patches.a(patch_hif_ce.o)
                                 0x4b (size before relaxing)
 .comment       0x0000170d       0x4d mac_core/patch/AR6320/v3/.output/AR6320/hw.3/lib/lib_maccore_patches.a(patch_whal_coex.o)
                                 0x4e (size before relaxing)
 .comment       0x0000175a       0x4c mac_core/patch/AR6320/v3/.output/AR6320/hw.3/lib/lib_maccore_patches.a(patch_whal_mws.o)
                                 0x4d (size before relaxing)
 .comment       0x000017a6       0x4c mac_core/patch/AR6320/v3/.output/AR6320/hw.3/lib/lib_maccore_patches.a(patch_whal_mci.o)
                                 0x4d (size before relaxing)
 .comment       0x000017f2       0x50 mac_core/patch/AR6320/v3/.output/AR6320/hw.3/lib/lib_maccore_patches.a(ar_wal_tx_dm_patch.o)
                                 0x51 (size before relaxing)
 .comment       0x00001842       0x4f mac_core/patch/AR6320/v3/.output/AR6320/hw.3/lib/lib_maccore_patches.a(patch_copy_engine.o)
                                 0x50 (size before relaxing)
 .comment       0x00001891       0x53 mac_core/patch/AR6320/v3/.output/AR6320/hw.3/lib/lib_maccore_patches.a(wal_concurrency_patch.o)
                                 0x54 (size before relaxing)
 .comment       0x000018e4       0x4f mac_core/patch/AR6320/v3/.output/AR6320/hw.3/lib/lib_maccore_patches.a(ar_wal_tdls_patch.o)
                                 0x50 (size before relaxing)
 .comment       0x00001933       0x4f mac_core/patch/AR6320/v3/.output/AR6320/hw.3/lib/lib_maccore_patches.a(cmnos_timer_patch.o)
                                 0x50 (size before relaxing)
 .comment       0x00001982       0x51 mac_core/patch/AR6320/v3/.output/AR6320/hw.3/lib/lib_maccore_patches.a(ar_wal_tx_hcm_patch.o)
                                 0x52 (size before relaxing)
 .comment       0x000019d3       0x5a mac_core/patch/AR6320/v3/.output/AR6320/hw.3/lib/lib_maccore_patches.a(ar_wal_tdls_conn_table_patch.o)
                                 0x5b (size before relaxing)
 .comment       0x00001a2d       0x4f mac_core/patch/AR6320/v3/.output/AR6320/hw.3/lib/lib_maccore_patches.a(ar600P_recv_patch.o)
                                 0x50 (size before relaxing)
 .comment       0x00001a7c       0x62 mac_core/patch/AR6320/v3/.output/AR6320/hw.3/lib/lib_maccore_patches.a(os_install_wlan_extra_memory_patches.o)
                                 0x63 (size before relaxing)
 .comment       0x00001ade       0x4e mac_core/patch/AR6320/v3/.output/AR6320/hw.3/lib/lib_maccore_patches.a(patch_athos_main.o)
                                 0x4f (size before relaxing)
 .comment       0x00001b2c       0x4e mac_core/patch/AR6320/v3/.output/AR6320/hw.3/lib/lib_maccore_patches.a(cmnos_misc_patch.o)
                                 0x4f (size before relaxing)
 .comment       0x00001b7a       0x48 mac_core/patch/AR6320/v3/.output/AR6320/hw.3/lib/lib_maccore_patches.a(sha1_patch.o)
                                 0x49 (size before relaxing)
 .comment       0x00001bc2       0x4c mac_core/patch/AR6320/v3/.output/AR6320/hw.3/lib/lib_maccore_patches.a(patch_hif_sdio.o)
                                 0x4d (size before relaxing)
 .comment       0x00001c0e       0x4f mac_core/patch/AR6320/v3/.output/AR6320/hw.3/lib/lib_maccore_patches.a(ar_wal_txbf_patch.o)
                                 0x50 (size before relaxing)
 .comment       0x00001c5d       0x52 mac_core/patch/AR6320/v3/.output/AR6320/hw.3/lib/lib_maccore_patches.a(wmi_dbgloghook_patch.o)
                                 0x53 (size before relaxing)
 .comment       0x00001caf       0x52 mac_core/patch/AR6320/v3/.output/AR6320/hw.3/lib/lib_maccore_patches.a(cmnos_allocram_patch.o)
                                 0x53 (size before relaxing)
 .comment       0x00001d01       0x46 mac_core/src/wal/whal/rtt/.output/AR6320/hw.3/lib/whal_rtt.a(whal_rtt.o)
                                 0x47 (size before relaxing)
 .comment       0x00001d47       0x54 halphy/patch/AR6320/v3/.output/AR6320/hw.3/lib/lib_halphy_patches.a(halphy_install_patches.o)
                                 0x55 (size before relaxing)
 .comment       0x00001d9b       0x51 halphy/patch/AR6320/v3/.output/AR6320/hw.3/lib/lib_halphy_patches.a(ar6000_nf_cal_patch.o)
                                 0x52 (size before relaxing)
 .comment       0x00001dec       0x4e halphy/patch/AR6320/v3/.output/AR6320/hw.3/lib/lib_halphy_patches.a(ar6000_ani_patch.o)
                                 0x4f (size before relaxing)
 .comment       0x00001e3a       0x4e halphy/patch/AR6320/v3/.output/AR6320/hw.3/lib/lib_halphy_patches.a(ar6320_ini_patch.o)
                                 0x4f (size before relaxing)
 .comment       0x00001e88       0x55 halphy/patch/AR6320/v3/.output/AR6320/hw.3/lib/lib_halphy_patches.a(ar6320_tpc_config_patch.o)
                                 0x56 (size before relaxing)
 .comment       0x00001edd       0x51 halphy/patch/AR6320/v3/.output/AR6320/hw.3/lib/lib_halphy_patches.a(ar6320_eeprom_patch.o)
                                 0x52 (size before relaxing)
 .comment       0x00001f2e       0x50 halphy/patch/AR6320/v3/.output/AR6320/hw.3/lib/lib_halphy_patches.a(ar600P_reset_patch.o)
                                 0x51 (size before relaxing)
 .comment       0x00001f7e       0x50 halphy/patch/AR6320/v3/.output/AR6320/hw.3/lib/lib_halphy_patches.a(ar6000_paprd_patch.o)
                                 0x51 (size before relaxing)
 .comment       0x00001fce       0x4e halphy/patch/AR6320/v3/.output/AR6320/hw.3/lib/lib_halphy_patches.a(ar6000_phy_patch.o)
                                 0x4f (size before relaxing)
 .comment       0x0000201c       0x45 mac_core/src/wal/AR/rtt/.output/AR6320/hw.3/lib/ar_wal_rtt.a(wal_rtt.o)
                                 0x46 (size before relaxing)
 .comment       0x00002061       0x49 mac_core/src/wal/AR/nan/.output/AR6320/hw.3/lib/ar_wal_nan.a(wal_nan_mac.o)
                                 0x4a (size before relaxing)
 .comment       0x000020aa       0x95 /cad/tensilica/chips/peregrine/RE-2013.3-linux/peregrine/xtensa-elf/lib/xcc//libgcc.a(_muldi3.o)
                                 0x96 (size before relaxing)
 .comment       0x0000213f       0xa2 /cad/tensilica/chips/peregrine/RE-2013.3-linux/peregrine/xtensa-elf/lib/xcc//libgcc.a(_udivdi3.o)
                                 0xa3 (size before relaxing)
 .comment       0x000021e1       0x47 mac_core/src/wal/whal/init/.output/AR6320/hw.3/lib/libwhal_init.a(whal_init.o)
                                 0x48 (size before relaxing)
 .comment       0x00002228       0x47 mac_core/apps/utf/AR6320/.output/AR6320/hw.3/lib/libar6320.a(whal_SCPC.o)
                                 0x48 (size before relaxing)
 .comment       0x0000226f       0x46 mac_core/apps/utf/AR6004/.output/AR6320/hw.3/lib/libar6004utf.a(dkkernel.o)
                                 0x47 (size before relaxing)
 .comment       0x000022b5       0x43 mac_core/apps/utf/AR6004/.output/AR6320/hw.3/lib/libar6004utf.a(event.o)
                                 0x44 (size before relaxing)
 .comment       0x000022f8       0x40 mac_core/apps/utf/AR6004/.output/AR6320/hw.3/lib/libar6004utf.a(hw.o)
                                 0x41 (size before relaxing)
 .comment       0x00000000       0x43 mac_core/apps/utf/AR6004/.output/AR6320/hw.3/lib/libar6004utf.a(main.o)
 .comment       0x00002338       0x4d mac_core/src/misc/extend_alloc/.output/AR6320/hw.3/lib/libextendalloc.a(extend_allocate.o)
                                 0x4e (size before relaxing)
 .comment       0x00002385       0x41 mac_core/src/hostif/htc/.output/AR6320/hw.3/lib/libhtc.a(htc.o)
                                 0x42 (size before relaxing)
 .comment       0x000023c6       0x47 mac_core/src/misc/module_id/.output/AR6320/hw.3/lib/libmodule_id.a(module_id.o)
                                 0x48 (size before relaxing)
 .comment       0x0000240d       0x45 mac_core/src/wal/whal/ini/.output/AR6320/hw.3/lib/libwhalini.a(whalini.o)
                                 0x46 (size before relaxing)
 .comment       0x00002452       0x40 mac_core/src/utils/sm/.output/AR6320/hw.3/lib/libsm.a(sm.o)
                                 0x41 (size before relaxing)
 .comment       0x00002492       0x46 mac_core/src/wal/AR/coex/.output/AR6320/hw.3/lib/wal_coex.a(wal_coex.o)
                                 0x47 (size before relaxing)
 .comment       0x000024d8       0x48 mac_core/src/wal/AR/coex/.output/AR6320/hw.3/lib/wal_coex.a(wal_btcoex.o)
                                 0x49 (size before relaxing)
 .comment       0x00002520       0x49 mac_core/src/wal/AR/coex/.output/AR6320/hw.3/lib/wal_coex.a(wal_mwscoex.o)
                                 0x4a (size before relaxing)
 .comment       0x00002569       0x4d mac_core/src/wal/AR/coex/.output/AR6320/hw.3/lib/wal_coex.a(wal_mwscoex_crc.o)
                                 0x4e (size before relaxing)
 .comment       0x000025b6       0x49 mac_core/src/wal/AR/coex/.output/AR6320/hw.3/lib/wal_coex.a(qmi_idl_lib.o)
                                 0x4a (size before relaxing)
 .comment       0x000025ff       0x4e mac_core/src/wal/AR/coex/.output/AR6320/hw.3/lib/wal_coex.a(qmi_idl_accessor.o)
                                 0x4f (size before relaxing)
 .comment       0x0000264d       0x55 mac_core/src/wal/AR/coex/.output/AR6320/hw.3/lib/wal_coex.a(coexistence_service_v02.o)
                                 0x56 (size before relaxing)
 .comment       0x000026a2       0x47 mac_core/src/wal/whal/coex/.output/AR6320/hw.3/lib/whal_ar_coex.a(whal_coex.o)
                                 0x48 (size before relaxing)
 .comment       0x000026e9       0x46 mac_core/src/wal/whal/coex/.output/AR6320/hw.3/lib/whal_ar_coex.a(whal_mci.o)
                                 0x47 (size before relaxing)
 .comment       0x0000272f       0x46 mac_core/src/wal/whal/coex/.output/AR6320/hw.3/lib/whal_ar_coex.a(whal_mws.o)
                                 0x47 (size before relaxing)
 .comment       0x00002775       0x44 mac_core/apps/lib/.output/AR6320/hw.3/lib/libapp.a(efusew.o)
                                 0x45 (size before relaxing)
 .comment       0x000027b9       0x48 mac_core/apps/lib/.output/AR6320/hw.3/lib/libapp.a(otpstreamw.o)
                                 0x49 (size before relaxing)

.xtensa.info    0x00000000      0x1bc
 .xtensa.info   0x00000000      0x1bc mac_core/apps/utf/commonUTF/.output/AR6320/hw.3/lib/libcommonutf.a(main.o)
 .xtensa.info   0x00000000        0x0 mac_core/apps/utf/commonUTF/.output/AR6320/hw.3/lib/libcommonutf.a(utf.o)
 .xtensa.info   0x00000000        0x0 mac_core/apps/utf/commonUTF/.output/AR6320/hw.3/lib/libcommonutf.a(cmdEvtProcEngine.o)
 .xtensa.info   0x00000000        0x0 mac_core/apps/utf/commonUTF/.output/AR6320/hw.3/lib/libcommonutf.a(cmdProcessing.o)
 .xtensa.info   0x00000000        0x0 mac_core/apps/utf/commonUTF/.output/AR6320/hw.3/lib/libcommonutf.a(cmdProcessingSM.o)
 .xtensa.info   0x00000000        0x0 mac_core/apps/utf/commonUTF/.output/AR6320/hw.3/lib/libcommonutf.a(genTxBinCmdTlv.o)
 .xtensa.info   0x00000000        0x0 mac_core/apps/utf/commonUTF/.output/AR6320/hw.3/lib/libcommonutf.a(parseBinCmdStream.o)
 .xtensa.info   0x00000000        0x0 mac_core/apps/utf/commonUTF/.output/AR6320/hw.3/lib/libcommonutf.a(testUtil.o)
 .xtensa.info   0x00000000        0x0 mac_core/apps/utf/commonUTF/.output/AR6320/hw.3/lib/libcommonutf.a(whalExtensionGeneric.o)
 .xtensa.info   0x00000000        0x0 mac_core/apps/utf/commonUTF/.output/AR6320/hw.3/lib/libcommonutf.a(_cmd_calParmBinTemplate.o)
 .xtensa.info   0x00000000        0x0 mac_core/apps/utf/commonUTF/.output/AR6320/hw.3/lib/libcommonutf.a(_cmd_nartCmdParmBinTemplate.o)
 .xtensa.info   0x00000000        0x0 mac_core/apps/utf/commonUTF/.output/AR6320/hw.3/lib/libcommonutf.a(_cmd_pmParmBinTemplate.o)
 .xtensa.info   0x00000000        0x0 mac_core/apps/utf/commonUTF/.output/AR6320/hw.3/lib/libcommonutf.a(_cmd_rxParmBinTemplate.o)
 .xtensa.info   0x00000000        0x0 mac_core/apps/utf/commonUTF/.output/AR6320/hw.3/lib/libcommonutf.a(_cmd_txParmBinTemplate.o)
 .xtensa.info   0x00000000        0x0 mac_core/apps/utf/commonUTF/.output/AR6320/hw.3/lib/libcommonutf.a(cmdParmsTemplate.o)
 .xtensa.info   0x00000000        0x0 mac_core/apps/utf/commonUTF/.output/AR6320/hw.3/lib/libcommonutf.a(_cmd_nartRspParmTxtTemplate.o)
 .xtensa.info   0x00000000        0x0 mac_core/apps/utf/commonUTF/.output/AR6320/hw.3/lib/libcommonutf.a(_cmd_rspGenericParmTxtTemplate.o)
 .xtensa.info   0x00000000        0x0 mac_core/apps/utf/commonUTF/.output/AR6320/hw.3/lib/libcommonutf.a(_cmd_rxStatusParmTxtTemplate.o)
 .xtensa.info   0x00000000        0x0 mac_core/apps/utf/commonUTF/.output/AR6320/hw.3/lib/libcommonutf.a(_cmd_submitreportParmTxtTemplate.o)
 .xtensa.info   0x00000000        0x0 mac_core/apps/utf/commonUTF/.output/AR6320/hw.3/lib/libcommonutf.a(_cmd_txStatusParmTxtTemplate.o)
 .xtensa.info   0x00000000        0x0 mac_core/apps/utf/AR6320/.output/AR6320/hw.3/lib/libar6320.a(ar6320Register.o)
 .xtensa.info   0x00000000        0x0 mac_core/apps/utf/AR6320/.output/AR6320/hw.3/lib/libar6320.a(whal_tcmd.o)
 .xtensa.info   0x00000000        0x0 mac_core/apps/utf/tcmd_utf/.output/AR6320/hw.3/lib/libtcmdutf.a(tcmd.o)
 .xtensa.info   0x00000000        0x0 mac_core/apps/utf/tcmd_utf/.output/AR6320/hw.3/lib/libtcmdutf.a(tcmd_rx.o)
 .xtensa.info   0x00000000        0x0 mac_core/apps/utf/tcmd_utf/.output/AR6320/hw.3/lib/libtcmdutf.a(tcmd_tx.o)
 .xtensa.info   0x00000000        0x0 mac_core/apps/utf/tcmd_utf/.output/AR6320/hw.3/lib/libtcmdutf.a(utfCallback.o)
 .xtensa.info   0x00000000        0x0 mac_core/apps/utf/tcmd_utf/.output/AR6320/hw.3/lib/libtcmdutf.a(if_split.o)
 .xtensa.info   0x00000000        0x0 mac_core/apps/utf/tcmd_utf/.output/AR6320/hw.3/lib/libtcmdutf.a(pn.o)
 .xtensa.info   0x00000000        0x0 mac_core/apps/utf/testScriptIF/.output/AR6320/hw.3/lib/libtestscriptif.a(testscriptIFRegister.o)
 .xtensa.info   0x00000000        0x0 mac_core/apps/utf/testScriptIF/.output/AR6320/hw.3/lib/libtestscriptif.a(testscriptIF.o)
 .xtensa.info   0x00000000        0x0 mac_core/apps/utf/wmiHostIF/.output/AR6320/hw.3/lib/libwmihostif.a(legHostIF.o)
 .xtensa.info   0x00000000        0x0 mac_core/apps/utf/wmiHostIF/.output/AR6320/hw.3/lib/libwmihostif.a(wmi_tcmd.o)
 .xtensa.info   0x00000000        0x0 mac_core/apps/utf/wmiHostIF/.output/AR6320/hw.3/lib/libwmihostif.a(htt_tgt_hif_svc.o)
 .xtensa.info   0x00000000        0x0 mac_core/src/wal/whal/reset/.output/AR6320/hw.3/lib/ar6000_cal.a(ar6320_cal.o)
 .xtensa.info   0x00000000        0x0 mac_core/src/wal/whal/reset/.output/AR6320/hw.3/lib/ar6000_cal.a(ar6320_rxdc_cal.o)
 .xtensa.info   0x00000000        0x0 mac_core/src/wal/whal/reset/.output/AR6320/hw.3/lib/ar6000_cal.a(ar6320_iq_cal.o)
 .xtensa.info   0x00000000        0x0 mac_core/src/wal/whal/reset/.output/AR6320/hw.3/lib/ar6000_cal.a(ar6320_pef_cal.o)
 .xtensa.info   0x00000000        0x0 mac_core/patch/AR6320/v3/.output/AR6320/hw.3/lib/lib_maccore_patches.a(install_patches.o)
 .xtensa.info   0x00000000        0x0 mac_core/patch/AR6320/v3/.output/AR6320/hw.3/lib/lib_maccore_patches.a(whal_install_patches.o)
 .xtensa.info   0x00000000        0x0 mac_core/patch/AR6320/v3/.output/AR6320/hw.3/lib/lib_maccore_patches.a(wal_install_patches.o)
 .xtensa.info   0x00000000        0x0 mac_core/patch/AR6320/v3/.output/AR6320/hw.3/lib/lib_maccore_patches.a(ar_wal_connection_pause_patch.o)
 .xtensa.info   0x00000000        0x0 mac_core/patch/AR6320/v3/.output/AR6320/hw.3/lib/lib_maccore_patches.a(ar_wal_phy_dev_patch.o)
 .xtensa.info   0x00000000        0x0 mac_core/patch/AR6320/v3/.output/AR6320/hw.3/lib/lib_maccore_patches.a(cmnos_retention_patch.o)
 .xtensa.info   0x00000000        0x0 mac_core/patch/AR6320/v3/.output/AR6320/hw.3/lib/lib_maccore_patches.a(ar_wal_tx_de_patch.o)
 .xtensa.info   0x00000000        0x0 mac_core/patch/AR6320/v3/.output/AR6320/hw.3/lib/lib_maccore_patches.a(ar_wal_local_frames_wifi_ip01_patch.o)
 .xtensa.info   0x00000000        0x0 mac_core/patch/AR6320/v3/.output/AR6320/hw.3/lib/lib_maccore_patches.a(pool_mgr_patch.o)
 .xtensa.info   0x00000000        0x0 mac_core/patch/AR6320/v3/.output/AR6320/hw.3/lib/lib_maccore_patches.a(ar_wal_rx_patch.o)
 .xtensa.info   0x00000000        0x0 mac_core/patch/AR6320/v3/.output/AR6320/hw.3/lib/lib_maccore_patches.a(ar_wal_rx_offload_patch.o)
 .xtensa.info   0x00000000        0x0 mac_core/patch/AR6320/v3/.output/AR6320/hw.3/lib/lib_maccore_patches.a(ar_wal_rx_common_patch.o)
 .xtensa.info   0x00000000        0x0 mac_core/patch/AR6320/v3/.output/AR6320/hw.3/lib/lib_maccore_patches.a(ar_wal_vdev_patch.o)
 .xtensa.info   0x00000000        0x0 mac_core/patch/AR6320/v3/.output/AR6320/hw.3/lib/lib_maccore_patches.a(ar_tx_q_enque_patch.o)
 .xtensa.info   0x00000000        0x0 mac_core/patch/AR6320/v3/.output/AR6320/hw.3/lib/lib_maccore_patches.a(tx_sched_patch.o)
 .xtensa.info   0x00000000        0x0 mac_core/patch/AR6320/v3/.output/AR6320/hw.3/lib/lib_maccore_patches.a(ar_wal_tx_send_patch.o)
 .xtensa.info   0x00000000        0x0 mac_core/patch/AR6320/v3/.output/AR6320/hw.3/lib/lib_maccore_patches.a(ar_wal_chain_mgmt_patch.o)
 .xtensa.info   0x00000000        0x0 mac_core/patch/AR6320/v3/.output/AR6320/hw.3/lib/lib_maccore_patches.a(ar_wal_peer_patch.o)
 .xtensa.info   0x00000000        0x0 mac_core/patch/AR6320/v3/.output/AR6320/hw.3/lib/lib_maccore_patches.a(ar600P_txbf_patch.o)
 .xtensa.info   0x00000000        0x0 mac_core/patch/AR6320/v3/.output/AR6320/hw.3/lib/lib_maccore_patches.a(wal_pps_patch.o)
 .xtensa.info   0x00000000        0x0 mac_core/patch/AR6320/v3/.output/AR6320/hw.3/lib/lib_maccore_patches.a(ar_xmit_wifi_ip01_patch.o)
 .xtensa.info   0x00000000        0x0 mac_core/patch/AR6320/v3/.output/AR6320/hw.3/lib/lib_maccore_patches.a(ar_wal_channel_change_patch.o)
 .xtensa.info   0x00000000        0x0 mac_core/patch/AR6320/v3/.output/AR6320/hw.3/lib/lib_maccore_patches.a(ar_wal_rc_patch.o)
 .xtensa.info   0x00000000        0x0 mac_core/patch/AR6320/v3/.output/AR6320/hw.3/lib/lib_maccore_patches.a(wal_rtt_patch.o)
 .xtensa.info   0x00000000        0x0 mac_core/patch/AR6320/v3/.output/AR6320/hw.3/lib/lib_maccore_patches.a(whal_rtt_patch.o)
 .xtensa.info   0x00000000        0x0 mac_core/patch/AR6320/v3/.output/AR6320/hw.3/lib/lib_maccore_patches.a(dbglog_patch.o)
 .xtensa.info   0x00000000        0x0 mac_core/patch/AR6320/v3/.output/AR6320/hw.3/lib/lib_maccore_patches.a(ar600p_beacon_patch.o)
 .xtensa.info   0x00000000        0x0 mac_core/patch/AR6320/v3/.output/AR6320/hw.3/lib/lib_maccore_patches.a(ar6000_power_patch.o)
 .xtensa.info   0x00000000        0x0 mac_core/patch/AR6320/v3/.output/AR6320/hw.3/lib/lib_maccore_patches.a(ar6000_interrupt_patch.o)
 .xtensa.info   0x00000000        0x0 mac_core/patch/AR6320/v3/.output/AR6320/hw.3/lib/lib_maccore_patches.a(cmnos_intrinf_patch.o)
 .xtensa.info   0x00000000        0x0 mac_core/patch/AR6320/v3/.output/AR6320/hw.3/lib/lib_maccore_patches.a(patch_pcie.o)
 .xtensa.info   0x00000000        0x0 mac_core/patch/AR6320/v3/.output/AR6320/hw.3/lib/lib_maccore_patches.a(patch_usb.o)
 .xtensa.info   0x00000000        0x0 mac_core/patch/AR6320/v3/.output/AR6320/hw.3/lib/lib_maccore_patches.a(wal_beacon_patch.o)
 .xtensa.info   0x00000000        0x0 mac_core/patch/AR6320/v3/.output/AR6320/hw.3/lib/lib_maccore_patches.a(wal_swba_patch.o)
 .xtensa.info   0x00000000        0x0 mac_core/patch/AR6320/v3/.output/AR6320/hw.3/lib/lib_maccore_patches.a(ar600P_retention_patch.o)
 .xtensa.info   0x00000000        0x0 mac_core/patch/AR6320/v3/.output/AR6320/hw.3/lib/lib_maccore_patches.a(ar_wal_rmc_patch.o)
 .xtensa.info   0x00000000        0x0 mac_core/patch/AR6320/v3/.output/AR6320/hw.3/lib/lib_maccore_patches.a(whal_rgc_patch.o)
 .xtensa.info   0x00000000        0x0 mac_core/patch/AR6320/v3/.output/AR6320/hw.3/lib/lib_maccore_patches.a(patch_hif_ce.o)
 .xtensa.info   0x00000000        0x0 mac_core/patch/AR6320/v3/.output/AR6320/hw.3/lib/lib_maccore_patches.a(patch_whal_coex.o)
 .xtensa.info   0x00000000        0x0 mac_core/patch/AR6320/v3/.output/AR6320/hw.3/lib/lib_maccore_patches.a(patch_whal_mws.o)
 .xtensa.info   0x00000000        0x0 mac_core/patch/AR6320/v3/.output/AR6320/hw.3/lib/lib_maccore_patches.a(patch_whal_mci.o)
 .xtensa.info   0x00000000        0x0 mac_core/patch/AR6320/v3/.output/AR6320/hw.3/lib/lib_maccore_patches.a(ar_wal_tx_dm_patch.o)
 .xtensa.info   0x00000000        0x0 mac_core/patch/AR6320/v3/.output/AR6320/hw.3/lib/lib_maccore_patches.a(patch_copy_engine.o)
 .xtensa.info   0x00000000        0x0 mac_core/patch/AR6320/v3/.output/AR6320/hw.3/lib/lib_maccore_patches.a(wal_concurrency_patch.o)
 .xtensa.info   0x00000000        0x0 mac_core/patch/AR6320/v3/.output/AR6320/hw.3/lib/lib_maccore_patches.a(ar_wal_tdls_patch.o)
 .xtensa.info   0x00000000        0x0 mac_core/patch/AR6320/v3/.output/AR6320/hw.3/lib/lib_maccore_patches.a(cmnos_timer_patch.o)
 .xtensa.info   0x00000000        0x0 mac_core/patch/AR6320/v3/.output/AR6320/hw.3/lib/lib_maccore_patches.a(ar_wal_tx_hcm_patch.o)
 .xtensa.info   0x00000000        0x0 mac_core/patch/AR6320/v3/.output/AR6320/hw.3/lib/lib_maccore_patches.a(ar_wal_tdls_conn_table_patch.o)
 .xtensa.info   0x00000000        0x0 mac_core/patch/AR6320/v3/.output/AR6320/hw.3/lib/lib_maccore_patches.a(ar600P_recv_patch.o)
 .xtensa.info   0x00000000        0x0 mac_core/patch/AR6320/v3/.output/AR6320/hw.3/lib/lib_maccore_patches.a(os_install_wlan_extra_memory_patches.o)
 .xtensa.info   0x00000000        0x0 mac_core/patch/AR6320/v3/.output/AR6320/hw.3/lib/lib_maccore_patches.a(patch_athos_main.o)
 .xtensa.info   0x00000000        0x0 mac_core/patch/AR6320/v3/.output/AR6320/hw.3/lib/lib_maccore_patches.a(cmnos_misc_patch.o)
 .xtensa.info   0x00000000        0x0 mac_core/patch/AR6320/v3/.output/AR6320/hw.3/lib/lib_maccore_patches.a(sha1_patch.o)
 .xtensa.info   0x00000000        0x0 mac_core/patch/AR6320/v3/.output/AR6320/hw.3/lib/lib_maccore_patches.a(patch_hif_sdio.o)
 .xtensa.info   0x00000000        0x0 mac_core/patch/AR6320/v3/.output/AR6320/hw.3/lib/lib_maccore_patches.a(ar_wal_txbf_patch.o)
 .xtensa.info   0x00000000        0x0 mac_core/patch/AR6320/v3/.output/AR6320/hw.3/lib/lib_maccore_patches.a(wmi_dbgloghook_patch.o)
 .xtensa.info   0x00000000        0x0 mac_core/patch/AR6320/v3/.output/AR6320/hw.3/lib/lib_maccore_patches.a(cmnos_allocram_patch.o)
 .xtensa.info   0x00000000        0x0 mac_core/src/wal/whal/rtt/.output/AR6320/hw.3/lib/whal_rtt.a(whal_rtt.o)
 .xtensa.info   0x00000000        0x0 halphy/patch/AR6320/v3/.output/AR6320/hw.3/lib/lib_halphy_patches.a(halphy_install_patches.o)
 .xtensa.info   0x00000000        0x0 halphy/patch/AR6320/v3/.output/AR6320/hw.3/lib/lib_halphy_patches.a(ar6000_nf_cal_patch.o)
 .xtensa.info   0x00000000        0x0 halphy/patch/AR6320/v3/.output/AR6320/hw.3/lib/lib_halphy_patches.a(ar6000_ani_patch.o)
 .xtensa.info   0x00000000        0x0 halphy/patch/AR6320/v3/.output/AR6320/hw.3/lib/lib_halphy_patches.a(ar6320_ini_patch.o)
 .xtensa.info   0x00000000        0x0 halphy/patch/AR6320/v3/.output/AR6320/hw.3/lib/lib_halphy_patches.a(ar6320_tpc_config_patch.o)
 .xtensa.info   0x00000000        0x0 halphy/patch/AR6320/v3/.output/AR6320/hw.3/lib/lib_halphy_patches.a(ar6320_eeprom_patch.o)
 .xtensa.info   0x00000000        0x0 halphy/patch/AR6320/v3/.output/AR6320/hw.3/lib/lib_halphy_patches.a(ar600P_reset_patch.o)
 .xtensa.info   0x00000000        0x0 halphy/patch/AR6320/v3/.output/AR6320/hw.3/lib/lib_halphy_patches.a(ar6000_paprd_patch.o)
 .xtensa.info   0x00000000        0x0 halphy/patch/AR6320/v3/.output/AR6320/hw.3/lib/lib_halphy_patches.a(ar6000_phy_patch.o)
 .xtensa.info   0x00000000        0x0 mac_core/src/wal/AR/rtt/.output/AR6320/hw.3/lib/ar_wal_rtt.a(wal_rtt.o)
 .xtensa.info   0x00000000        0x0 mac_core/src/wal/AR/nan/.output/AR6320/hw.3/lib/ar_wal_nan.a(wal_nan_mac.o)
 .xtensa.info   0x00000000        0x0 /cad/tensilica/chips/peregrine/RE-2013.3-linux/peregrine/xtensa-elf/lib/xcc//libgcc.a(_divsi3.o)
 .xtensa.info   0x00000000        0x0 /cad/tensilica/chips/peregrine/RE-2013.3-linux/peregrine/xtensa-elf/lib/xcc//libgcc.a(_modsi3.o)
 .xtensa.info   0x00000000        0x0 /cad/tensilica/chips/peregrine/RE-2013.3-linux/peregrine/xtensa-elf/lib/xcc//libgcc.a(_udivsi3.o)
 .xtensa.info   0x00000000        0x0 /cad/tensilica/chips/peregrine/RE-2013.3-linux/peregrine/xtensa-elf/lib/xcc//libgcc.a(_umodsi3.o)
 .xtensa.info   0x00000000        0x0 /cad/tensilica/chips/peregrine/RE-2013.3-linux/peregrine/xtensa-elf/lib/xcc//libgcc.a(_ashrdi3.o)
 .xtensa.info   0x00000000        0x0 /cad/tensilica/chips/peregrine/RE-2013.3-linux/peregrine/xtensa-elf/lib/xcc//libgcc.a(_lshrdi3.o)
 .xtensa.info   0x00000000        0x0 /cad/tensilica/chips/peregrine/RE-2013.3-linux/peregrine/xtensa-elf/lib/xcc//libgcc.a(_muldi3.o)
 .xtensa.info   0x00000000        0x0 /cad/tensilica/chips/peregrine/RE-2013.3-linux/peregrine/xtensa-elf/lib/xcc//libgcc.a(_udivdi3.o)
 .xtensa.info   0x00000000        0x0 /cad/tensilica/chips/peregrine/RE-2013.3-linux/peregrine/xtensa-elf/lib/xcc//libgcc.a(lib2funcs.o)
 .xtensa.info   0x00000000        0x0 mac_core/src/wal/whal/init/.output/AR6320/hw.3/lib/libwhal_init.a(whal_init.o)
 .xtensa.info   0x00000000        0x0 mac_core/apps/utf/AR6320/.output/AR6320/hw.3/lib/libar6320.a(whal_SCPC.o)
 .xtensa.info   0x00000000        0x0 mac_core/apps/utf/AR6004/.output/AR6320/hw.3/lib/libar6004utf.a(dkkernel.o)
 .xtensa.info   0x00000000        0x0 mac_core/apps/utf/AR6004/.output/AR6320/hw.3/lib/libar6004utf.a(event.o)
 .xtensa.info   0x00000000        0x0 mac_core/apps/utf/AR6004/.output/AR6320/hw.3/lib/libar6004utf.a(hw.o)
 .xtensa.info   0x00000000        0x0 mac_core/apps/utf/AR6004/.output/AR6320/hw.3/lib/libar6004utf.a(main.o)
 .xtensa.info   0x00000000        0x0 mac_core/src/misc/extend_alloc/.output/AR6320/hw.3/lib/libextendalloc.a(extend_allocate.o)
 .xtensa.info   0x00000000        0x0 mac_core/src/hostif/htc/.output/AR6320/hw.3/lib/libhtc.a(htc.o)
 .xtensa.info   0x00000000        0x0 mac_core/src/misc/module_id/.output/AR6320/hw.3/lib/libmodule_id.a(module_id.o)
 .xtensa.info   0x00000000        0x0 mac_core/src/wal/whal/ini/.output/AR6320/hw.3/lib/libwhalini.a(whalini.o)
 .xtensa.info   0x00000000        0x0 mac_core/src/utils/sm/.output/AR6320/hw.3/lib/libsm.a(sm.o)
 .xtensa.info   0x00000000        0x0 mac_core/src/wal/AR/coex/.output/AR6320/hw.3/lib/wal_coex.a(wal_coex.o)
 .xtensa.info   0x00000000        0x0 mac_core/src/wal/AR/coex/.output/AR6320/hw.3/lib/wal_coex.a(wal_btcoex.o)
 .xtensa.info   0x00000000        0x0 mac_core/src/wal/AR/coex/.output/AR6320/hw.3/lib/wal_coex.a(wal_mwscoex.o)
 .xtensa.info   0x00000000        0x0 mac_core/src/wal/AR/coex/.output/AR6320/hw.3/lib/wal_coex.a(wal_mwscoex_crc.o)
 .xtensa.info   0x00000000        0x0 mac_core/src/wal/AR/coex/.output/AR6320/hw.3/lib/wal_coex.a(qmi_idl_lib.o)
 .xtensa.info   0x00000000        0x0 mac_core/src/wal/AR/coex/.output/AR6320/hw.3/lib/wal_coex.a(qmi_idl_accessor.o)
 .xtensa.info   0x00000000        0x0 mac_core/src/wal/AR/coex/.output/AR6320/hw.3/lib/wal_coex.a(coexistence_service_v02.o)
 .xtensa.info   0x00000000        0x0 mac_core/src/wal/whal/coex/.output/AR6320/hw.3/lib/whal_ar_coex.a(whal_coex.o)
 .xtensa.info   0x00000000        0x0 mac_core/src/wal/whal/coex/.output/AR6320/hw.3/lib/whal_ar_coex.a(whal_mci.o)
 .xtensa.info   0x00000000        0x0 mac_core/src/wal/whal/coex/.output/AR6320/hw.3/lib/whal_ar_coex.a(whal_mws.o)
 .xtensa.info   0x00000000        0x0 mac_core/apps/lib/.output/AR6320/hw.3/lib/libapp.a(efusew.o)
 .xtensa.info   0x00000000        0x0 mac_core/apps/lib/.output/AR6320/hw.3/lib/libapp.a(otpstreamw.o)

.debug_aranges  0x00000000     0x12b0
 *(.debug_aranges)
 .debug_aranges
                0x00000000       0x20 mac_core/apps/utf/commonUTF/.output/AR6320/hw.3/lib/libcommonutf.a(main.o)
 .debug_aranges
                0x00000020       0x20 mac_core/apps/utf/commonUTF/.output/AR6320/hw.3/lib/libcommonutf.a(utf.o)
 .debug_aranges
                0x00000040       0x20 mac_core/apps/utf/commonUTF/.output/AR6320/hw.3/lib/libcommonutf.a(cmdEvtProcEngine.o)
 .debug_aranges
                0x00000060       0x20 mac_core/apps/utf/commonUTF/.output/AR6320/hw.3/lib/libcommonutf.a(cmdProcessing.o)
 .debug_aranges
                0x00000080       0x20 mac_core/apps/utf/commonUTF/.output/AR6320/hw.3/lib/libcommonutf.a(cmdProcessingSM.o)
 .debug_aranges
                0x000000a0       0x20 mac_core/apps/utf/commonUTF/.output/AR6320/hw.3/lib/libcommonutf.a(genTxBinCmdTlv.o)
 .debug_aranges
                0x000000c0       0x20 mac_core/apps/utf/commonUTF/.output/AR6320/hw.3/lib/libcommonutf.a(parseBinCmdStream.o)
 .debug_aranges
                0x000000e0       0x20 mac_core/apps/utf/commonUTF/.output/AR6320/hw.3/lib/libcommonutf.a(testUtil.o)
 .debug_aranges
                0x00000100       0x20 mac_core/apps/utf/commonUTF/.output/AR6320/hw.3/lib/libcommonutf.a(whalExtensionGeneric.o)
 .debug_aranges
                0x00000120       0x20 mac_core/apps/utf/AR6320/.output/AR6320/hw.3/lib/libar6320.a(ar6320Register.o)
 .debug_aranges
                0x00000140       0x20 mac_core/apps/utf/AR6320/.output/AR6320/hw.3/lib/libar6320.a(whal_tcmd.o)
 .debug_aranges
                0x00000160       0x20 mac_core/apps/utf/tcmd_utf/.output/AR6320/hw.3/lib/libtcmdutf.a(tcmd.o)
 .debug_aranges
                0x00000180       0x20 mac_core/apps/utf/tcmd_utf/.output/AR6320/hw.3/lib/libtcmdutf.a(tcmd_rx.o)
 .debug_aranges
                0x000001a0       0x20 mac_core/apps/utf/tcmd_utf/.output/AR6320/hw.3/lib/libtcmdutf.a(tcmd_tx.o)
 .debug_aranges
                0x000001c0       0x20 mac_core/apps/utf/tcmd_utf/.output/AR6320/hw.3/lib/libtcmdutf.a(utfCallback.o)
 .debug_aranges
                0x000001e0       0x20 mac_core/apps/utf/tcmd_utf/.output/AR6320/hw.3/lib/libtcmdutf.a(if_split.o)
 .debug_aranges
                0x00000200       0x20 mac_core/apps/utf/tcmd_utf/.output/AR6320/hw.3/lib/libtcmdutf.a(pn.o)
 .debug_aranges
                0x00000220       0x20 mac_core/apps/utf/testScriptIF/.output/AR6320/hw.3/lib/libtestscriptif.a(testscriptIFRegister.o)
 .debug_aranges
                0x00000240       0x20 mac_core/apps/utf/testScriptIF/.output/AR6320/hw.3/lib/libtestscriptif.a(testscriptIF.o)
 .debug_aranges
                0x00000260       0x20 mac_core/apps/utf/wmiHostIF/.output/AR6320/hw.3/lib/libwmihostif.a(legHostIF.o)
 .debug_aranges
                0x00000280       0x20 mac_core/apps/utf/wmiHostIF/.output/AR6320/hw.3/lib/libwmihostif.a(wmi_tcmd.o)
 .debug_aranges
                0x000002a0       0x20 mac_core/apps/utf/wmiHostIF/.output/AR6320/hw.3/lib/libwmihostif.a(htt_tgt_hif_svc.o)
 .debug_aranges
                0x000002c0       0x28 mac_core/src/wal/whal/reset/.output/AR6320/hw.3/lib/ar6000_cal.a(ar6320_cal.o)
 .debug_aranges
                0x000002e8       0x20 mac_core/src/wal/whal/reset/.output/AR6320/hw.3/lib/ar6000_cal.a(ar6320_rxdc_cal.o)
 .debug_aranges
                0x00000308       0x20 mac_core/src/wal/whal/reset/.output/AR6320/hw.3/lib/ar6000_cal.a(ar6320_iq_cal.o)
 .debug_aranges
                0x00000328       0x20 mac_core/src/wal/whal/reset/.output/AR6320/hw.3/lib/ar6000_cal.a(ar6320_pef_cal.o)
 .debug_aranges
                0x00000348       0x20 mac_core/patch/AR6320/v3/.output/AR6320/hw.3/lib/lib_maccore_patches.a(install_patches.o)
 .debug_aranges
                0x00000368       0x20 mac_core/patch/AR6320/v3/.output/AR6320/hw.3/lib/lib_maccore_patches.a(whal_install_patches.o)
 .debug_aranges
                0x00000388       0x20 mac_core/patch/AR6320/v3/.output/AR6320/hw.3/lib/lib_maccore_patches.a(wal_install_patches.o)
 .debug_aranges
                0x000003a8       0x28 mac_core/patch/AR6320/v3/.output/AR6320/hw.3/lib/lib_maccore_patches.a(ar_wal_connection_pause_patch.o)
 .debug_aranges
                0x000003d0       0x38 mac_core/patch/AR6320/v3/.output/AR6320/hw.3/lib/lib_maccore_patches.a(ar_wal_phy_dev_patch.o)
 .debug_aranges
                0x00000408       0x38 mac_core/patch/AR6320/v3/.output/AR6320/hw.3/lib/lib_maccore_patches.a(cmnos_retention_patch.o)
 .debug_aranges
                0x00000440       0x28 mac_core/patch/AR6320/v3/.output/AR6320/hw.3/lib/lib_maccore_patches.a(ar_wal_tx_de_patch.o)
 .debug_aranges
                0x00000468       0x28 mac_core/patch/AR6320/v3/.output/AR6320/hw.3/lib/lib_maccore_patches.a(ar_wal_local_frames_wifi_ip01_patch.o)
 .debug_aranges
                0x00000490       0x20 mac_core/patch/AR6320/v3/.output/AR6320/hw.3/lib/lib_maccore_patches.a(pool_mgr_patch.o)
 .debug_aranges
                0x000004b0       0x28 mac_core/patch/AR6320/v3/.output/AR6320/hw.3/lib/lib_maccore_patches.a(ar_wal_rx_patch.o)
 .debug_aranges
                0x000004d8       0x28 mac_core/patch/AR6320/v3/.output/AR6320/hw.3/lib/lib_maccore_patches.a(ar_wal_rx_offload_patch.o)
 .debug_aranges
                0x00000500       0x28 mac_core/patch/AR6320/v3/.output/AR6320/hw.3/lib/lib_maccore_patches.a(ar_wal_rx_common_patch.o)
 .debug_aranges
                0x00000528       0x28 mac_core/patch/AR6320/v3/.output/AR6320/hw.3/lib/lib_maccore_patches.a(ar_wal_vdev_patch.o)
 .debug_aranges
                0x00000550       0x28 mac_core/patch/AR6320/v3/.output/AR6320/hw.3/lib/lib_maccore_patches.a(ar_tx_q_enque_patch.o)
 .debug_aranges
                0x00000578       0x28 mac_core/patch/AR6320/v3/.output/AR6320/hw.3/lib/lib_maccore_patches.a(tx_sched_patch.o)
 .debug_aranges
                0x000005a0       0x48 mac_core/patch/AR6320/v3/.output/AR6320/hw.3/lib/lib_maccore_patches.a(ar_wal_tx_send_patch.o)
 .debug_aranges
                0x000005e8       0x28 mac_core/patch/AR6320/v3/.output/AR6320/hw.3/lib/lib_maccore_patches.a(ar_wal_chain_mgmt_patch.o)
 .debug_aranges
                0x00000610       0x28 mac_core/patch/AR6320/v3/.output/AR6320/hw.3/lib/lib_maccore_patches.a(ar_wal_peer_patch.o)
 .debug_aranges
                0x00000638       0x38 mac_core/patch/AR6320/v3/.output/AR6320/hw.3/lib/lib_maccore_patches.a(ar600P_txbf_patch.o)
 .debug_aranges
                0x00000670       0x20 mac_core/patch/AR6320/v3/.output/AR6320/hw.3/lib/lib_maccore_patches.a(wal_pps_patch.o)
 .debug_aranges
                0x00000690       0x28 mac_core/patch/AR6320/v3/.output/AR6320/hw.3/lib/lib_maccore_patches.a(ar_xmit_wifi_ip01_patch.o)
 .debug_aranges
                0x000006b8       0x28 mac_core/patch/AR6320/v3/.output/AR6320/hw.3/lib/lib_maccore_patches.a(ar_wal_channel_change_patch.o)
 .debug_aranges
                0x000006e0       0x28 mac_core/patch/AR6320/v3/.output/AR6320/hw.3/lib/lib_maccore_patches.a(ar_wal_rc_patch.o)
 .debug_aranges
                0x00000708       0x20 mac_core/patch/AR6320/v3/.output/AR6320/hw.3/lib/lib_maccore_patches.a(wal_rtt_patch.o)
 .debug_aranges
                0x00000728       0x20 mac_core/patch/AR6320/v3/.output/AR6320/hw.3/lib/lib_maccore_patches.a(whal_rtt_patch.o)
 .debug_aranges
                0x00000748       0x28 mac_core/patch/AR6320/v3/.output/AR6320/hw.3/lib/lib_maccore_patches.a(dbglog_patch.o)
 .debug_aranges
                0x00000770       0x28 mac_core/patch/AR6320/v3/.output/AR6320/hw.3/lib/lib_maccore_patches.a(ar600p_beacon_patch.o)
 .debug_aranges
                0x00000798       0x28 mac_core/patch/AR6320/v3/.output/AR6320/hw.3/lib/lib_maccore_patches.a(ar6000_power_patch.o)
 .debug_aranges
                0x000007c0       0x20 mac_core/patch/AR6320/v3/.output/AR6320/hw.3/lib/lib_maccore_patches.a(ar6000_interrupt_patch.o)
 .debug_aranges
                0x000007e0       0x30 mac_core/patch/AR6320/v3/.output/AR6320/hw.3/lib/lib_maccore_patches.a(cmnos_intrinf_patch.o)
 .debug_aranges
                0x00000810       0x20 mac_core/patch/AR6320/v3/.output/AR6320/hw.3/lib/lib_maccore_patches.a(patch_pcie.o)
 .debug_aranges
                0x00000830       0x20 mac_core/patch/AR6320/v3/.output/AR6320/hw.3/lib/lib_maccore_patches.a(patch_usb.o)
 .debug_aranges
                0x00000850       0x28 mac_core/patch/AR6320/v3/.output/AR6320/hw.3/lib/lib_maccore_patches.a(wal_beacon_patch.o)
 .debug_aranges
                0x00000878       0x28 mac_core/patch/AR6320/v3/.output/AR6320/hw.3/lib/lib_maccore_patches.a(wal_swba_patch.o)
 .debug_aranges
                0x000008a0       0x28 mac_core/patch/AR6320/v3/.output/AR6320/hw.3/lib/lib_maccore_patches.a(ar600P_retention_patch.o)
 .debug_aranges
                0x000008c8       0x20 mac_core/patch/AR6320/v3/.output/AR6320/hw.3/lib/lib_maccore_patches.a(ar_wal_rmc_patch.o)
 .debug_aranges
                0x000008e8       0x20 mac_core/patch/AR6320/v3/.output/AR6320/hw.3/lib/lib_maccore_patches.a(whal_rgc_patch.o)
 .debug_aranges
                0x00000908       0x20 mac_core/patch/AR6320/v3/.output/AR6320/hw.3/lib/lib_maccore_patches.a(patch_hif_ce.o)
 .debug_aranges
                0x00000928       0x20 mac_core/patch/AR6320/v3/.output/AR6320/hw.3/lib/lib_maccore_patches.a(patch_whal_coex.o)
 .debug_aranges
                0x00000948       0x20 mac_core/patch/AR6320/v3/.output/AR6320/hw.3/lib/lib_maccore_patches.a(patch_whal_mws.o)
 .debug_aranges
                0x00000968       0x20 mac_core/patch/AR6320/v3/.output/AR6320/hw.3/lib/lib_maccore_patches.a(patch_whal_mci.o)
 .debug_aranges
                0x00000988       0x30 mac_core/patch/AR6320/v3/.output/AR6320/hw.3/lib/lib_maccore_patches.a(ar_wal_tx_dm_patch.o)
 .debug_aranges
                0x000009b8       0x28 mac_core/patch/AR6320/v3/.output/AR6320/hw.3/lib/lib_maccore_patches.a(patch_copy_engine.o)
 .debug_aranges
                0x000009e0       0x28 mac_core/patch/AR6320/v3/.output/AR6320/hw.3/lib/lib_maccore_patches.a(wal_concurrency_patch.o)
 .debug_aranges
                0x00000a08       0x28 mac_core/patch/AR6320/v3/.output/AR6320/hw.3/lib/lib_maccore_patches.a(ar_wal_tdls_patch.o)
 .debug_aranges
                0x00000a30       0x28 mac_core/patch/AR6320/v3/.output/AR6320/hw.3/lib/lib_maccore_patches.a(cmnos_timer_patch.o)
 .debug_aranges
                0x00000a58       0x30 mac_core/patch/AR6320/v3/.output/AR6320/hw.3/lib/lib_maccore_patches.a(ar_wal_tx_hcm_patch.o)
 .debug_aranges
                0x00000a88       0x28 mac_core/patch/AR6320/v3/.output/AR6320/hw.3/lib/lib_maccore_patches.a(ar_wal_tdls_conn_table_patch.o)
 .debug_aranges
                0x00000ab0       0x38 mac_core/patch/AR6320/v3/.output/AR6320/hw.3/lib/lib_maccore_patches.a(ar600P_recv_patch.o)
 .debug_aranges
                0x00000ae8       0x20 mac_core/patch/AR6320/v3/.output/AR6320/hw.3/lib/lib_maccore_patches.a(os_install_wlan_extra_memory_patches.o)
 .debug_aranges
                0x00000b08       0x20 mac_core/patch/AR6320/v3/.output/AR6320/hw.3/lib/lib_maccore_patches.a(patch_athos_main.o)
 .debug_aranges
                0x00000b28       0x20 mac_core/patch/AR6320/v3/.output/AR6320/hw.3/lib/lib_maccore_patches.a(cmnos_misc_patch.o)
 .debug_aranges
                0x00000b48       0x28 mac_core/patch/AR6320/v3/.output/AR6320/hw.3/lib/lib_maccore_patches.a(sha1_patch.o)
 .debug_aranges
                0x00000b70       0x20 mac_core/patch/AR6320/v3/.output/AR6320/hw.3/lib/lib_maccore_patches.a(patch_hif_sdio.o)
 .debug_aranges
                0x00000b90       0x28 mac_core/patch/AR6320/v3/.output/AR6320/hw.3/lib/lib_maccore_patches.a(ar_wal_txbf_patch.o)
 .debug_aranges
                0x00000bb8       0x20 mac_core/patch/AR6320/v3/.output/AR6320/hw.3/lib/lib_maccore_patches.a(wmi_dbgloghook_patch.o)
 .debug_aranges
                0x00000bd8       0x28 mac_core/patch/AR6320/v3/.output/AR6320/hw.3/lib/lib_maccore_patches.a(cmnos_allocram_patch.o)
 .debug_aranges
                0x00000c00       0x38 mac_core/src/wal/whal/rtt/.output/AR6320/hw.3/lib/whal_rtt.a(whal_rtt.o)
 .debug_aranges
                0x00000c38       0x20 halphy/patch/AR6320/v3/.output/AR6320/hw.3/lib/lib_halphy_patches.a(halphy_install_patches.o)
 .debug_aranges
                0x00000c58       0x20 halphy/patch/AR6320/v3/.output/AR6320/hw.3/lib/lib_halphy_patches.a(ar6000_nf_cal_patch.o)
 .debug_aranges
                0x00000c78       0x28 halphy/patch/AR6320/v3/.output/AR6320/hw.3/lib/lib_halphy_patches.a(ar6000_ani_patch.o)
 .debug_aranges
                0x00000ca0       0x30 halphy/patch/AR6320/v3/.output/AR6320/hw.3/lib/lib_halphy_patches.a(ar6320_ini_patch.o)
 .debug_aranges
                0x00000cd0       0x28 halphy/patch/AR6320/v3/.output/AR6320/hw.3/lib/lib_halphy_patches.a(ar6320_tpc_config_patch.o)
 .debug_aranges
                0x00000cf8       0x28 halphy/patch/AR6320/v3/.output/AR6320/hw.3/lib/lib_halphy_patches.a(ar6320_eeprom_patch.o)
 .debug_aranges
                0x00000d20       0x28 halphy/patch/AR6320/v3/.output/AR6320/hw.3/lib/lib_halphy_patches.a(ar600P_reset_patch.o)
 .debug_aranges
                0x00000d48       0x28 halphy/patch/AR6320/v3/.output/AR6320/hw.3/lib/lib_halphy_patches.a(ar6000_paprd_patch.o)
 .debug_aranges
                0x00000d70       0x28 halphy/patch/AR6320/v3/.output/AR6320/hw.3/lib/lib_halphy_patches.a(ar6000_phy_patch.o)
 .debug_aranges
                0x00000d98       0x28 mac_core/src/wal/AR/rtt/.output/AR6320/hw.3/lib/ar_wal_rtt.a(wal_rtt.o)
 .debug_aranges
                0x00000dc0       0x20 mac_core/src/wal/AR/nan/.output/AR6320/hw.3/lib/ar_wal_nan.a(wal_nan_mac.o)
 .debug_aranges
                0x00000de0       0x20 /cad/tensilica/chips/peregrine/RE-2013.3-linux/peregrine/xtensa-elf/lib/xcc//libgcc.a(_divsi3.o)
 .debug_aranges
                0x00000e00       0x20 /cad/tensilica/chips/peregrine/RE-2013.3-linux/peregrine/xtensa-elf/lib/xcc//libgcc.a(_modsi3.o)
 .debug_aranges
                0x00000e20       0x20 /cad/tensilica/chips/peregrine/RE-2013.3-linux/peregrine/xtensa-elf/lib/xcc//libgcc.a(_udivsi3.o)
 .debug_aranges
                0x00000e40       0x20 /cad/tensilica/chips/peregrine/RE-2013.3-linux/peregrine/xtensa-elf/lib/xcc//libgcc.a(_umodsi3.o)
 .debug_aranges
                0x00000e60       0x20 /cad/tensilica/chips/peregrine/RE-2013.3-linux/peregrine/xtensa-elf/lib/xcc//libgcc.a(_ashrdi3.o)
 .debug_aranges
                0x00000e80       0x20 /cad/tensilica/chips/peregrine/RE-2013.3-linux/peregrine/xtensa-elf/lib/xcc//libgcc.a(_lshrdi3.o)
 .debug_aranges
                0x00000ea0       0x20 /cad/tensilica/chips/peregrine/RE-2013.3-linux/peregrine/xtensa-elf/lib/xcc//libgcc.a(_muldi3.o)
 .debug_aranges
                0x00000ec0       0x20 /cad/tensilica/chips/peregrine/RE-2013.3-linux/peregrine/xtensa-elf/lib/xcc//libgcc.a(_udivdi3.o)
 .debug_aranges
                0x00000ee0       0x28 /cad/tensilica/chips/peregrine/RE-2013.3-linux/peregrine/xtensa-elf/lib/xcc//libgcc.a(lib2funcs.o)
 .debug_aranges
                0x00000f08       0x20 mac_core/src/wal/whal/init/.output/AR6320/hw.3/lib/libwhal_init.a(whal_init.o)
 .debug_aranges
                0x00000f28       0x20 mac_core/apps/utf/AR6320/.output/AR6320/hw.3/lib/libar6320.a(whal_SCPC.o)
 .debug_aranges
                0x00000f48       0x20 mac_core/apps/utf/AR6004/.output/AR6320/hw.3/lib/libar6004utf.a(dkkernel.o)
 .debug_aranges
                0x00000f68       0x20 mac_core/apps/utf/AR6004/.output/AR6320/hw.3/lib/libar6004utf.a(event.o)
 .debug_aranges
                0x00000f88       0x20 mac_core/apps/utf/AR6004/.output/AR6320/hw.3/lib/libar6004utf.a(hw.o)
 .debug_aranges
                0x00000fa8       0x28 mac_core/src/misc/extend_alloc/.output/AR6320/hw.3/lib/libextendalloc.a(extend_allocate.o)
 .debug_aranges
                0x00000fd0       0x60 mac_core/src/hostif/htc/.output/AR6320/hw.3/lib/libhtc.a(htc.o)
 .debug_aranges
                0x00001030       0x20 mac_core/src/misc/module_id/.output/AR6320/hw.3/lib/libmodule_id.a(module_id.o)
 .debug_aranges
                0x00001050       0x28 mac_core/src/wal/whal/ini/.output/AR6320/hw.3/lib/libwhalini.a(whalini.o)
 .debug_aranges
                0x00001078       0x28 mac_core/src/utils/sm/.output/AR6320/hw.3/lib/libsm.a(sm.o)
 .debug_aranges
                0x000010a0       0x68 mac_core/src/wal/AR/coex/.output/AR6320/hw.3/lib/wal_coex.a(wal_coex.o)
 .debug_aranges
                0x00001108       0x38 mac_core/src/wal/AR/coex/.output/AR6320/hw.3/lib/wal_coex.a(wal_btcoex.o)
 .debug_aranges
                0x00001140       0x38 mac_core/src/wal/AR/coex/.output/AR6320/hw.3/lib/wal_coex.a(wal_mwscoex.o)
 .debug_aranges
                0x00001178       0x20 mac_core/src/wal/AR/coex/.output/AR6320/hw.3/lib/wal_coex.a(wal_mwscoex_crc.o)
 .debug_aranges
                0x00001198       0x20 mac_core/src/wal/AR/coex/.output/AR6320/hw.3/lib/wal_coex.a(qmi_idl_lib.o)
 .debug_aranges
                0x000011b8       0x20 mac_core/src/wal/AR/coex/.output/AR6320/hw.3/lib/wal_coex.a(qmi_idl_accessor.o)
 .debug_aranges
                0x000011d8       0x20 mac_core/src/wal/AR/coex/.output/AR6320/hw.3/lib/wal_coex.a(coexistence_service_v02.o)
 .debug_aranges
                0x000011f8       0x28 mac_core/src/wal/whal/coex/.output/AR6320/hw.3/lib/whal_ar_coex.a(whal_coex.o)
 .debug_aranges
                0x00001220       0x28 mac_core/src/wal/whal/coex/.output/AR6320/hw.3/lib/whal_ar_coex.a(whal_mci.o)
 .debug_aranges
                0x00001248       0x28 mac_core/src/wal/whal/coex/.output/AR6320/hw.3/lib/whal_ar_coex.a(whal_mws.o)
 .debug_aranges
                0x00001270       0x20 mac_core/apps/lib/.output/AR6320/hw.3/lib/libapp.a(efusew.o)
 .debug_aranges
                0x00001290       0x20 mac_core/apps/lib/.output/AR6320/hw.3/lib/libapp.a(otpstreamw.o)

.debug_pubnames
                0x00000000    0x1006b
 *(.debug_pubnames)
 .debug_pubnames
                0x00000000       0x20 mac_core/apps/utf/commonUTF/.output/AR6320/hw.3/lib/libcommonutf.a(main.o)
 .debug_pubnames
                0x00000020       0xaf mac_core/apps/utf/commonUTF/.output/AR6320/hw.3/lib/libcommonutf.a(utf.o)
 .debug_pubnames
                0x000000cf       0x78 mac_core/apps/utf/commonUTF/.output/AR6320/hw.3/lib/libcommonutf.a(cmdEvtProcEngine.o)
 .debug_pubnames
                0x00000147      0x1f1 mac_core/apps/utf/commonUTF/.output/AR6320/hw.3/lib/libcommonutf.a(cmdProcessing.o)
 .debug_pubnames
                0x00000338       0x30 mac_core/apps/utf/commonUTF/.output/AR6320/hw.3/lib/libcommonutf.a(cmdProcessingSM.o)
 .debug_pubnames
                0x00000368       0xb2 mac_core/apps/utf/commonUTF/.output/AR6320/hw.3/lib/libcommonutf.a(genTxBinCmdTlv.o)
 .debug_pubnames
                0x0000041a       0x61 mac_core/apps/utf/commonUTF/.output/AR6320/hw.3/lib/libcommonutf.a(parseBinCmdStream.o)
 .debug_pubnames
                0x0000047b       0x3d mac_core/apps/utf/commonUTF/.output/AR6320/hw.3/lib/libcommonutf.a(testUtil.o)
 .debug_pubnames
                0x000004b8       0x8a mac_core/apps/utf/commonUTF/.output/AR6320/hw.3/lib/libcommonutf.a(whalExtensionGeneric.o)
 .debug_pubnames
                0x00000542       0x2c mac_core/apps/utf/commonUTF/.output/AR6320/hw.3/lib/libcommonutf.a(_cmd_calParmBinTemplate.o)
 .debug_pubnames
                0x0000056e       0x30 mac_core/apps/utf/commonUTF/.output/AR6320/hw.3/lib/libcommonutf.a(_cmd_nartCmdParmBinTemplate.o)
 .debug_pubnames
                0x0000059e       0x2b mac_core/apps/utf/commonUTF/.output/AR6320/hw.3/lib/libcommonutf.a(_cmd_pmParmBinTemplate.o)
 .debug_pubnames
                0x000005c9       0x2b mac_core/apps/utf/commonUTF/.output/AR6320/hw.3/lib/libcommonutf.a(_cmd_rxParmBinTemplate.o)
 .debug_pubnames
                0x000005f4       0x2b mac_core/apps/utf/commonUTF/.output/AR6320/hw.3/lib/libcommonutf.a(_cmd_txParmBinTemplate.o)
 .debug_pubnames
                0x0000061f       0x2f mac_core/apps/utf/commonUTF/.output/AR6320/hw.3/lib/libcommonutf.a(cmdParmsTemplate.o)
 .debug_pubnames
                0x0000064e       0x30 mac_core/apps/utf/commonUTF/.output/AR6320/hw.3/lib/libcommonutf.a(_cmd_nartRspParmTxtTemplate.o)
 .debug_pubnames
                0x0000067e       0x33 mac_core/apps/utf/commonUTF/.output/AR6320/hw.3/lib/libcommonutf.a(_cmd_rspGenericParmTxtTemplate.o)
 .debug_pubnames
                0x000006b1       0x31 mac_core/apps/utf/commonUTF/.output/AR6320/hw.3/lib/libcommonutf.a(_cmd_rxStatusParmTxtTemplate.o)
 .debug_pubnames
                0x000006e2       0x35 mac_core/apps/utf/commonUTF/.output/AR6320/hw.3/lib/libcommonutf.a(_cmd_submitreportParmTxtTemplate.o)
 .debug_pubnames
                0x00000717       0x31 mac_core/apps/utf/commonUTF/.output/AR6320/hw.3/lib/libcommonutf.a(_cmd_txStatusParmTxtTemplate.o)
 .debug_pubnames
                0x00000748       0x26 mac_core/apps/utf/AR6320/.output/AR6320/hw.3/lib/libar6320.a(ar6320Register.o)
 .debug_pubnames
                0x0000076e      0x4fa mac_core/apps/utf/AR6320/.output/AR6320/hw.3/lib/libar6320.a(whal_tcmd.o)
 .debug_pubnames
                0x00000c68      0x38b mac_core/apps/utf/tcmd_utf/.output/AR6320/hw.3/lib/libtcmdutf.a(tcmd.o)
 .debug_pubnames
                0x00000ff3      0x265 mac_core/apps/utf/tcmd_utf/.output/AR6320/hw.3/lib/libtcmdutf.a(tcmd_rx.o)
 .debug_pubnames
                0x00001258      0x331 mac_core/apps/utf/tcmd_utf/.output/AR6320/hw.3/lib/libtcmdutf.a(tcmd_tx.o)
 .debug_pubnames
                0x00001589       0xbe mac_core/apps/utf/tcmd_utf/.output/AR6320/hw.3/lib/libtcmdutf.a(utfCallback.o)
 .debug_pubnames
                0x00001647       0x68 mac_core/apps/utf/tcmd_utf/.output/AR6320/hw.3/lib/libtcmdutf.a(if_split.o)
 .debug_pubnames
                0x000016af       0x60 mac_core/apps/utf/tcmd_utf/.output/AR6320/hw.3/lib/libtcmdutf.a(pn.o)
 .debug_pubnames
                0x0000170f       0x28 mac_core/apps/utf/testScriptIF/.output/AR6320/hw.3/lib/libtestscriptif.a(testscriptIFRegister.o)
 .debug_pubnames
                0x00001737       0x48 mac_core/apps/utf/testScriptIF/.output/AR6320/hw.3/lib/libtestscriptif.a(testscriptIF.o)
 .debug_pubnames
                0x0000177f      0x650 mac_core/apps/utf/wmiHostIF/.output/AR6320/hw.3/lib/libwmihostif.a(legHostIF.o)
 .debug_pubnames
                0x00001dcf      0x1de mac_core/apps/utf/wmiHostIF/.output/AR6320/hw.3/lib/libwmihostif.a(wmi_tcmd.o)
 .debug_pubnames
                0x00001fad      0x22d mac_core/apps/utf/wmiHostIF/.output/AR6320/hw.3/lib/libwmihostif.a(htt_tgt_hif_svc.o)
 .debug_pubnames
                0x000021da      0x117 mac_core/src/wal/whal/reset/.output/AR6320/hw.3/lib/ar6000_cal.a(ar6320_cal.o)
 .debug_pubnames
                0x000022f1      0x232 mac_core/src/wal/whal/reset/.output/AR6320/hw.3/lib/ar6000_cal.a(ar6320_rxdc_cal.o)
 .debug_pubnames
                0x00002523      0x223 mac_core/src/wal/whal/reset/.output/AR6320/hw.3/lib/ar6000_cal.a(ar6320_iq_cal.o)
 .debug_pubnames
                0x00002746      0x136 mac_core/src/wal/whal/reset/.output/AR6320/hw.3/lib/ar6000_cal.a(ar6320_pef_cal.o)
 .debug_pubnames
                0x0000287c       0x41 mac_core/patch/AR6320/v3/.output/AR6320/hw.3/lib/lib_maccore_patches.a(install_patches.o)
 .debug_pubnames
                0x000028bd       0x46 mac_core/patch/AR6320/v3/.output/AR6320/hw.3/lib/lib_maccore_patches.a(whal_install_patches.o)
 .debug_pubnames
                0x00002903       0x2a mac_core/patch/AR6320/v3/.output/AR6320/hw.3/lib/lib_maccore_patches.a(wal_install_patches.o)
 .debug_pubnames
                0x0000292d      0x1b9 mac_core/patch/AR6320/v3/.output/AR6320/hw.3/lib/lib_maccore_patches.a(ar_wal_connection_pause_patch.o)
 .debug_pubnames
                0x00002ae6      0x35e mac_core/patch/AR6320/v3/.output/AR6320/hw.3/lib/lib_maccore_patches.a(ar_wal_phy_dev_patch.o)
 .debug_pubnames
                0x00002e44      0x209 mac_core/patch/AR6320/v3/.output/AR6320/hw.3/lib/lib_maccore_patches.a(cmnos_retention_patch.o)
 .debug_pubnames
                0x0000304d      0x148 mac_core/patch/AR6320/v3/.output/AR6320/hw.3/lib/lib_maccore_patches.a(ar_wal_tx_de_patch.o)
 .debug_pubnames
                0x00003195      0x122 mac_core/patch/AR6320/v3/.output/AR6320/hw.3/lib/lib_maccore_patches.a(ar_wal_local_frames_wifi_ip01_patch.o)
 .debug_pubnames
                0x000032b7       0x7a mac_core/patch/AR6320/v3/.output/AR6320/hw.3/lib/lib_maccore_patches.a(pool_mgr_patch.o)
 .debug_pubnames
                0x00003331      0x617 mac_core/patch/AR6320/v3/.output/AR6320/hw.3/lib/lib_maccore_patches.a(ar_wal_rx_patch.o)
 .debug_pubnames
                0x00003948      0x225 mac_core/patch/AR6320/v3/.output/AR6320/hw.3/lib/lib_maccore_patches.a(ar_wal_rx_offload_patch.o)
 .debug_pubnames
                0x00003b6d      0x119 mac_core/patch/AR6320/v3/.output/AR6320/hw.3/lib/lib_maccore_patches.a(ar_wal_rx_common_patch.o)
 .debug_pubnames
                0x00003c86      0x4aa mac_core/patch/AR6320/v3/.output/AR6320/hw.3/lib/lib_maccore_patches.a(ar_wal_vdev_patch.o)
 .debug_pubnames
                0x00004130       0x89 mac_core/patch/AR6320/v3/.output/AR6320/hw.3/lib/lib_maccore_patches.a(ar_tx_q_enque_patch.o)
 .debug_pubnames
                0x000041b9      0x353 mac_core/patch/AR6320/v3/.output/AR6320/hw.3/lib/lib_maccore_patches.a(tx_sched_patch.o)
 .debug_pubnames
                0x0000450c      0x9c6 mac_core/patch/AR6320/v3/.output/AR6320/hw.3/lib/lib_maccore_patches.a(ar_wal_tx_send_patch.o)
 .debug_pubnames
                0x00004ed2      0x10f mac_core/patch/AR6320/v3/.output/AR6320/hw.3/lib/lib_maccore_patches.a(ar_wal_chain_mgmt_patch.o)
 .debug_pubnames
                0x00004fe1      0x58a mac_core/patch/AR6320/v3/.output/AR6320/hw.3/lib/lib_maccore_patches.a(ar_wal_peer_patch.o)
 .debug_pubnames
                0x0000556b      0x30b mac_core/patch/AR6320/v3/.output/AR6320/hw.3/lib/lib_maccore_patches.a(ar600P_txbf_patch.o)
 .debug_pubnames
                0x00005876       0x4e mac_core/patch/AR6320/v3/.output/AR6320/hw.3/lib/lib_maccore_patches.a(wal_pps_patch.o)
 .debug_pubnames
                0x000058c4      0x1d3 mac_core/patch/AR6320/v3/.output/AR6320/hw.3/lib/lib_maccore_patches.a(ar_xmit_wifi_ip01_patch.o)
 .debug_pubnames
                0x00005a97       0xd2 mac_core/patch/AR6320/v3/.output/AR6320/hw.3/lib/lib_maccore_patches.a(ar_wal_channel_change_patch.o)
 .debug_pubnames
                0x00005b69      0x322 mac_core/patch/AR6320/v3/.output/AR6320/hw.3/lib/lib_maccore_patches.a(ar_wal_rc_patch.o)
 .debug_pubnames
                0x00005e8b       0x2c mac_core/patch/AR6320/v3/.output/AR6320/hw.3/lib/lib_maccore_patches.a(wal_rtt_patch.o)
 .debug_pubnames
                0x00005eb7       0x2d mac_core/patch/AR6320/v3/.output/AR6320/hw.3/lib/lib_maccore_patches.a(whal_rtt_patch.o)
 .debug_pubnames
                0x00005ee4      0x2e8 mac_core/patch/AR6320/v3/.output/AR6320/hw.3/lib/lib_maccore_patches.a(dbglog_patch.o)
 .debug_pubnames
                0x000061cc       0x8d mac_core/patch/AR6320/v3/.output/AR6320/hw.3/lib/lib_maccore_patches.a(ar600p_beacon_patch.o)
 .debug_pubnames
                0x00006259      0x22a mac_core/patch/AR6320/v3/.output/AR6320/hw.3/lib/lib_maccore_patches.a(ar6000_power_patch.o)
 .debug_pubnames
                0x00006483       0xb7 mac_core/patch/AR6320/v3/.output/AR6320/hw.3/lib/lib_maccore_patches.a(ar6000_interrupt_patch.o)
 .debug_pubnames
                0x0000653a      0x1c7 mac_core/patch/AR6320/v3/.output/AR6320/hw.3/lib/lib_maccore_patches.a(cmnos_intrinf_patch.o)
 .debug_pubnames
                0x00006701      0x11c mac_core/patch/AR6320/v3/.output/AR6320/hw.3/lib/lib_maccore_patches.a(patch_pcie.o)
 .debug_pubnames
                0x0000681d      0x240 mac_core/patch/AR6320/v3/.output/AR6320/hw.3/lib/lib_maccore_patches.a(patch_usb.o)
 .debug_pubnames
                0x00006a5d       0xa0 mac_core/patch/AR6320/v3/.output/AR6320/hw.3/lib/lib_maccore_patches.a(wal_beacon_patch.o)
 .debug_pubnames
                0x00006afd       0x6c mac_core/patch/AR6320/v3/.output/AR6320/hw.3/lib/lib_maccore_patches.a(wal_swba_patch.o)
 .debug_pubnames
                0x00006b69      0x369 mac_core/patch/AR6320/v3/.output/AR6320/hw.3/lib/lib_maccore_patches.a(ar600P_retention_patch.o)
 .debug_pubnames
                0x00006ed2       0x5f mac_core/patch/AR6320/v3/.output/AR6320/hw.3/lib/lib_maccore_patches.a(ar_wal_rmc_patch.o)
 .debug_pubnames
                0x00006f31       0xdc mac_core/patch/AR6320/v3/.output/AR6320/hw.3/lib/lib_maccore_patches.a(whal_rgc_patch.o)
 .debug_pubnames
                0x0000700d      0x10f mac_core/patch/AR6320/v3/.output/AR6320/hw.3/lib/lib_maccore_patches.a(patch_hif_ce.o)
 .debug_pubnames
                0x0000711c      0x24d mac_core/patch/AR6320/v3/.output/AR6320/hw.3/lib/lib_maccore_patches.a(patch_whal_coex.o)
 .debug_pubnames
                0x00007369       0x88 mac_core/patch/AR6320/v3/.output/AR6320/hw.3/lib/lib_maccore_patches.a(patch_whal_mws.o)
 .debug_pubnames
                0x000073f1      0x120 mac_core/patch/AR6320/v3/.output/AR6320/hw.3/lib/lib_maccore_patches.a(patch_whal_mci.o)
 .debug_pubnames
                0x00007511       0xa0 mac_core/patch/AR6320/v3/.output/AR6320/hw.3/lib/lib_maccore_patches.a(ar_wal_tx_dm_patch.o)
 .debug_pubnames
                0x000075b1      0x1ed mac_core/patch/AR6320/v3/.output/AR6320/hw.3/lib/lib_maccore_patches.a(patch_copy_engine.o)
 .debug_pubnames
                0x0000779e       0x58 mac_core/patch/AR6320/v3/.output/AR6320/hw.3/lib/lib_maccore_patches.a(wal_concurrency_patch.o)
 .debug_pubnames
                0x000077f6      0x11d mac_core/patch/AR6320/v3/.output/AR6320/hw.3/lib/lib_maccore_patches.a(ar_wal_tdls_patch.o)
 .debug_pubnames
                0x00007913       0xbd mac_core/patch/AR6320/v3/.output/AR6320/hw.3/lib/lib_maccore_patches.a(cmnos_timer_patch.o)
 .debug_pubnames
                0x000079d0       0x65 mac_core/patch/AR6320/v3/.output/AR6320/hw.3/lib/lib_maccore_patches.a(ar_wal_tx_hcm_patch.o)
 .debug_pubnames
                0x00007a35      0x195 mac_core/patch/AR6320/v3/.output/AR6320/hw.3/lib/lib_maccore_patches.a(ar_wal_tdls_conn_table_patch.o)
 .debug_pubnames
                0x00007bca       0xd7 mac_core/patch/AR6320/v3/.output/AR6320/hw.3/lib/lib_maccore_patches.a(ar600P_recv_patch.o)
 .debug_pubnames
                0x00007ca1       0x86 mac_core/patch/AR6320/v3/.output/AR6320/hw.3/lib/lib_maccore_patches.a(os_install_wlan_extra_memory_patches.o)
 .debug_pubnames
                0x00007d27      0x10f mac_core/patch/AR6320/v3/.output/AR6320/hw.3/lib/lib_maccore_patches.a(patch_athos_main.o)
 .debug_pubnames
                0x00007e36      0x182 mac_core/patch/AR6320/v3/.output/AR6320/hw.3/lib/lib_maccore_patches.a(cmnos_misc_patch.o)
 .debug_pubnames
                0x00007fb8       0x3c mac_core/patch/AR6320/v3/.output/AR6320/hw.3/lib/lib_maccore_patches.a(sha1_patch.o)
 .debug_pubnames
                0x00007ff4       0x4b mac_core/patch/AR6320/v3/.output/AR6320/hw.3/lib/lib_maccore_patches.a(patch_hif_sdio.o)
 .debug_pubnames
                0x0000803f       0xb5 mac_core/patch/AR6320/v3/.output/AR6320/hw.3/lib/lib_maccore_patches.a(ar_wal_txbf_patch.o)
 .debug_pubnames
                0x000080f4       0x80 mac_core/patch/AR6320/v3/.output/AR6320/hw.3/lib/lib_maccore_patches.a(wmi_dbgloghook_patch.o)
 .debug_pubnames
                0x00008174       0xc6 mac_core/patch/AR6320/v3/.output/AR6320/hw.3/lib/lib_maccore_patches.a(cmnos_allocram_patch.o)
 .debug_pubnames
                0x0000823a      0x41c mac_core/src/wal/whal/rtt/.output/AR6320/hw.3/lib/whal_rtt.a(whal_rtt.o)
 .debug_pubnames
                0x00008656       0x2d halphy/patch/AR6320/v3/.output/AR6320/hw.3/lib/lib_halphy_patches.a(halphy_install_patches.o)
 .debug_pubnames
                0x00008683      0x19a halphy/patch/AR6320/v3/.output/AR6320/hw.3/lib/lib_halphy_patches.a(ar6000_nf_cal_patch.o)
 .debug_pubnames
                0x0000881d      0x199 halphy/patch/AR6320/v3/.output/AR6320/hw.3/lib/lib_halphy_patches.a(ar6000_ani_patch.o)
 .debug_pubnames
                0x000089b6       0xea halphy/patch/AR6320/v3/.output/AR6320/hw.3/lib/lib_halphy_patches.a(ar6320_ini_patch.o)
 .debug_pubnames
                0x00008aa0      0x271 halphy/patch/AR6320/v3/.output/AR6320/hw.3/lib/lib_halphy_patches.a(ar6320_tpc_config_patch.o)
 .debug_pubnames
                0x00008d11      0x49b halphy/patch/AR6320/v3/.output/AR6320/hw.3/lib/lib_halphy_patches.a(ar6320_eeprom_patch.o)
 .debug_pubnames
                0x000091ac      0x3b5 halphy/patch/AR6320/v3/.output/AR6320/hw.3/lib/lib_halphy_patches.a(ar600P_reset_patch.o)
 .debug_pubnames
                0x00009561      0x448 halphy/patch/AR6320/v3/.output/AR6320/hw.3/lib/lib_halphy_patches.a(ar6000_paprd_patch.o)
 .debug_pubnames
                0x000099a9       0x48 halphy/patch/AR6320/v3/.output/AR6320/hw.3/lib/lib_halphy_patches.a(ar6000_phy_patch.o)
 .debug_pubnames
                0x000099f1      0x2ee mac_core/src/wal/AR/rtt/.output/AR6320/hw.3/lib/ar_wal_rtt.a(wal_rtt.o)
 .debug_pubnames
                0x00009cdf      0x20d mac_core/src/wal/AR/nan/.output/AR6320/hw.3/lib/ar_wal_nan.a(wal_nan_mac.o)
 .debug_pubnames
                0x00009eec       0x1f /cad/tensilica/chips/peregrine/RE-2013.3-linux/peregrine/xtensa-elf/lib/xcc//libgcc.a(_muldi3.o)
 .debug_pubnames
                0x00009f0b       0x20 /cad/tensilica/chips/peregrine/RE-2013.3-linux/peregrine/xtensa-elf/lib/xcc//libgcc.a(_udivdi3.o)
 .debug_pubnames
                0x00009f2b       0x2b mac_core/src/wal/whal/init/.output/AR6320/hw.3/lib/libwhal_init.a(whal_init.o)
 .debug_pubnames
                0x00009f56      0x427 mac_core/apps/utf/AR6320/.output/AR6320/hw.3/lib/libar6320.a(whal_SCPC.o)
 .debug_pubnames
                0x0000a37d       0xe9 mac_core/apps/utf/AR6004/.output/AR6320/hw.3/lib/libar6004utf.a(dkkernel.o)
 .debug_pubnames
                0x0000a466       0xe9 mac_core/apps/utf/AR6004/.output/AR6320/hw.3/lib/libar6004utf.a(event.o)
 .debug_pubnames
                0x0000a54f      0x26c mac_core/apps/utf/AR6004/.output/AR6320/hw.3/lib/libar6004utf.a(hw.o)
 .debug_pubnames
                0x0000a7bb       0x3b mac_core/apps/utf/AR6004/.output/AR6320/hw.3/lib/libar6004utf.a(main.o)
 .debug_pubnames
                0x0000a7f6       0xc6 mac_core/src/misc/extend_alloc/.output/AR6320/hw.3/lib/libextendalloc.a(extend_allocate.o)
 .debug_pubnames
                0x0000a8bc      0x557 mac_core/src/hostif/htc/.output/AR6320/hw.3/lib/libhtc.a(htc.o)
 .debug_pubnames
                0x0000ae13       0x79 mac_core/src/misc/module_id/.output/AR6320/hw.3/lib/libmodule_id.a(module_id.o)
 .debug_pubnames
                0x0000ae8c       0x7c mac_core/src/wal/whal/ini/.output/AR6320/hw.3/lib/libwhalini.a(whalini.o)
 .debug_pubnames
                0x0000af08       0xb5 mac_core/src/utils/sm/.output/AR6320/hw.3/lib/libsm.a(sm.o)
 .debug_pubnames
                0x0000afbd     0x1622 mac_core/src/wal/AR/coex/.output/AR6320/hw.3/lib/wal_coex.a(wal_coex.o)
 .debug_pubnames
                0x0000c5df     0x18b3 mac_core/src/wal/AR/coex/.output/AR6320/hw.3/lib/wal_coex.a(wal_btcoex.o)
 .debug_pubnames
                0x0000de92      0x894 mac_core/src/wal/AR/coex/.output/AR6320/hw.3/lib/wal_coex.a(wal_mwscoex.o)
 .debug_pubnames
                0x0000e726       0xa9 mac_core/src/wal/AR/coex/.output/AR6320/hw.3/lib/wal_coex.a(wal_mwscoex_crc.o)
 .debug_pubnames
                0x0000e7cf      0x165 mac_core/src/wal/AR/coex/.output/AR6320/hw.3/lib/wal_coex.a(qmi_idl_lib.o)
 .debug_pubnames
                0x0000e934      0x13d mac_core/src/wal/AR/coex/.output/AR6320/hw.3/lib/wal_coex.a(qmi_idl_accessor.o)
 .debug_pubnames
                0x0000ea71       0x5f mac_core/src/wal/AR/coex/.output/AR6320/hw.3/lib/wal_coex.a(coexistence_service_v02.o)
 .debug_pubnames
                0x0000ead0      0x521 mac_core/src/wal/whal/coex/.output/AR6320/hw.3/lib/whal_ar_coex.a(whal_coex.o)
 .debug_pubnames
                0x0000eff1      0x9e7 mac_core/src/wal/whal/coex/.output/AR6320/hw.3/lib/whal_ar_coex.a(whal_mci.o)
 .debug_pubnames
                0x0000f9d8      0x50b mac_core/src/wal/whal/coex/.output/AR6320/hw.3/lib/whal_ar_coex.a(whal_mws.o)
 .debug_pubnames
                0x0000fee3       0x9f mac_core/apps/lib/.output/AR6320/hw.3/lib/libapp.a(efusew.o)
 .debug_pubnames
                0x0000ff82       0xe9 mac_core/apps/lib/.output/AR6320/hw.3/lib/libapp.a(otpstreamw.o)

.debug_info     0x00000000   0x841ef2
 *(.debug_info)
 .debug_info    0x00000000     0x7ac5 mac_core/apps/utf/commonUTF/.output/AR6320/hw.3/lib/libcommonutf.a(main.o)
 .debug_info    0x00007ac5     0x7e41 mac_core/apps/utf/commonUTF/.output/AR6320/hw.3/lib/libcommonutf.a(utf.o)
 .debug_info    0x0000f906     0x9389 mac_core/apps/utf/commonUTF/.output/AR6320/hw.3/lib/libcommonutf.a(cmdEvtProcEngine.o)
 .debug_info    0x00018c8f    0x1485e mac_core/apps/utf/commonUTF/.output/AR6320/hw.3/lib/libcommonutf.a(cmdProcessing.o)
 .debug_info    0x0002d4ed    0x10a09 mac_core/apps/utf/commonUTF/.output/AR6320/hw.3/lib/libcommonutf.a(cmdProcessingSM.o)
 .debug_info    0x0003def6     0x847f mac_core/apps/utf/commonUTF/.output/AR6320/hw.3/lib/libcommonutf.a(genTxBinCmdTlv.o)
 .debug_info    0x00046375     0x806d mac_core/apps/utf/commonUTF/.output/AR6320/hw.3/lib/libcommonutf.a(parseBinCmdStream.o)
 .debug_info    0x0004e3e2     0x7b4b mac_core/apps/utf/commonUTF/.output/AR6320/hw.3/lib/libcommonutf.a(testUtil.o)
 .debug_info    0x00055f2d    0x10a44 mac_core/apps/utf/commonUTF/.output/AR6320/hw.3/lib/libcommonutf.a(whalExtensionGeneric.o)
 .debug_info    0x00066971     0x7b11 mac_core/apps/utf/commonUTF/.output/AR6320/hw.3/lib/libcommonutf.a(_cmd_calParmBinTemplate.o)
 .debug_info    0x0006e482     0x7b19 mac_core/apps/utf/commonUTF/.output/AR6320/hw.3/lib/libcommonutf.a(_cmd_nartCmdParmBinTemplate.o)
 .debug_info    0x00075f9b     0x7b0f mac_core/apps/utf/commonUTF/.output/AR6320/hw.3/lib/libcommonutf.a(_cmd_pmParmBinTemplate.o)
 .debug_info    0x0007daaa     0x7b0f mac_core/apps/utf/commonUTF/.output/AR6320/hw.3/lib/libcommonutf.a(_cmd_rxParmBinTemplate.o)
 .debug_info    0x000855b9     0x7b10 mac_core/apps/utf/commonUTF/.output/AR6320/hw.3/lib/libcommonutf.a(_cmd_txParmBinTemplate.o)
 .debug_info    0x0008d0c9     0x7c22 mac_core/apps/utf/commonUTF/.output/AR6320/hw.3/lib/libcommonutf.a(cmdParmsTemplate.o)
 .debug_info    0x00094ceb     0x7b6d mac_core/apps/utf/commonUTF/.output/AR6320/hw.3/lib/libcommonutf.a(_cmd_nartRspParmTxtTemplate.o)
 .debug_info    0x0009c858     0x7b73 mac_core/apps/utf/commonUTF/.output/AR6320/hw.3/lib/libcommonutf.a(_cmd_rspGenericParmTxtTemplate.o)
 .debug_info    0x000a43cb     0x7b6f mac_core/apps/utf/commonUTF/.output/AR6320/hw.3/lib/libcommonutf.a(_cmd_rxStatusParmTxtTemplate.o)
 .debug_info    0x000abf3a     0x7b77 mac_core/apps/utf/commonUTF/.output/AR6320/hw.3/lib/libcommonutf.a(_cmd_submitreportParmTxtTemplate.o)
 .debug_info    0x000b3ab1     0x7b6f mac_core/apps/utf/commonUTF/.output/AR6320/hw.3/lib/libcommonutf.a(_cmd_txStatusParmTxtTemplate.o)
 .debug_info    0x000bb620     0x7aa2 mac_core/apps/utf/AR6320/.output/AR6320/hw.3/lib/libar6320.a(ar6320Register.o)
 .debug_info    0x000c30c2     0x9374 mac_core/apps/utf/AR6320/.output/AR6320/hw.3/lib/libar6320.a(whal_tcmd.o)
 .debug_info    0x000cc436    0x2154b mac_core/apps/utf/tcmd_utf/.output/AR6320/hw.3/lib/libtcmdutf.a(tcmd.o)
 .debug_info    0x000ed981    0x1a717 mac_core/apps/utf/tcmd_utf/.output/AR6320/hw.3/lib/libtcmdutf.a(tcmd_rx.o)
 .debug_info    0x00108098    0x1c934 mac_core/apps/utf/tcmd_utf/.output/AR6320/hw.3/lib/libtcmdutf.a(tcmd_tx.o)
 .debug_info    0x001249cc     0x7d29 mac_core/apps/utf/tcmd_utf/.output/AR6320/hw.3/lib/libtcmdutf.a(utfCallback.o)
 .debug_info    0x0012c6f5    0x1b99e mac_core/apps/utf/tcmd_utf/.output/AR6320/hw.3/lib/libtcmdutf.a(if_split.o)
 .debug_info    0x00148093     0x7d3a mac_core/apps/utf/tcmd_utf/.output/AR6320/hw.3/lib/libtcmdutf.a(pn.o)
 .debug_info    0x0014fdcd     0x7b6b mac_core/apps/utf/testScriptIF/.output/AR6320/hw.3/lib/libtestscriptif.a(testscriptIFRegister.o)
 .debug_info    0x00157938     0xfe6a mac_core/apps/utf/testScriptIF/.output/AR6320/hw.3/lib/libtestscriptif.a(testscriptIF.o)
 .debug_info    0x001677a2    0x1e38e mac_core/apps/utf/wmiHostIF/.output/AR6320/hw.3/lib/libwmihostif.a(legHostIF.o)
 .debug_info    0x00185b30    0x15920 mac_core/apps/utf/wmiHostIF/.output/AR6320/hw.3/lib/libwmihostif.a(wmi_tcmd.o)
 .debug_info    0x0019b450    0x12314 mac_core/apps/utf/wmiHostIF/.output/AR6320/hw.3/lib/libwmihostif.a(htt_tgt_hif_svc.o)
 .debug_info    0x001ad764    0x130f1 mac_core/src/wal/whal/reset/.output/AR6320/hw.3/lib/ar6000_cal.a(ar6320_cal.o)
 .debug_info    0x001c0855    0x15353 mac_core/src/wal/whal/reset/.output/AR6320/hw.3/lib/ar6000_cal.a(ar6320_rxdc_cal.o)
 .debug_info    0x001d5ba8    0x15198 mac_core/src/wal/whal/reset/.output/AR6320/hw.3/lib/ar6000_cal.a(ar6320_iq_cal.o)
 .debug_info    0x001ead40    0x111c2 mac_core/src/wal/whal/reset/.output/AR6320/hw.3/lib/ar6000_cal.a(ar6320_pef_cal.o)
 .debug_info    0x001fbf02     0x7cd3 mac_core/patch/AR6320/v3/.output/AR6320/hw.3/lib/lib_maccore_patches.a(install_patches.o)
 .debug_info    0x00203bd5     0x7d07 mac_core/patch/AR6320/v3/.output/AR6320/hw.3/lib/lib_maccore_patches.a(whal_install_patches.o)
 .debug_info    0x0020b8dc    0x10670 mac_core/patch/AR6320/v3/.output/AR6320/hw.3/lib/lib_maccore_patches.a(wal_install_patches.o)
 .debug_info    0x0021bf4c    0x18cd8 mac_core/patch/AR6320/v3/.output/AR6320/hw.3/lib/lib_maccore_patches.a(ar_wal_connection_pause_patch.o)
 .debug_info    0x00234c24    0x1e839 mac_core/patch/AR6320/v3/.output/AR6320/hw.3/lib/lib_maccore_patches.a(ar_wal_phy_dev_patch.o)
 .debug_info    0x0025345d    0x194fd mac_core/patch/AR6320/v3/.output/AR6320/hw.3/lib/lib_maccore_patches.a(cmnos_retention_patch.o)
 .debug_info    0x0026c95a    0x1a87f mac_core/patch/AR6320/v3/.output/AR6320/hw.3/lib/lib_maccore_patches.a(ar_wal_tx_de_patch.o)
 .debug_info    0x002871d9    0x174aa mac_core/patch/AR6320/v3/.output/AR6320/hw.3/lib/lib_maccore_patches.a(ar_wal_local_frames_wifi_ip01_patch.o)
 .debug_info    0x0029e683     0x8383 mac_core/patch/AR6320/v3/.output/AR6320/hw.3/lib/lib_maccore_patches.a(pool_mgr_patch.o)
 .debug_info    0x002a6a06    0x1dc13 mac_core/patch/AR6320/v3/.output/AR6320/hw.3/lib/lib_maccore_patches.a(ar_wal_rx_patch.o)
 .debug_info    0x002c4619    0x19977 mac_core/patch/AR6320/v3/.output/AR6320/hw.3/lib/lib_maccore_patches.a(ar_wal_rx_offload_patch.o)
 .debug_info    0x002ddf90    0x1767a mac_core/patch/AR6320/v3/.output/AR6320/hw.3/lib/lib_maccore_patches.a(ar_wal_rx_common_patch.o)
 .debug_info    0x002f560a    0x1acbc mac_core/patch/AR6320/v3/.output/AR6320/hw.3/lib/lib_maccore_patches.a(ar_wal_vdev_patch.o)
 .debug_info    0x003102c6    0x1765a mac_core/patch/AR6320/v3/.output/AR6320/hw.3/lib/lib_maccore_patches.a(ar_tx_q_enque_patch.o)
 .debug_info    0x00327920    0x18310 mac_core/patch/AR6320/v3/.output/AR6320/hw.3/lib/lib_maccore_patches.a(tx_sched_patch.o)
 .debug_info    0x0033fc30    0x20970 mac_core/patch/AR6320/v3/.output/AR6320/hw.3/lib/lib_maccore_patches.a(ar_wal_tx_send_patch.o)
 .debug_info    0x003605a0    0x189ac mac_core/patch/AR6320/v3/.output/AR6320/hw.3/lib/lib_maccore_patches.a(ar_wal_chain_mgmt_patch.o)
 .debug_info    0x00378f4c    0x1d5f7 mac_core/patch/AR6320/v3/.output/AR6320/hw.3/lib/lib_maccore_patches.a(ar_wal_peer_patch.o)
 .debug_info    0x00396543    0x12333 mac_core/patch/AR6320/v3/.output/AR6320/hw.3/lib/lib_maccore_patches.a(ar600P_txbf_patch.o)
 .debug_info    0x003a8876    0x16c36 mac_core/patch/AR6320/v3/.output/AR6320/hw.3/lib/lib_maccore_patches.a(wal_pps_patch.o)
 .debug_info    0x003bf4ac    0x12dcc mac_core/patch/AR6320/v3/.output/AR6320/hw.3/lib/lib_maccore_patches.a(ar_xmit_wifi_ip01_patch.o)
 .debug_info    0x003d2278    0x191bb mac_core/patch/AR6320/v3/.output/AR6320/hw.3/lib/lib_maccore_patches.a(ar_wal_channel_change_patch.o)
 .debug_info    0x003eb433    0x1aa46 mac_core/patch/AR6320/v3/.output/AR6320/hw.3/lib/lib_maccore_patches.a(ar_wal_rc_patch.o)
 .debug_info    0x00405e79    0x159f9 mac_core/patch/AR6320/v3/.output/AR6320/hw.3/lib/lib_maccore_patches.a(wal_rtt_patch.o)
 .debug_info    0x0041b872     0xf961 mac_core/patch/AR6320/v3/.output/AR6320/hw.3/lib/lib_maccore_patches.a(whal_rtt_patch.o)
 .debug_info    0x0042b1d3     0x895e mac_core/patch/AR6320/v3/.output/AR6320/hw.3/lib/lib_maccore_patches.a(dbglog_patch.o)
 .debug_info    0x00433b31    0x10089 mac_core/patch/AR6320/v3/.output/AR6320/hw.3/lib/lib_maccore_patches.a(ar600p_beacon_patch.o)
 .debug_info    0x00443bba    0x10efe mac_core/patch/AR6320/v3/.output/AR6320/hw.3/lib/lib_maccore_patches.a(ar6000_power_patch.o)
 .debug_info    0x00454ab8     0xfc52 mac_core/patch/AR6320/v3/.output/AR6320/hw.3/lib/lib_maccore_patches.a(ar6000_interrupt_patch.o)
 .debug_info    0x0046470a     0x8251 mac_core/patch/AR6320/v3/.output/AR6320/hw.3/lib/lib_maccore_patches.a(cmnos_intrinf_patch.o)
 .debug_info    0x0046c95b     0x856e mac_core/patch/AR6320/v3/.output/AR6320/hw.3/lib/lib_maccore_patches.a(patch_pcie.o)
 .debug_info    0x00474ec9     0xc68b mac_core/patch/AR6320/v3/.output/AR6320/hw.3/lib/lib_maccore_patches.a(patch_usb.o)
 .debug_info    0x00481554    0x16372 mac_core/patch/AR6320/v3/.output/AR6320/hw.3/lib/lib_maccore_patches.a(wal_beacon_patch.o)
 .debug_info    0x004978c6    0x1726f mac_core/patch/AR6320/v3/.output/AR6320/hw.3/lib/lib_maccore_patches.a(wal_swba_patch.o)
 .debug_info    0x004aeb35    0x1024a mac_core/patch/AR6320/v3/.output/AR6320/hw.3/lib/lib_maccore_patches.a(ar600P_retention_patch.o)
 .debug_info    0x004bed7f    0x10814 mac_core/patch/AR6320/v3/.output/AR6320/hw.3/lib/lib_maccore_patches.a(ar_wal_rmc_patch.o)
 .debug_info    0x004cf593     0x7d31 mac_core/patch/AR6320/v3/.output/AR6320/hw.3/lib/lib_maccore_patches.a(whal_rgc_patch.o)
 .debug_info    0x004d72c4     0x86af mac_core/patch/AR6320/v3/.output/AR6320/hw.3/lib/lib_maccore_patches.a(patch_hif_ce.o)
 .debug_info    0x004df973    0x101a8 mac_core/patch/AR6320/v3/.output/AR6320/hw.3/lib/lib_maccore_patches.a(patch_whal_coex.o)
 .debug_info    0x004efb1b     0xfc8e mac_core/patch/AR6320/v3/.output/AR6320/hw.3/lib/lib_maccore_patches.a(patch_whal_mws.o)
 .debug_info    0x004ff7a9    0x10f50 mac_core/patch/AR6320/v3/.output/AR6320/hw.3/lib/lib_maccore_patches.a(patch_whal_mci.o)
 .debug_info    0x005106f9    0x16499 mac_core/patch/AR6320/v3/.output/AR6320/hw.3/lib/lib_maccore_patches.a(ar_wal_tx_dm_patch.o)
 .debug_info    0x00526b92    0x110e7 mac_core/patch/AR6320/v3/.output/AR6320/hw.3/lib/lib_maccore_patches.a(patch_copy_engine.o)
 .debug_info    0x00537c79    0x166ef mac_core/patch/AR6320/v3/.output/AR6320/hw.3/lib/lib_maccore_patches.a(wal_concurrency_patch.o)
 .debug_info    0x0054e368    0x17d78 mac_core/patch/AR6320/v3/.output/AR6320/hw.3/lib/lib_maccore_patches.a(ar_wal_tdls_patch.o)
 .debug_info    0x005660e0     0x7db6 mac_core/patch/AR6320/v3/.output/AR6320/hw.3/lib/lib_maccore_patches.a(cmnos_timer_patch.o)
 .debug_info    0x0056de96    0x160aa mac_core/patch/AR6320/v3/.output/AR6320/hw.3/lib/lib_maccore_patches.a(ar_wal_tx_hcm_patch.o)
 .debug_info    0x00583f40    0x173f7 mac_core/patch/AR6320/v3/.output/AR6320/hw.3/lib/lib_maccore_patches.a(ar_wal_tdls_conn_table_patch.o)
 .debug_info    0x0059b337     0xff24 mac_core/patch/AR6320/v3/.output/AR6320/hw.3/lib/lib_maccore_patches.a(ar600P_recv_patch.o)
 .debug_info    0x005ab25b     0x8386 mac_core/patch/AR6320/v3/.output/AR6320/hw.3/lib/lib_maccore_patches.a(os_install_wlan_extra_memory_patches.o)
 .debug_info    0x005b35e1     0x7d04 mac_core/patch/AR6320/v3/.output/AR6320/hw.3/lib/lib_maccore_patches.a(patch_athos_main.o)
 .debug_info    0x005bb2e5     0x8139 mac_core/patch/AR6320/v3/.output/AR6320/hw.3/lib/lib_maccore_patches.a(cmnos_misc_patch.o)
 .debug_info    0x005c341e     0x7f0b mac_core/patch/AR6320/v3/.output/AR6320/hw.3/lib/lib_maccore_patches.a(sha1_patch.o)
 .debug_info    0x005cb329     0x8638 mac_core/patch/AR6320/v3/.output/AR6320/hw.3/lib/lib_maccore_patches.a(patch_hif_sdio.o)
 .debug_info    0x005d3961    0x16f44 mac_core/patch/AR6320/v3/.output/AR6320/hw.3/lib/lib_maccore_patches.a(ar_wal_txbf_patch.o)
 .debug_info    0x005ea8a5     0x7d77 mac_core/patch/AR6320/v3/.output/AR6320/hw.3/lib/lib_maccore_patches.a(wmi_dbgloghook_patch.o)
 .debug_info    0x005f261c     0x8084 mac_core/patch/AR6320/v3/.output/AR6320/hw.3/lib/lib_maccore_patches.a(cmnos_allocram_patch.o)
 .debug_info    0x005fa6a0    0x11d85 mac_core/src/wal/whal/rtt/.output/AR6320/hw.3/lib/whal_rtt.a(whal_rtt.o)
 .debug_info    0x0060c425     0x7cdd halphy/patch/AR6320/v3/.output/AR6320/hw.3/lib/lib_halphy_patches.a(halphy_install_patches.o)
 .debug_info    0x00614102    0x112a3 halphy/patch/AR6320/v3/.output/AR6320/hw.3/lib/lib_halphy_patches.a(ar6000_nf_cal_patch.o)
 .debug_info    0x006253a5    0x1127a halphy/patch/AR6320/v3/.output/AR6320/hw.3/lib/lib_halphy_patches.a(ar6000_ani_patch.o)
 .debug_info    0x0063661f    0x10be3 halphy/patch/AR6320/v3/.output/AR6320/hw.3/lib/lib_halphy_patches.a(ar6320_ini_patch.o)
 .debug_info    0x00647202    0x15071 halphy/patch/AR6320/v3/.output/AR6320/hw.3/lib/lib_halphy_patches.a(ar6320_tpc_config_patch.o)
 .debug_info    0x0065c273    0x15977 halphy/patch/AR6320/v3/.output/AR6320/hw.3/lib/lib_halphy_patches.a(ar6320_eeprom_patch.o)
 .debug_info    0x00671bea    0x14ec1 halphy/patch/AR6320/v3/.output/AR6320/hw.3/lib/lib_halphy_patches.a(ar600P_reset_patch.o)
 .debug_info    0x00686aab    0x161cb halphy/patch/AR6320/v3/.output/AR6320/hw.3/lib/lib_halphy_patches.a(ar6000_paprd_patch.o)
 .debug_info    0x0069cc76     0xfc20 halphy/patch/AR6320/v3/.output/AR6320/hw.3/lib/lib_halphy_patches.a(ar6000_phy_patch.o)
 .debug_info    0x006ac896    0x17b38 mac_core/src/wal/AR/rtt/.output/AR6320/hw.3/lib/ar_wal_rtt.a(wal_rtt.o)
 .debug_info    0x006c43ce    0x17597 mac_core/src/wal/AR/nan/.output/AR6320/hw.3/lib/ar_wal_nan.a(wal_nan_mac.o)
 .debug_info    0x006db965      0x100 /cad/tensilica/chips/peregrine/RE-2013.3-linux/peregrine/xtensa-elf/lib/xcc//libgcc.a(_divsi3.o)
 .debug_info    0x006dba65      0x100 /cad/tensilica/chips/peregrine/RE-2013.3-linux/peregrine/xtensa-elf/lib/xcc//libgcc.a(_modsi3.o)
 .debug_info    0x006dbb65      0x100 /cad/tensilica/chips/peregrine/RE-2013.3-linux/peregrine/xtensa-elf/lib/xcc//libgcc.a(_udivsi3.o)
 .debug_info    0x006dbc65      0x100 /cad/tensilica/chips/peregrine/RE-2013.3-linux/peregrine/xtensa-elf/lib/xcc//libgcc.a(_umodsi3.o)
 .debug_info    0x006dbd65      0x100 /cad/tensilica/chips/peregrine/RE-2013.3-linux/peregrine/xtensa-elf/lib/xcc//libgcc.a(_ashrdi3.o)
 .debug_info    0x006dbe65      0x100 /cad/tensilica/chips/peregrine/RE-2013.3-linux/peregrine/xtensa-elf/lib/xcc//libgcc.a(_lshrdi3.o)
 .debug_info    0x006dbf65      0x26c /cad/tensilica/chips/peregrine/RE-2013.3-linux/peregrine/xtensa-elf/lib/xcc//libgcc.a(_muldi3.o)
 .debug_info    0x006dc1d1      0x277 /cad/tensilica/chips/peregrine/RE-2013.3-linux/peregrine/xtensa-elf/lib/xcc//libgcc.a(_udivdi3.o)
 .debug_info    0x006dc448       0xfa /cad/tensilica/chips/peregrine/RE-2013.3-linux/peregrine/xtensa-elf/lib/xcc//libgcc.a(lib2funcs.o)
 .debug_info    0x006dc542     0x9b6a mac_core/src/wal/whal/init/.output/AR6320/hw.3/lib/libwhal_init.a(whal_init.o)
 .debug_info    0x006e60ac    0x163d0 mac_core/apps/utf/AR6320/.output/AR6320/hw.3/lib/libar6320.a(whal_SCPC.o)
 .debug_info    0x006fc47c     0x8ab2 mac_core/apps/utf/AR6004/.output/AR6320/hw.3/lib/libar6004utf.a(dkkernel.o)
 .debug_info    0x00704f2e     0x837b mac_core/apps/utf/AR6004/.output/AR6320/hw.3/lib/libar6004utf.a(event.o)
 .debug_info    0x0070d2a9    0x12ee5 mac_core/apps/utf/AR6004/.output/AR6320/hw.3/lib/libar6004utf.a(hw.o)
 .debug_info    0x0072018e     0x7d1b mac_core/apps/utf/AR6004/.output/AR6320/hw.3/lib/libar6004utf.a(main.o)
 .debug_info    0x00727ea9     0x80e6 mac_core/src/misc/extend_alloc/.output/AR6320/hw.3/lib/libextendalloc.a(extend_allocate.o)
 .debug_info    0x0072ff8f     0xb23e mac_core/src/hostif/htc/.output/AR6320/hw.3/lib/libhtc.a(htc.o)
 .debug_info    0x0073b1cd     0x8290 mac_core/src/misc/module_id/.output/AR6320/hw.3/lib/libmodule_id.a(module_id.o)
 .debug_info    0x0074345d     0x7d39 mac_core/src/wal/whal/ini/.output/AR6320/hw.3/lib/libwhalini.a(whalini.o)
 .debug_info    0x0074b196     0x83d8 mac_core/src/utils/sm/.output/AR6320/hw.3/lib/libsm.a(sm.o)
 .debug_info    0x0075356e    0x24e6e mac_core/src/wal/AR/coex/.output/AR6320/hw.3/lib/wal_coex.a(wal_coex.o)
 .debug_info    0x007783dc    0x2191b mac_core/src/wal/AR/coex/.output/AR6320/hw.3/lib/wal_coex.a(wal_btcoex.o)
 .debug_info    0x00799cf7    0x1ecdc mac_core/src/wal/AR/coex/.output/AR6320/hw.3/lib/wal_coex.a(wal_mwscoex.o)
 .debug_info    0x007b89d3    0x10996 mac_core/src/wal/AR/coex/.output/AR6320/hw.3/lib/wal_coex.a(wal_mwscoex_crc.o)
 .debug_info    0x007c9369    0x11aa1 mac_core/src/wal/AR/coex/.output/AR6320/hw.3/lib/wal_coex.a(qmi_idl_lib.o)
 .debug_info    0x007dae0a    0x110f4 mac_core/src/wal/AR/coex/.output/AR6320/hw.3/lib/wal_coex.a(qmi_idl_accessor.o)
 .debug_info    0x007ebefe    0x11756 mac_core/src/wal/AR/coex/.output/AR6320/hw.3/lib/wal_coex.a(coexistence_service_v02.o)
 .debug_info    0x007fd654    0x110f6 mac_core/src/wal/whal/coex/.output/AR6320/hw.3/lib/whal_ar_coex.a(whal_coex.o)
 .debug_info    0x0080e74a    0x12851 mac_core/src/wal/whal/coex/.output/AR6320/hw.3/lib/whal_ar_coex.a(whal_mci.o)
 .debug_info    0x00820f9b    0x10c34 mac_core/src/wal/whal/coex/.output/AR6320/hw.3/lib/whal_ar_coex.a(whal_mws.o)
 .debug_info    0x00831bcf     0x7fff mac_core/apps/lib/.output/AR6320/hw.3/lib/libapp.a(efusew.o)
 .debug_info    0x00839bce     0x8324 mac_core/apps/lib/.output/AR6320/hw.3/lib/libapp.a(otpstreamw.o)

.debug_abbrev   0x00000000    0x147dc
 *(.debug_abbrev)
 .debug_abbrev  0x00000000      0x191 mac_core/apps/utf/commonUTF/.output/AR6320/hw.3/lib/libcommonutf.a(main.o)
 .debug_abbrev  0x00000191      0x1f3 mac_core/apps/utf/commonUTF/.output/AR6320/hw.3/lib/libcommonutf.a(utf.o)
 .debug_abbrev  0x00000384      0x2c1 mac_core/apps/utf/commonUTF/.output/AR6320/hw.3/lib/libcommonutf.a(cmdEvtProcEngine.o)
 .debug_abbrev  0x00000645      0x2f5 mac_core/apps/utf/commonUTF/.output/AR6320/hw.3/lib/libcommonutf.a(cmdProcessing.o)
 .debug_abbrev  0x0000093a      0x27c mac_core/apps/utf/commonUTF/.output/AR6320/hw.3/lib/libcommonutf.a(cmdProcessingSM.o)
 .debug_abbrev  0x00000bb6      0x25e mac_core/apps/utf/commonUTF/.output/AR6320/hw.3/lib/libcommonutf.a(genTxBinCmdTlv.o)
 .debug_abbrev  0x00000e14      0x216 mac_core/apps/utf/commonUTF/.output/AR6320/hw.3/lib/libcommonutf.a(parseBinCmdStream.o)
 .debug_abbrev  0x0000102a      0x19c mac_core/apps/utf/commonUTF/.output/AR6320/hw.3/lib/libcommonutf.a(testUtil.o)
 .debug_abbrev  0x000011c6      0x282 mac_core/apps/utf/commonUTF/.output/AR6320/hw.3/lib/libcommonutf.a(whalExtensionGeneric.o)
 .debug_abbrev  0x00001448      0x15b mac_core/apps/utf/commonUTF/.output/AR6320/hw.3/lib/libcommonutf.a(_cmd_calParmBinTemplate.o)
 .debug_abbrev  0x000015a3      0x15b mac_core/apps/utf/commonUTF/.output/AR6320/hw.3/lib/libcommonutf.a(_cmd_nartCmdParmBinTemplate.o)
 .debug_abbrev  0x000016fe      0x15b mac_core/apps/utf/commonUTF/.output/AR6320/hw.3/lib/libcommonutf.a(_cmd_pmParmBinTemplate.o)
 .debug_abbrev  0x00001859      0x15b mac_core/apps/utf/commonUTF/.output/AR6320/hw.3/lib/libcommonutf.a(_cmd_rxParmBinTemplate.o)
 .debug_abbrev  0x000019b4      0x162 mac_core/apps/utf/commonUTF/.output/AR6320/hw.3/lib/libcommonutf.a(_cmd_txParmBinTemplate.o)
 .debug_abbrev  0x00001b16      0x177 mac_core/apps/utf/commonUTF/.output/AR6320/hw.3/lib/libcommonutf.a(cmdParmsTemplate.o)
 .debug_abbrev  0x00001c8d      0x15b mac_core/apps/utf/commonUTF/.output/AR6320/hw.3/lib/libcommonutf.a(_cmd_nartRspParmTxtTemplate.o)
 .debug_abbrev  0x00001de8      0x15b mac_core/apps/utf/commonUTF/.output/AR6320/hw.3/lib/libcommonutf.a(_cmd_rspGenericParmTxtTemplate.o)
 .debug_abbrev  0x00001f43      0x15b mac_core/apps/utf/commonUTF/.output/AR6320/hw.3/lib/libcommonutf.a(_cmd_rxStatusParmTxtTemplate.o)
 .debug_abbrev  0x0000209e      0x15b mac_core/apps/utf/commonUTF/.output/AR6320/hw.3/lib/libcommonutf.a(_cmd_submitreportParmTxtTemplate.o)
 .debug_abbrev  0x000021f9      0x15b mac_core/apps/utf/commonUTF/.output/AR6320/hw.3/lib/libcommonutf.a(_cmd_txStatusParmTxtTemplate.o)
 .debug_abbrev  0x00002354      0x163 mac_core/apps/utf/AR6320/.output/AR6320/hw.3/lib/libar6320.a(ar6320Register.o)
 .debug_abbrev  0x000024b7      0x28e mac_core/apps/utf/AR6320/.output/AR6320/hw.3/lib/libar6320.a(whal_tcmd.o)
 .debug_abbrev  0x00002745      0x36b mac_core/apps/utf/tcmd_utf/.output/AR6320/hw.3/lib/libtcmdutf.a(tcmd.o)
 .debug_abbrev  0x00002ab0      0x342 mac_core/apps/utf/tcmd_utf/.output/AR6320/hw.3/lib/libtcmdutf.a(tcmd_rx.o)
 .debug_abbrev  0x00002df2      0x37a mac_core/apps/utf/tcmd_utf/.output/AR6320/hw.3/lib/libtcmdutf.a(tcmd_tx.o)
 .debug_abbrev  0x0000316c      0x208 mac_core/apps/utf/tcmd_utf/.output/AR6320/hw.3/lib/libtcmdutf.a(utfCallback.o)
 .debug_abbrev  0x00003374      0x315 mac_core/apps/utf/tcmd_utf/.output/AR6320/hw.3/lib/libtcmdutf.a(if_split.o)
 .debug_abbrev  0x00003689      0x1f3 mac_core/apps/utf/tcmd_utf/.output/AR6320/hw.3/lib/libtcmdutf.a(pn.o)
 .debug_abbrev  0x0000387c      0x190 mac_core/apps/utf/testScriptIF/.output/AR6320/hw.3/lib/libtestscriptif.a(testscriptIFRegister.o)
 .debug_abbrev  0x00003a0c      0x24b mac_core/apps/utf/testScriptIF/.output/AR6320/hw.3/lib/libtestscriptif.a(testscriptIF.o)
 .debug_abbrev  0x00003c57      0x3de mac_core/apps/utf/wmiHostIF/.output/AR6320/hw.3/lib/libwmihostif.a(legHostIF.o)
 .debug_abbrev  0x00004035      0x30a mac_core/apps/utf/wmiHostIF/.output/AR6320/hw.3/lib/libwmihostif.a(wmi_tcmd.o)
 .debug_abbrev  0x0000433f      0x30e mac_core/apps/utf/wmiHostIF/.output/AR6320/hw.3/lib/libwmihostif.a(htt_tgt_hif_svc.o)
 .debug_abbrev  0x0000464d      0x331 mac_core/src/wal/whal/reset/.output/AR6320/hw.3/lib/ar6000_cal.a(ar6320_cal.o)
 .debug_abbrev  0x0000497e      0x2fd mac_core/src/wal/whal/reset/.output/AR6320/hw.3/lib/ar6000_cal.a(ar6320_rxdc_cal.o)
 .debug_abbrev  0x00004c7b      0x26e mac_core/src/wal/whal/reset/.output/AR6320/hw.3/lib/ar6000_cal.a(ar6320_iq_cal.o)
 .debug_abbrev  0x00004ee9      0x2b2 mac_core/src/wal/whal/reset/.output/AR6320/hw.3/lib/ar6000_cal.a(ar6320_pef_cal.o)
 .debug_abbrev  0x0000519b      0x181 mac_core/patch/AR6320/v3/.output/AR6320/hw.3/lib/lib_maccore_patches.a(install_patches.o)
 .debug_abbrev  0x0000531c      0x1b4 mac_core/patch/AR6320/v3/.output/AR6320/hw.3/lib/lib_maccore_patches.a(whal_install_patches.o)
 .debug_abbrev  0x000054d0      0x205 mac_core/patch/AR6320/v3/.output/AR6320/hw.3/lib/lib_maccore_patches.a(wal_install_patches.o)
 .debug_abbrev  0x000056d5      0x2cf mac_core/patch/AR6320/v3/.output/AR6320/hw.3/lib/lib_maccore_patches.a(ar_wal_connection_pause_patch.o)
 .debug_abbrev  0x000059a4      0x385 mac_core/patch/AR6320/v3/.output/AR6320/hw.3/lib/lib_maccore_patches.a(ar_wal_phy_dev_patch.o)
 .debug_abbrev  0x00005d29      0x31d mac_core/patch/AR6320/v3/.output/AR6320/hw.3/lib/lib_maccore_patches.a(cmnos_retention_patch.o)
 .debug_abbrev  0x00006046      0x365 mac_core/patch/AR6320/v3/.output/AR6320/hw.3/lib/lib_maccore_patches.a(ar_wal_tx_de_patch.o)
 .debug_abbrev  0x000063ab      0x33f mac_core/patch/AR6320/v3/.output/AR6320/hw.3/lib/lib_maccore_patches.a(ar_wal_local_frames_wifi_ip01_patch.o)
 .debug_abbrev  0x000066ea      0x23c mac_core/patch/AR6320/v3/.output/AR6320/hw.3/lib/lib_maccore_patches.a(pool_mgr_patch.o)
 .debug_abbrev  0x00006926      0x35f mac_core/patch/AR6320/v3/.output/AR6320/hw.3/lib/lib_maccore_patches.a(ar_wal_rx_patch.o)
 .debug_abbrev  0x00006c85      0x341 mac_core/patch/AR6320/v3/.output/AR6320/hw.3/lib/lib_maccore_patches.a(ar_wal_rx_offload_patch.o)
 .debug_abbrev  0x00006fc6      0x274 mac_core/patch/AR6320/v3/.output/AR6320/hw.3/lib/lib_maccore_patches.a(ar_wal_rx_common_patch.o)
 .debug_abbrev  0x0000723a      0x327 mac_core/patch/AR6320/v3/.output/AR6320/hw.3/lib/lib_maccore_patches.a(ar_wal_vdev_patch.o)
 .debug_abbrev  0x00007561      0x2f9 mac_core/patch/AR6320/v3/.output/AR6320/hw.3/lib/lib_maccore_patches.a(ar_tx_q_enque_patch.o)
 .debug_abbrev  0x0000785a      0x35d mac_core/patch/AR6320/v3/.output/AR6320/hw.3/lib/lib_maccore_patches.a(tx_sched_patch.o)
 .debug_abbrev  0x00007bb7      0x2f1 mac_core/patch/AR6320/v3/.output/AR6320/hw.3/lib/lib_maccore_patches.a(ar_wal_tx_send_patch.o)
 .debug_abbrev  0x00007ea8      0x2b5 mac_core/patch/AR6320/v3/.output/AR6320/hw.3/lib/lib_maccore_patches.a(ar_wal_chain_mgmt_patch.o)
 .debug_abbrev  0x0000815d      0x364 mac_core/patch/AR6320/v3/.output/AR6320/hw.3/lib/lib_maccore_patches.a(ar_wal_peer_patch.o)
 .debug_abbrev  0x000084c1      0x356 mac_core/patch/AR6320/v3/.output/AR6320/hw.3/lib/lib_maccore_patches.a(ar600P_txbf_patch.o)
 .debug_abbrev  0x00008817      0x29f mac_core/patch/AR6320/v3/.output/AR6320/hw.3/lib/lib_maccore_patches.a(wal_pps_patch.o)
 .debug_abbrev  0x00008ab6      0x2d8 mac_core/patch/AR6320/v3/.output/AR6320/hw.3/lib/lib_maccore_patches.a(ar_xmit_wifi_ip01_patch.o)
 .debug_abbrev  0x00008d8e      0x2f3 mac_core/patch/AR6320/v3/.output/AR6320/hw.3/lib/lib_maccore_patches.a(ar_wal_channel_change_patch.o)
 .debug_abbrev  0x00009081      0x325 mac_core/patch/AR6320/v3/.output/AR6320/hw.3/lib/lib_maccore_patches.a(ar_wal_rc_patch.o)
 .debug_abbrev  0x000093a6      0x24c mac_core/patch/AR6320/v3/.output/AR6320/hw.3/lib/lib_maccore_patches.a(wal_rtt_patch.o)
 .debug_abbrev  0x000095f2      0x205 mac_core/patch/AR6320/v3/.output/AR6320/hw.3/lib/lib_maccore_patches.a(whal_rtt_patch.o)
 .debug_abbrev  0x000097f7      0x25f mac_core/patch/AR6320/v3/.output/AR6320/hw.3/lib/lib_maccore_patches.a(dbglog_patch.o)
 .debug_abbrev  0x00009a56      0x24f mac_core/patch/AR6320/v3/.output/AR6320/hw.3/lib/lib_maccore_patches.a(ar600p_beacon_patch.o)
 .debug_abbrev  0x00009ca5      0x2da mac_core/patch/AR6320/v3/.output/AR6320/hw.3/lib/lib_maccore_patches.a(ar6000_power_patch.o)
 .debug_abbrev  0x00009f7f      0x266 mac_core/patch/AR6320/v3/.output/AR6320/hw.3/lib/lib_maccore_patches.a(ar6000_interrupt_patch.o)
 .debug_abbrev  0x0000a1e5      0x250 mac_core/patch/AR6320/v3/.output/AR6320/hw.3/lib/lib_maccore_patches.a(cmnos_intrinf_patch.o)
 .debug_abbrev  0x0000a435      0x28d mac_core/patch/AR6320/v3/.output/AR6320/hw.3/lib/lib_maccore_patches.a(patch_pcie.o)
 .debug_abbrev  0x0000a6c2      0x375 mac_core/patch/AR6320/v3/.output/AR6320/hw.3/lib/lib_maccore_patches.a(patch_usb.o)
 .debug_abbrev  0x0000aa37      0x29e mac_core/patch/AR6320/v3/.output/AR6320/hw.3/lib/lib_maccore_patches.a(wal_beacon_patch.o)
 .debug_abbrev  0x0000acd5      0x285 mac_core/patch/AR6320/v3/.output/AR6320/hw.3/lib/lib_maccore_patches.a(wal_swba_patch.o)
 .debug_abbrev  0x0000af5a      0x2e7 mac_core/patch/AR6320/v3/.output/AR6320/hw.3/lib/lib_maccore_patches.a(ar600P_retention_patch.o)
 .debug_abbrev  0x0000b241      0x216 mac_core/patch/AR6320/v3/.output/AR6320/hw.3/lib/lib_maccore_patches.a(ar_wal_rmc_patch.o)
 .debug_abbrev  0x0000b457      0x1d5 mac_core/patch/AR6320/v3/.output/AR6320/hw.3/lib/lib_maccore_patches.a(whal_rgc_patch.o)
 .debug_abbrev  0x0000b62c      0x212 mac_core/patch/AR6320/v3/.output/AR6320/hw.3/lib/lib_maccore_patches.a(patch_hif_ce.o)
 .debug_abbrev  0x0000b83e      0x2ef mac_core/patch/AR6320/v3/.output/AR6320/hw.3/lib/lib_maccore_patches.a(patch_whal_coex.o)
 .debug_abbrev  0x0000bb2d      0x24b mac_core/patch/AR6320/v3/.output/AR6320/hw.3/lib/lib_maccore_patches.a(patch_whal_mws.o)
 .debug_abbrev  0x0000bd78      0x2b2 mac_core/patch/AR6320/v3/.output/AR6320/hw.3/lib/lib_maccore_patches.a(patch_whal_mci.o)
 .debug_abbrev  0x0000c02a      0x2af mac_core/patch/AR6320/v3/.output/AR6320/hw.3/lib/lib_maccore_patches.a(ar_wal_tx_dm_patch.o)
 .debug_abbrev  0x0000c2d9      0x2e1 mac_core/patch/AR6320/v3/.output/AR6320/hw.3/lib/lib_maccore_patches.a(patch_copy_engine.o)
 .debug_abbrev  0x0000c5ba      0x283 mac_core/patch/AR6320/v3/.output/AR6320/hw.3/lib/lib_maccore_patches.a(wal_concurrency_patch.o)
 .debug_abbrev  0x0000c83d      0x2e6 mac_core/patch/AR6320/v3/.output/AR6320/hw.3/lib/lib_maccore_patches.a(ar_wal_tdls_patch.o)
 .debug_abbrev  0x0000cb23      0x1ed mac_core/patch/AR6320/v3/.output/AR6320/hw.3/lib/lib_maccore_patches.a(cmnos_timer_patch.o)
 .debug_abbrev  0x0000cd10      0x28f mac_core/patch/AR6320/v3/.output/AR6320/hw.3/lib/lib_maccore_patches.a(ar_wal_tx_hcm_patch.o)
 .debug_abbrev  0x0000cf9f      0x2e2 mac_core/patch/AR6320/v3/.output/AR6320/hw.3/lib/lib_maccore_patches.a(ar_wal_tdls_conn_table_patch.o)
 .debug_abbrev  0x0000d281      0x28e mac_core/patch/AR6320/v3/.output/AR6320/hw.3/lib/lib_maccore_patches.a(ar600P_recv_patch.o)
 .debug_abbrev  0x0000d50f      0x1ff mac_core/patch/AR6320/v3/.output/AR6320/hw.3/lib/lib_maccore_patches.a(os_install_wlan_extra_memory_patches.o)
 .debug_abbrev  0x0000d70e      0x1b8 mac_core/patch/AR6320/v3/.output/AR6320/hw.3/lib/lib_maccore_patches.a(patch_athos_main.o)
 .debug_abbrev  0x0000d8c6      0x234 mac_core/patch/AR6320/v3/.output/AR6320/hw.3/lib/lib_maccore_patches.a(cmnos_misc_patch.o)
 .debug_abbrev  0x0000dafa      0x1ea mac_core/patch/AR6320/v3/.output/AR6320/hw.3/lib/lib_maccore_patches.a(sha1_patch.o)
 .debug_abbrev  0x0000dce4      0x1fb mac_core/patch/AR6320/v3/.output/AR6320/hw.3/lib/lib_maccore_patches.a(patch_hif_sdio.o)
 .debug_abbrev  0x0000dedf      0x2b3 mac_core/patch/AR6320/v3/.output/AR6320/hw.3/lib/lib_maccore_patches.a(ar_wal_txbf_patch.o)
 .debug_abbrev  0x0000e192      0x1fd mac_core/patch/AR6320/v3/.output/AR6320/hw.3/lib/lib_maccore_patches.a(wmi_dbgloghook_patch.o)
 .debug_abbrev  0x0000e38f      0x2a5 mac_core/patch/AR6320/v3/.output/AR6320/hw.3/lib/lib_maccore_patches.a(cmnos_allocram_patch.o)
 .debug_abbrev  0x0000e634      0x26f mac_core/src/wal/whal/rtt/.output/AR6320/hw.3/lib/whal_rtt.a(whal_rtt.o)
 .debug_abbrev  0x0000e8a3      0x19f halphy/patch/AR6320/v3/.output/AR6320/hw.3/lib/lib_halphy_patches.a(halphy_install_patches.o)
 .debug_abbrev  0x0000ea42      0x306 halphy/patch/AR6320/v3/.output/AR6320/hw.3/lib/lib_halphy_patches.a(ar6000_nf_cal_patch.o)
 .debug_abbrev  0x0000ed48      0x2f2 halphy/patch/AR6320/v3/.output/AR6320/hw.3/lib/lib_halphy_patches.a(ar6000_ani_patch.o)
 .debug_abbrev  0x0000f03a      0x2a0 halphy/patch/AR6320/v3/.output/AR6320/hw.3/lib/lib_halphy_patches.a(ar6320_ini_patch.o)
 .debug_abbrev  0x0000f2da      0x299 halphy/patch/AR6320/v3/.output/AR6320/hw.3/lib/lib_halphy_patches.a(ar6320_tpc_config_patch.o)
 .debug_abbrev  0x0000f573      0x3aa halphy/patch/AR6320/v3/.output/AR6320/hw.3/lib/lib_halphy_patches.a(ar6320_eeprom_patch.o)
 .debug_abbrev  0x0000f91d      0x345 halphy/patch/AR6320/v3/.output/AR6320/hw.3/lib/lib_halphy_patches.a(ar600P_reset_patch.o)
 .debug_abbrev  0x0000fc62      0x407 halphy/patch/AR6320/v3/.output/AR6320/hw.3/lib/lib_halphy_patches.a(ar6000_paprd_patch.o)
 .debug_abbrev  0x00010069      0x24b halphy/patch/AR6320/v3/.output/AR6320/hw.3/lib/lib_halphy_patches.a(ar6000_phy_patch.o)
 .debug_abbrev  0x000102b4      0x368 mac_core/src/wal/AR/rtt/.output/AR6320/hw.3/lib/ar_wal_rtt.a(wal_rtt.o)
 .debug_abbrev  0x0001061c      0x30a mac_core/src/wal/AR/nan/.output/AR6320/hw.3/lib/ar_wal_nan.a(wal_nan_mac.o)
 .debug_abbrev  0x00010926       0x14 /cad/tensilica/chips/peregrine/RE-2013.3-linux/peregrine/xtensa-elf/lib/xcc//libgcc.a(_divsi3.o)
 .debug_abbrev  0x0001093a       0x14 /cad/tensilica/chips/peregrine/RE-2013.3-linux/peregrine/xtensa-elf/lib/xcc//libgcc.a(_modsi3.o)
 .debug_abbrev  0x0001094e       0x14 /cad/tensilica/chips/peregrine/RE-2013.3-linux/peregrine/xtensa-elf/lib/xcc//libgcc.a(_udivsi3.o)
 .debug_abbrev  0x00010962       0x14 /cad/tensilica/chips/peregrine/RE-2013.3-linux/peregrine/xtensa-elf/lib/xcc//libgcc.a(_umodsi3.o)
 .debug_abbrev  0x00010976       0x14 /cad/tensilica/chips/peregrine/RE-2013.3-linux/peregrine/xtensa-elf/lib/xcc//libgcc.a(_ashrdi3.o)
 .debug_abbrev  0x0001098a       0x14 /cad/tensilica/chips/peregrine/RE-2013.3-linux/peregrine/xtensa-elf/lib/xcc//libgcc.a(_lshrdi3.o)
 .debug_abbrev  0x0001099e       0x9c /cad/tensilica/chips/peregrine/RE-2013.3-linux/peregrine/xtensa-elf/lib/xcc//libgcc.a(_muldi3.o)
 .debug_abbrev  0x00010a3a       0x9b /cad/tensilica/chips/peregrine/RE-2013.3-linux/peregrine/xtensa-elf/lib/xcc//libgcc.a(_udivdi3.o)
 .debug_abbrev  0x00010ad5       0x12 /cad/tensilica/chips/peregrine/RE-2013.3-linux/peregrine/xtensa-elf/lib/xcc//libgcc.a(lib2funcs.o)
 .debug_abbrev  0x00010ae7      0x1cb mac_core/src/wal/whal/init/.output/AR6320/hw.3/lib/libwhal_init.a(whal_init.o)
 .debug_abbrev  0x00010cb2      0x36b mac_core/apps/utf/AR6320/.output/AR6320/hw.3/lib/libar6320.a(whal_SCPC.o)
 .debug_abbrev  0x0001101d      0x2d5 mac_core/apps/utf/AR6004/.output/AR6320/hw.3/lib/libar6004utf.a(dkkernel.o)
 .debug_abbrev  0x000112f2      0x246 mac_core/apps/utf/AR6004/.output/AR6320/hw.3/lib/libar6004utf.a(event.o)
 .debug_abbrev  0x00011538      0x33e mac_core/apps/utf/AR6004/.output/AR6320/hw.3/lib/libar6004utf.a(hw.o)
 .debug_abbrev  0x00011876      0x197 mac_core/apps/utf/AR6004/.output/AR6320/hw.3/lib/libar6004utf.a(main.o)
 .debug_abbrev  0x00011a0d      0x21f mac_core/src/misc/extend_alloc/.output/AR6320/hw.3/lib/libextendalloc.a(extend_allocate.o)
 .debug_abbrev  0x00011c2c      0x2c1 mac_core/src/hostif/htc/.output/AR6320/hw.3/lib/libhtc.a(htc.o)
 .debug_abbrev  0x00011eed      0x208 mac_core/src/misc/module_id/.output/AR6320/hw.3/lib/libmodule_id.a(module_id.o)
 .debug_abbrev  0x000120f5      0x200 mac_core/src/wal/whal/ini/.output/AR6320/hw.3/lib/libwhalini.a(whalini.o)
 .debug_abbrev  0x000122f5      0x257 mac_core/src/utils/sm/.output/AR6320/hw.3/lib/libsm.a(sm.o)
 .debug_abbrev  0x0001254c      0x3b4 mac_core/src/wal/AR/coex/.output/AR6320/hw.3/lib/wal_coex.a(wal_coex.o)
 .debug_abbrev  0x00012900      0x380 mac_core/src/wal/AR/coex/.output/AR6320/hw.3/lib/wal_coex.a(wal_btcoex.o)
 .debug_abbrev  0x00012c80      0x349 mac_core/src/wal/AR/coex/.output/AR6320/hw.3/lib/wal_coex.a(wal_mwscoex.o)
 .debug_abbrev  0x00012fc9      0x251 mac_core/src/wal/AR/coex/.output/AR6320/hw.3/lib/wal_coex.a(wal_mwscoex_crc.o)
 .debug_abbrev  0x0001321a      0x2b8 mac_core/src/wal/AR/coex/.output/AR6320/hw.3/lib/wal_coex.a(qmi_idl_lib.o)
 .debug_abbrev  0x000134d2      0x286 mac_core/src/wal/AR/coex/.output/AR6320/hw.3/lib/wal_coex.a(qmi_idl_accessor.o)
 .debug_abbrev  0x00013758      0x247 mac_core/src/wal/AR/coex/.output/AR6320/hw.3/lib/wal_coex.a(coexistence_service_v02.o)
 .debug_abbrev  0x0001399f      0x366 mac_core/src/wal/whal/coex/.output/AR6320/hw.3/lib/whal_ar_coex.a(whal_coex.o)
 .debug_abbrev  0x00013d05      0x34e mac_core/src/wal/whal/coex/.output/AR6320/hw.3/lib/whal_ar_coex.a(whal_mci.o)
 .debug_abbrev  0x00014053      0x308 mac_core/src/wal/whal/coex/.output/AR6320/hw.3/lib/whal_ar_coex.a(whal_mws.o)
 .debug_abbrev  0x0001435b      0x235 mac_core/apps/lib/.output/AR6320/hw.3/lib/libapp.a(efusew.o)
 .debug_abbrev  0x00014590      0x24c mac_core/apps/lib/.output/AR6320/hw.3/lib/libapp.a(otpstreamw.o)

.debug_line     0x00000000    0x53811
 *(.debug_line)
 .debug_line    0x00000000      0x2ba mac_core/apps/utf/commonUTF/.output/AR6320/hw.3/lib/libcommonutf.a(main.o)
 .debug_line    0x000002ba      0x326 mac_core/apps/utf/commonUTF/.output/AR6320/hw.3/lib/libcommonutf.a(utf.o)
 .debug_line    0x000005e0      0x6aa mac_core/apps/utf/commonUTF/.output/AR6320/hw.3/lib/libcommonutf.a(cmdEvtProcEngine.o)
 .debug_line    0x00000c8a     0x11f3 mac_core/apps/utf/commonUTF/.output/AR6320/hw.3/lib/libcommonutf.a(cmdProcessing.o)
 .debug_line    0x00001e7d      0x39b mac_core/apps/utf/commonUTF/.output/AR6320/hw.3/lib/libcommonutf.a(cmdProcessingSM.o)
 .debug_line    0x00002218      0x635 mac_core/apps/utf/commonUTF/.output/AR6320/hw.3/lib/libcommonutf.a(genTxBinCmdTlv.o)
 .debug_line    0x0000284d      0x3d7 mac_core/apps/utf/commonUTF/.output/AR6320/hw.3/lib/libcommonutf.a(parseBinCmdStream.o)
 .debug_line    0x00002c24      0x294 mac_core/apps/utf/commonUTF/.output/AR6320/hw.3/lib/libcommonutf.a(testUtil.o)
 .debug_line    0x00002eb8      0x40f mac_core/apps/utf/commonUTF/.output/AR6320/hw.3/lib/libcommonutf.a(whalExtensionGeneric.o)
 .debug_line    0x000032c7      0x251 mac_core/apps/utf/commonUTF/.output/AR6320/hw.3/lib/libcommonutf.a(_cmd_calParmBinTemplate.o)
 .debug_line    0x00003518      0x255 mac_core/apps/utf/commonUTF/.output/AR6320/hw.3/lib/libcommonutf.a(_cmd_nartCmdParmBinTemplate.o)
 .debug_line    0x0000376d      0x250 mac_core/apps/utf/commonUTF/.output/AR6320/hw.3/lib/libcommonutf.a(_cmd_pmParmBinTemplate.o)
 .debug_line    0x000039bd      0x250 mac_core/apps/utf/commonUTF/.output/AR6320/hw.3/lib/libcommonutf.a(_cmd_rxParmBinTemplate.o)
 .debug_line    0x00003c0d      0x250 mac_core/apps/utf/commonUTF/.output/AR6320/hw.3/lib/libcommonutf.a(_cmd_txParmBinTemplate.o)
 .debug_line    0x00003e5d      0x24a mac_core/apps/utf/commonUTF/.output/AR6320/hw.3/lib/libcommonutf.a(cmdParmsTemplate.o)
 .debug_line    0x000040a7      0x255 mac_core/apps/utf/commonUTF/.output/AR6320/hw.3/lib/libcommonutf.a(_cmd_nartRspParmTxtTemplate.o)
 .debug_line    0x000042fc      0x258 mac_core/apps/utf/commonUTF/.output/AR6320/hw.3/lib/libcommonutf.a(_cmd_rspGenericParmTxtTemplate.o)
 .debug_line    0x00004554      0x256 mac_core/apps/utf/commonUTF/.output/AR6320/hw.3/lib/libcommonutf.a(_cmd_rxStatusParmTxtTemplate.o)
 .debug_line    0x000047aa      0x25a mac_core/apps/utf/commonUTF/.output/AR6320/hw.3/lib/libcommonutf.a(_cmd_submitreportParmTxtTemplate.o)
 .debug_line    0x00004a04      0x256 mac_core/apps/utf/commonUTF/.output/AR6320/hw.3/lib/libcommonutf.a(_cmd_txStatusParmTxtTemplate.o)
 .debug_line    0x00004c5a      0x25f mac_core/apps/utf/AR6320/.output/AR6320/hw.3/lib/libar6320.a(ar6320Register.o)
 .debug_line    0x00004eb9     0x19da mac_core/apps/utf/AR6320/.output/AR6320/hw.3/lib/libar6320.a(whal_tcmd.o)
 .debug_line    0x00006893     0x1bb4 mac_core/apps/utf/tcmd_utf/.output/AR6320/hw.3/lib/libtcmdutf.a(tcmd.o)
 .debug_line    0x00008447      0xfb3 mac_core/apps/utf/tcmd_utf/.output/AR6320/hw.3/lib/libtcmdutf.a(tcmd_rx.o)
 .debug_line    0x000093fa      0xdd5 mac_core/apps/utf/tcmd_utf/.output/AR6320/hw.3/lib/libtcmdutf.a(tcmd_tx.o)
 .debug_line    0x0000a1cf      0x374 mac_core/apps/utf/tcmd_utf/.output/AR6320/hw.3/lib/libtcmdutf.a(utfCallback.o)
 .debug_line    0x0000a543      0x5a0 mac_core/apps/utf/tcmd_utf/.output/AR6320/hw.3/lib/libtcmdutf.a(if_split.o)
 .debug_line    0x0000aae3      0x38f mac_core/apps/utf/tcmd_utf/.output/AR6320/hw.3/lib/libtcmdutf.a(pn.o)
 .debug_line    0x0000ae72      0x279 mac_core/apps/utf/testScriptIF/.output/AR6320/hw.3/lib/libtestscriptif.a(testscriptIFRegister.o)
 .debug_line    0x0000b0eb      0x2bc mac_core/apps/utf/testScriptIF/.output/AR6320/hw.3/lib/libtestscriptif.a(testscriptIF.o)
 .debug_line    0x0000b3a7     0x21da mac_core/apps/utf/wmiHostIF/.output/AR6320/hw.3/lib/libwmihostif.a(legHostIF.o)
 .debug_line    0x0000d581      0xaaa mac_core/apps/utf/wmiHostIF/.output/AR6320/hw.3/lib/libwmihostif.a(wmi_tcmd.o)
 .debug_line    0x0000e02b      0x67c mac_core/apps/utf/wmiHostIF/.output/AR6320/hw.3/lib/libwmihostif.a(htt_tgt_hif_svc.o)
 .debug_line    0x0000e6a7     0x184c mac_core/src/wal/whal/reset/.output/AR6320/hw.3/lib/ar6000_cal.a(ar6320_cal.o)
 .debug_line    0x0000fef3     0x259c mac_core/src/wal/whal/reset/.output/AR6320/hw.3/lib/ar6000_cal.a(ar6320_rxdc_cal.o)
 .debug_line    0x0001248f     0x3022 mac_core/src/wal/whal/reset/.output/AR6320/hw.3/lib/ar6000_cal.a(ar6320_iq_cal.o)
 .debug_line    0x000154b1      0xbc6 mac_core/src/wal/whal/reset/.output/AR6320/hw.3/lib/ar6000_cal.a(ar6320_pef_cal.o)
 .debug_line    0x00016077      0x302 mac_core/patch/AR6320/v3/.output/AR6320/hw.3/lib/lib_maccore_patches.a(install_patches.o)
 .debug_line    0x00016379      0x2d3 mac_core/patch/AR6320/v3/.output/AR6320/hw.3/lib/lib_maccore_patches.a(whal_install_patches.o)
 .debug_line    0x0001664c      0x305 mac_core/patch/AR6320/v3/.output/AR6320/hw.3/lib/lib_maccore_patches.a(wal_install_patches.o)
 .debug_line    0x00016951      0x4dc mac_core/patch/AR6320/v3/.output/AR6320/hw.3/lib/lib_maccore_patches.a(ar_wal_connection_pause_patch.o)
 .debug_line    0x00016e2d      0xd20 mac_core/patch/AR6320/v3/.output/AR6320/hw.3/lib/lib_maccore_patches.a(ar_wal_phy_dev_patch.o)
 .debug_line    0x00017b4d      0x8b9 mac_core/patch/AR6320/v3/.output/AR6320/hw.3/lib/lib_maccore_patches.a(cmnos_retention_patch.o)
 .debug_line    0x00018406      0xe12 mac_core/patch/AR6320/v3/.output/AR6320/hw.3/lib/lib_maccore_patches.a(ar_wal_tx_de_patch.o)
 .debug_line    0x00019218      0x93e mac_core/patch/AR6320/v3/.output/AR6320/hw.3/lib/lib_maccore_patches.a(ar_wal_local_frames_wifi_ip01_patch.o)
 .debug_line    0x00019b56      0x55f mac_core/patch/AR6320/v3/.output/AR6320/hw.3/lib/lib_maccore_patches.a(pool_mgr_patch.o)
 .debug_line    0x0001a0b5     0x29ad mac_core/patch/AR6320/v3/.output/AR6320/hw.3/lib/lib_maccore_patches.a(ar_wal_rx_patch.o)
 .debug_line    0x0001ca62      0xe7c mac_core/patch/AR6320/v3/.output/AR6320/hw.3/lib/lib_maccore_patches.a(ar_wal_rx_offload_patch.o)
 .debug_line    0x0001d8de      0x3b3 mac_core/patch/AR6320/v3/.output/AR6320/hw.3/lib/lib_maccore_patches.a(ar_wal_rx_common_patch.o)
 .debug_line    0x0001dc91      0xcb9 mac_core/patch/AR6320/v3/.output/AR6320/hw.3/lib/lib_maccore_patches.a(ar_wal_vdev_patch.o)
 .debug_line    0x0001e94a      0x827 mac_core/patch/AR6320/v3/.output/AR6320/hw.3/lib/lib_maccore_patches.a(ar_tx_q_enque_patch.o)
 .debug_line    0x0001f171      0xbdc mac_core/patch/AR6320/v3/.output/AR6320/hw.3/lib/lib_maccore_patches.a(tx_sched_patch.o)
 .debug_line    0x0001fd4d     0x37fa mac_core/patch/AR6320/v3/.output/AR6320/hw.3/lib/lib_maccore_patches.a(ar_wal_tx_send_patch.o)
 .debug_line    0x00023547      0x44a mac_core/patch/AR6320/v3/.output/AR6320/hw.3/lib/lib_maccore_patches.a(ar_wal_chain_mgmt_patch.o)
 .debug_line    0x00023991     0x1b20 mac_core/patch/AR6320/v3/.output/AR6320/hw.3/lib/lib_maccore_patches.a(ar_wal_peer_patch.o)
 .debug_line    0x000254b1      0xd9f mac_core/patch/AR6320/v3/.output/AR6320/hw.3/lib/lib_maccore_patches.a(ar600P_txbf_patch.o)
 .debug_line    0x00026250      0x2ff mac_core/patch/AR6320/v3/.output/AR6320/hw.3/lib/lib_maccore_patches.a(wal_pps_patch.o)
 .debug_line    0x0002654f      0xd50 mac_core/patch/AR6320/v3/.output/AR6320/hw.3/lib/lib_maccore_patches.a(ar_xmit_wifi_ip01_patch.o)
 .debug_line    0x0002729f      0x7e4 mac_core/patch/AR6320/v3/.output/AR6320/hw.3/lib/lib_maccore_patches.a(ar_wal_channel_change_patch.o)
 .debug_line    0x00027a83      0xde7 mac_core/patch/AR6320/v3/.output/AR6320/hw.3/lib/lib_maccore_patches.a(ar_wal_rc_patch.o)
 .debug_line    0x0002886a      0x27b mac_core/patch/AR6320/v3/.output/AR6320/hw.3/lib/lib_maccore_patches.a(wal_rtt_patch.o)
 .debug_line    0x00028ae5      0x267 mac_core/patch/AR6320/v3/.output/AR6320/hw.3/lib/lib_maccore_patches.a(whal_rtt_patch.o)
 .debug_line    0x00028d4c      0xa94 mac_core/patch/AR6320/v3/.output/AR6320/hw.3/lib/lib_maccore_patches.a(dbglog_patch.o)
 .debug_line    0x000297e0      0x30c mac_core/patch/AR6320/v3/.output/AR6320/hw.3/lib/lib_maccore_patches.a(ar600p_beacon_patch.o)
 .debug_line    0x00029aec      0x687 mac_core/patch/AR6320/v3/.output/AR6320/hw.3/lib/lib_maccore_patches.a(ar6000_power_patch.o)
 .debug_line    0x0002a173      0x38f mac_core/patch/AR6320/v3/.output/AR6320/hw.3/lib/lib_maccore_patches.a(ar6000_interrupt_patch.o)
 .debug_line    0x0002a502      0x67d mac_core/patch/AR6320/v3/.output/AR6320/hw.3/lib/lib_maccore_patches.a(cmnos_intrinf_patch.o)
 .debug_line    0x0002ab7f      0x5db mac_core/patch/AR6320/v3/.output/AR6320/hw.3/lib/lib_maccore_patches.a(patch_pcie.o)
 .debug_line    0x0002b15a      0xca2 mac_core/patch/AR6320/v3/.output/AR6320/hw.3/lib/lib_maccore_patches.a(patch_usb.o)
 .debug_line    0x0002bdfc      0x331 mac_core/patch/AR6320/v3/.output/AR6320/hw.3/lib/lib_maccore_patches.a(wal_beacon_patch.o)
 .debug_line    0x0002c12d      0x408 mac_core/patch/AR6320/v3/.output/AR6320/hw.3/lib/lib_maccore_patches.a(wal_swba_patch.o)
 .debug_line    0x0002c535      0x65e mac_core/patch/AR6320/v3/.output/AR6320/hw.3/lib/lib_maccore_patches.a(ar600P_retention_patch.o)
 .debug_line    0x0002cb93      0x279 mac_core/patch/AR6320/v3/.output/AR6320/hw.3/lib/lib_maccore_patches.a(ar_wal_rmc_patch.o)
 .debug_line    0x0002ce0c      0x2ec mac_core/patch/AR6320/v3/.output/AR6320/hw.3/lib/lib_maccore_patches.a(whal_rgc_patch.o)
 .debug_line    0x0002d0f8      0x3d3 mac_core/patch/AR6320/v3/.output/AR6320/hw.3/lib/lib_maccore_patches.a(patch_hif_ce.o)
 .debug_line    0x0002d4cb      0x590 mac_core/patch/AR6320/v3/.output/AR6320/hw.3/lib/lib_maccore_patches.a(patch_whal_coex.o)
 .debug_line    0x0002da5b      0x3e7 mac_core/patch/AR6320/v3/.output/AR6320/hw.3/lib/lib_maccore_patches.a(patch_whal_mws.o)
 .debug_line    0x0002de42      0x56a mac_core/patch/AR6320/v3/.output/AR6320/hw.3/lib/lib_maccore_patches.a(patch_whal_mci.o)
 .debug_line    0x0002e3ac      0x4c6 mac_core/patch/AR6320/v3/.output/AR6320/hw.3/lib/lib_maccore_patches.a(ar_wal_tx_dm_patch.o)
 .debug_line    0x0002e872      0x74b mac_core/patch/AR6320/v3/.output/AR6320/hw.3/lib/lib_maccore_patches.a(patch_copy_engine.o)
 .debug_line    0x0002efbd      0x55d mac_core/patch/AR6320/v3/.output/AR6320/hw.3/lib/lib_maccore_patches.a(wal_concurrency_patch.o)
 .debug_line    0x0002f51a      0x638 mac_core/patch/AR6320/v3/.output/AR6320/hw.3/lib/lib_maccore_patches.a(ar_wal_tdls_patch.o)
 .debug_line    0x0002fb52      0x377 mac_core/patch/AR6320/v3/.output/AR6320/hw.3/lib/lib_maccore_patches.a(cmnos_timer_patch.o)
 .debug_line    0x0002fec9      0x2eb mac_core/patch/AR6320/v3/.output/AR6320/hw.3/lib/lib_maccore_patches.a(ar_wal_tx_hcm_patch.o)
 .debug_line    0x000301b4      0x847 mac_core/patch/AR6320/v3/.output/AR6320/hw.3/lib/lib_maccore_patches.a(ar_wal_tdls_conn_table_patch.o)
 .debug_line    0x000309fb      0x3a1 mac_core/patch/AR6320/v3/.output/AR6320/hw.3/lib/lib_maccore_patches.a(ar600P_recv_patch.o)
 .debug_line    0x00030d9c      0x2fb mac_core/patch/AR6320/v3/.output/AR6320/hw.3/lib/lib_maccore_patches.a(os_install_wlan_extra_memory_patches.o)
 .debug_line    0x00031097      0x371 mac_core/patch/AR6320/v3/.output/AR6320/hw.3/lib/lib_maccore_patches.a(patch_athos_main.o)
 .debug_line    0x00031408      0x3d1 mac_core/patch/AR6320/v3/.output/AR6320/hw.3/lib/lib_maccore_patches.a(cmnos_misc_patch.o)
 .debug_line    0x000317d9      0x4fc mac_core/patch/AR6320/v3/.output/AR6320/hw.3/lib/lib_maccore_patches.a(sha1_patch.o)
 .debug_line    0x00031cd5      0x28b mac_core/patch/AR6320/v3/.output/AR6320/hw.3/lib/lib_maccore_patches.a(patch_hif_sdio.o)
 .debug_line    0x00031f60      0x37a mac_core/patch/AR6320/v3/.output/AR6320/hw.3/lib/lib_maccore_patches.a(ar_wal_txbf_patch.o)
 .debug_line    0x000322da      0x33f mac_core/patch/AR6320/v3/.output/AR6320/hw.3/lib/lib_maccore_patches.a(wmi_dbgloghook_patch.o)
 .debug_line    0x00032619      0x545 mac_core/patch/AR6320/v3/.output/AR6320/hw.3/lib/lib_maccore_patches.a(cmnos_allocram_patch.o)
 .debug_line    0x00032b5e      0xc12 mac_core/src/wal/whal/rtt/.output/AR6320/hw.3/lib/whal_rtt.a(whal_rtt.o)
 .debug_line    0x00033770      0x29d halphy/patch/AR6320/v3/.output/AR6320/hw.3/lib/lib_halphy_patches.a(halphy_install_patches.o)
 .debug_line    0x00033a0d      0x842 halphy/patch/AR6320/v3/.output/AR6320/hw.3/lib/lib_halphy_patches.a(ar6000_nf_cal_patch.o)
 .debug_line    0x0003424f      0x87a halphy/patch/AR6320/v3/.output/AR6320/hw.3/lib/lib_halphy_patches.a(ar6000_ani_patch.o)
 .debug_line    0x00034ac9      0x7af halphy/patch/AR6320/v3/.output/AR6320/hw.3/lib/lib_halphy_patches.a(ar6320_ini_patch.o)
 .debug_line    0x00035278     0x151e halphy/patch/AR6320/v3/.output/AR6320/hw.3/lib/lib_halphy_patches.a(ar6320_tpc_config_patch.o)
 .debug_line    0x00036796     0x1728 halphy/patch/AR6320/v3/.output/AR6320/hw.3/lib/lib_halphy_patches.a(ar6320_eeprom_patch.o)
 .debug_line    0x00037ebe      0xa5c halphy/patch/AR6320/v3/.output/AR6320/hw.3/lib/lib_halphy_patches.a(ar600P_reset_patch.o)
 .debug_line    0x0003891a     0x1f80 halphy/patch/AR6320/v3/.output/AR6320/hw.3/lib/lib_halphy_patches.a(ar6000_paprd_patch.o)
 .debug_line    0x0003a89a      0x2c5 halphy/patch/AR6320/v3/.output/AR6320/hw.3/lib/lib_halphy_patches.a(ar6000_phy_patch.o)
 .debug_line    0x0003ab5f     0x1082 mac_core/src/wal/AR/rtt/.output/AR6320/hw.3/lib/ar_wal_rtt.a(wal_rtt.o)
 .debug_line    0x0003bbe1      0x766 mac_core/src/wal/AR/nan/.output/AR6320/hw.3/lib/ar_wal_nan.a(wal_nan_mac.o)
 .debug_line    0x0003c347      0x16f /cad/tensilica/chips/peregrine/RE-2013.3-linux/peregrine/xtensa-elf/lib/xcc//libgcc.a(_divsi3.o)
 .debug_line    0x0003c4b6      0x127 /cad/tensilica/chips/peregrine/RE-2013.3-linux/peregrine/xtensa-elf/lib/xcc//libgcc.a(_modsi3.o)
 .debug_line    0x0003c5dd      0x139 /cad/tensilica/chips/peregrine/RE-2013.3-linux/peregrine/xtensa-elf/lib/xcc//libgcc.a(_udivsi3.o)
 .debug_line    0x0003c716      0x109 /cad/tensilica/chips/peregrine/RE-2013.3-linux/peregrine/xtensa-elf/lib/xcc//libgcc.a(_umodsi3.o)
 .debug_line    0x0003c81f       0xcd /cad/tensilica/chips/peregrine/RE-2013.3-linux/peregrine/xtensa-elf/lib/xcc//libgcc.a(_ashrdi3.o)
 .debug_line    0x0003c8ec       0xcd /cad/tensilica/chips/peregrine/RE-2013.3-linux/peregrine/xtensa-elf/lib/xcc//libgcc.a(_lshrdi3.o)
 .debug_line    0x0003c9b9       0xbb /cad/tensilica/chips/peregrine/RE-2013.3-linux/peregrine/xtensa-elf/lib/xcc//libgcc.a(_muldi3.o)
 .debug_line    0x0003ca74      0x1e3 /cad/tensilica/chips/peregrine/RE-2013.3-linux/peregrine/xtensa-elf/lib/xcc//libgcc.a(_udivdi3.o)
 .debug_line    0x0003cc57      0x1e5 /cad/tensilica/chips/peregrine/RE-2013.3-linux/peregrine/xtensa-elf/lib/xcc//libgcc.a(lib2funcs.o)
 .debug_line    0x0003ce3c      0x291 mac_core/src/wal/whal/init/.output/AR6320/hw.3/lib/libwhal_init.a(whal_init.o)
 .debug_line    0x0003d0cd     0x131b mac_core/apps/utf/AR6320/.output/AR6320/hw.3/lib/libar6320.a(whal_SCPC.o)
 .debug_line    0x0003e3e8      0x788 mac_core/apps/utf/AR6004/.output/AR6320/hw.3/lib/libar6004utf.a(dkkernel.o)
 .debug_line    0x0003eb70      0x62e mac_core/apps/utf/AR6004/.output/AR6320/hw.3/lib/libar6004utf.a(event.o)
 .debug_line    0x0003f19e      0x749 mac_core/apps/utf/AR6004/.output/AR6320/hw.3/lib/libar6004utf.a(hw.o)
 .debug_line    0x0003f8e7      0x280 mac_core/apps/utf/AR6004/.output/AR6320/hw.3/lib/libar6004utf.a(main.o)
 .debug_line    0x0003fb67      0x4ba mac_core/src/misc/extend_alloc/.output/AR6320/hw.3/lib/libextendalloc.a(extend_allocate.o)
 .debug_line    0x00040021     0x1b87 mac_core/src/hostif/htc/.output/AR6320/hw.3/lib/libhtc.a(htc.o)
 .debug_line    0x00041ba8      0x2cb mac_core/src/misc/module_id/.output/AR6320/hw.3/lib/libmodule_id.a(module_id.o)
 .debug_line    0x00041e73      0x36b mac_core/src/wal/whal/ini/.output/AR6320/hw.3/lib/libwhalini.a(whalini.o)
 .debug_line    0x000421de      0x5d0 mac_core/src/utils/sm/.output/AR6320/hw.3/lib/libsm.a(sm.o)
 .debug_line    0x000427ae     0x56c6 mac_core/src/wal/AR/coex/.output/AR6320/hw.3/lib/wal_coex.a(wal_coex.o)
 .debug_line    0x00047e74     0x3626 mac_core/src/wal/AR/coex/.output/AR6320/hw.3/lib/wal_coex.a(wal_btcoex.o)
 .debug_line    0x0004b49a     0x22ec mac_core/src/wal/AR/coex/.output/AR6320/hw.3/lib/wal_coex.a(wal_mwscoex.o)
 .debug_line    0x0004d786      0x402 mac_core/src/wal/AR/coex/.output/AR6320/hw.3/lib/wal_coex.a(wal_mwscoex_crc.o)
 .debug_line    0x0004db88     0x11b3 mac_core/src/wal/AR/coex/.output/AR6320/hw.3/lib/wal_coex.a(qmi_idl_lib.o)
 .debug_line    0x0004ed3b      0x515 mac_core/src/wal/AR/coex/.output/AR6320/hw.3/lib/wal_coex.a(qmi_idl_accessor.o)
 .debug_line    0x0004f250      0x28f mac_core/src/wal/AR/coex/.output/AR6320/hw.3/lib/wal_coex.a(coexistence_service_v02.o)
 .debug_line    0x0004f4df      0xb84 mac_core/src/wal/whal/coex/.output/AR6320/hw.3/lib/whal_ar_coex.a(whal_coex.o)
 .debug_line    0x00050063     0x1d0a mac_core/src/wal/whal/coex/.output/AR6320/hw.3/lib/whal_ar_coex.a(whal_mci.o)
 .debug_line    0x00051d6d      0xe3c mac_core/src/wal/whal/coex/.output/AR6320/hw.3/lib/whal_ar_coex.a(whal_mws.o)
 .debug_line    0x00052ba9      0x5a8 mac_core/apps/lib/.output/AR6320/hw.3/lib/libapp.a(efusew.o)
 .debug_line    0x00053151      0x6c0 mac_core/apps/lib/.output/AR6320/hw.3/lib/libapp.a(otpstreamw.o)

.debug_frame
 *(.debug_frame)

.debug_str
 *(.debug_str)

.debug_loc
 *(.debug_loc)

.debug_macinfo
 *(.debug_macinfo)

.debug_weaknames
 *(.debug_weaknames)

.debug_funcnames
 *(.debug_funcnames)

.debug_typenames
 *(.debug_typenames)

.debug_varnames
 *(.debug_varnames)

.xt.insn
 *(.xt.insn)
 *(.gnu.linkonce.x.*)

.xt.prop        0x00000000    0x2abe8
 *(.xt.prop)
 .xt.prop       0x00000000       0x30 mac_core/apps/utf/commonUTF/.output/AR6320/hw.3/lib/libcommonutf.a(main.o)
                                 0x78 (size before relaxing)
 .xt.prop       0x00000030       0xc0 mac_core/apps/utf/commonUTF/.output/AR6320/hw.3/lib/libcommonutf.a(utf.o)
                                0x150 (size before relaxing)
 .xt.prop       0x000000f0      0x414 mac_core/apps/utf/commonUTF/.output/AR6320/hw.3/lib/libcommonutf.a(cmdEvtProcEngine.o)
                                0x570 (size before relaxing)
 .xt.prop       0x00000504      0x840 mac_core/apps/utf/commonUTF/.output/AR6320/hw.3/lib/libcommonutf.a(cmdProcessing.o)
                               0x11ac (size before relaxing)
 .xt.prop       0x00000d44      0x120 mac_core/apps/utf/commonUTF/.output/AR6320/hw.3/lib/libcommonutf.a(cmdProcessingSM.o)
                                0x1f8 (size before relaxing)
 .xt.prop       0x00000e64      0x414 mac_core/apps/utf/commonUTF/.output/AR6320/hw.3/lib/libcommonutf.a(genTxBinCmdTlv.o)
                                0x678 (size before relaxing)
 .xt.prop       0x00001278       0xd8 mac_core/apps/utf/commonUTF/.output/AR6320/hw.3/lib/libcommonutf.a(parseBinCmdStream.o)
                                0x150 (size before relaxing)
 .xt.prop       0x00001350       0x78 mac_core/apps/utf/commonUTF/.output/AR6320/hw.3/lib/libcommonutf.a(testUtil.o)
 .xt.prop       0x000013c8      0x204 mac_core/apps/utf/commonUTF/.output/AR6320/hw.3/lib/libcommonutf.a(whalExtensionGeneric.o)
                                0x2b8 (size before relaxing)
 .xt.prop       0x000015cc        0x0 mac_core/apps/utf/commonUTF/.output/AR6320/hw.3/lib/libcommonutf.a(_cmd_calParmBinTemplate.o)
                                  0xc (size before relaxing)
 .xt.prop       0x000015cc        0x0 mac_core/apps/utf/commonUTF/.output/AR6320/hw.3/lib/libcommonutf.a(_cmd_nartCmdParmBinTemplate.o)
                                  0xc (size before relaxing)
 .xt.prop       0x000015cc        0x0 mac_core/apps/utf/commonUTF/.output/AR6320/hw.3/lib/libcommonutf.a(_cmd_pmParmBinTemplate.o)
                                  0xc (size before relaxing)
 .xt.prop       0x000015cc        0x0 mac_core/apps/utf/commonUTF/.output/AR6320/hw.3/lib/libcommonutf.a(_cmd_rxParmBinTemplate.o)
                                  0xc (size before relaxing)
 .xt.prop       0x000015cc        0x0 mac_core/apps/utf/commonUTF/.output/AR6320/hw.3/lib/libcommonutf.a(_cmd_txParmBinTemplate.o)
                                  0xc (size before relaxing)
 .xt.prop       0x000015cc        0x0 mac_core/apps/utf/commonUTF/.output/AR6320/hw.3/lib/libcommonutf.a(cmdParmsTemplate.o)
                                  0xc (size before relaxing)
 .xt.prop       0x000015cc        0x0 mac_core/apps/utf/commonUTF/.output/AR6320/hw.3/lib/libcommonutf.a(_cmd_nartRspParmTxtTemplate.o)
                                  0xc (size before relaxing)
 .xt.prop       0x000015cc        0x0 mac_core/apps/utf/commonUTF/.output/AR6320/hw.3/lib/libcommonutf.a(_cmd_rspGenericParmTxtTemplate.o)
                                  0xc (size before relaxing)
 .xt.prop       0x000015cc        0x0 mac_core/apps/utf/commonUTF/.output/AR6320/hw.3/lib/libcommonutf.a(_cmd_rxStatusParmTxtTemplate.o)
                                  0xc (size before relaxing)
 .xt.prop       0x000015cc        0x0 mac_core/apps/utf/commonUTF/.output/AR6320/hw.3/lib/libcommonutf.a(_cmd_submitreportParmTxtTemplate.o)
                                  0xc (size before relaxing)
 .xt.prop       0x000015cc        0x0 mac_core/apps/utf/commonUTF/.output/AR6320/hw.3/lib/libcommonutf.a(_cmd_txStatusParmTxtTemplate.o)
                                  0xc (size before relaxing)
 .xt.prop       0x000015cc       0x18 mac_core/apps/utf/AR6320/.output/AR6320/hw.3/lib/libar6320.a(ar6320Register.o)
 .xt.prop       0x000015e4      0xbf4 mac_core/apps/utf/AR6320/.output/AR6320/hw.3/lib/libar6320.a(whal_tcmd.o)
                               0x36fc (size before relaxing)
 .xt.prop       0x000021d8     0x117c mac_core/apps/utf/tcmd_utf/.output/AR6320/hw.3/lib/libtcmdutf.a(tcmd.o)
                               0x2058 (size before relaxing)
 .xt.prop       0x00003354      0x7c8 mac_core/apps/utf/tcmd_utf/.output/AR6320/hw.3/lib/libtcmdutf.a(tcmd_rx.o)
                                0xdec (size before relaxing)
 .xt.prop       0x00003b1c      0x7d4 mac_core/apps/utf/tcmd_utf/.output/AR6320/hw.3/lib/libtcmdutf.a(tcmd_tx.o)
                                0xeb8 (size before relaxing)
 .xt.prop       0x000042f0      0x114 mac_core/apps/utf/tcmd_utf/.output/AR6320/hw.3/lib/libtcmdutf.a(utfCallback.o)
                                0x15c (size before relaxing)
 .xt.prop       0x00004404      0x1d4 mac_core/apps/utf/tcmd_utf/.output/AR6320/hw.3/lib/libtcmdutf.a(if_split.o)
                                0x528 (size before relaxing)
 .xt.prop       0x000045d8      0x228 mac_core/apps/utf/tcmd_utf/.output/AR6320/hw.3/lib/libtcmdutf.a(pn.o)
 .xt.prop       0x00004800       0x24 mac_core/apps/utf/testScriptIF/.output/AR6320/hw.3/lib/libtestscriptif.a(testscriptIFRegister.o)
                                 0x30 (size before relaxing)
 .xt.prop       0x00004824       0x48 mac_core/apps/utf/testScriptIF/.output/AR6320/hw.3/lib/libtestscriptif.a(testscriptIF.o)
 .xt.prop       0x0000486c     0x1524 mac_core/apps/utf/wmiHostIF/.output/AR6320/hw.3/lib/libwmihostif.a(legHostIF.o)
                               0x27f0 (size before relaxing)
 .xt.prop       0x00005d90      0x450 mac_core/apps/utf/wmiHostIF/.output/AR6320/hw.3/lib/libwmihostif.a(wmi_tcmd.o)
                                0xa74 (size before relaxing)
 .xt.prop       0x000061e0      0x258 mac_core/apps/utf/wmiHostIF/.output/AR6320/hw.3/lib/libwmihostif.a(htt_tgt_hif_svc.o)
                                0x414 (size before relaxing)
 .xt.prop       0x00006438      0x8e8 mac_core/src/wal/whal/reset/.output/AR6320/hw.3/lib/ar6000_cal.a(ar6320_cal.o)
                               0x2418 (size before relaxing)
 .xt.prop       0x00006d20     0x1b84 mac_core/src/wal/whal/reset/.output/AR6320/hw.3/lib/ar6000_cal.a(ar6320_rxdc_cal.o)
                               0x3f48 (size before relaxing)
 .xt.prop       0x000088a4     0x177c mac_core/src/wal/whal/reset/.output/AR6320/hw.3/lib/ar6000_cal.a(ar6320_iq_cal.o)
                               0x4c08 (size before relaxing)
 .xt.prop       0x0000a020      0x534 mac_core/src/wal/whal/reset/.output/AR6320/hw.3/lib/ar6000_cal.a(ar6320_pef_cal.o)
                                0xe88 (size before relaxing)
 .xt.prop       0x0000a554       0xb4 mac_core/patch/AR6320/v3/.output/AR6320/hw.3/lib/lib_maccore_patches.a(install_patches.o)
                                0x150 (size before relaxing)
 .xt.prop       0x0000a608       0x60 mac_core/patch/AR6320/v3/.output/AR6320/hw.3/lib/lib_maccore_patches.a(whal_install_patches.o)
                                 0xe4 (size before relaxing)
 .xt.prop       0x0000a668       0x30 mac_core/patch/AR6320/v3/.output/AR6320/hw.3/lib/lib_maccore_patches.a(wal_install_patches.o)
                                0x120 (size before relaxing)
 .xt.prop       0x0000a698      0x1a4 mac_core/patch/AR6320/v3/.output/AR6320/hw.3/lib/lib_maccore_patches.a(ar_wal_connection_pause_patch.o)
                                0x330 (size before relaxing)
 .xt.prop       0x0000a83c      0x66c mac_core/patch/AR6320/v3/.output/AR6320/hw.3/lib/lib_maccore_patches.a(ar_wal_phy_dev_patch.o)
                                0xedc (size before relaxing)
 .xt.prop       0x0000aea8      0x264 mac_core/patch/AR6320/v3/.output/AR6320/hw.3/lib/lib_maccore_patches.a(cmnos_retention_patch.o)
                                0x96c (size before relaxing)
 .xt.prop       0x0000b10c      0x690 mac_core/patch/AR6320/v3/.output/AR6320/hw.3/lib/lib_maccore_patches.a(ar_wal_tx_de_patch.o)
                                0xbd0 (size before relaxing)
 .xt.prop       0x0000b79c      0x4bc mac_core/patch/AR6320/v3/.output/AR6320/hw.3/lib/lib_maccore_patches.a(ar_wal_local_frames_wifi_ip01_patch.o)
                                0x744 (size before relaxing)
 .xt.prop       0x0000bc58      0x1e0 mac_core/patch/AR6320/v3/.output/AR6320/hw.3/lib/lib_maccore_patches.a(pool_mgr_patch.o)
                                0x378 (size before relaxing)
 .xt.prop       0x0000be38     0x1a94 mac_core/patch/AR6320/v3/.output/AR6320/hw.3/lib/lib_maccore_patches.a(ar_wal_rx_patch.o)
                               0x31f8 (size before relaxing)
 .xt.prop       0x0000d8cc      0x66c mac_core/patch/AR6320/v3/.output/AR6320/hw.3/lib/lib_maccore_patches.a(ar_wal_rx_offload_patch.o)
                                0xab0 (size before relaxing)
 .xt.prop       0x0000df38       0xc0 mac_core/patch/AR6320/v3/.output/AR6320/hw.3/lib/lib_maccore_patches.a(ar_wal_rx_common_patch.o)
                                 0xfc (size before relaxing)
 .xt.prop       0x0000dff8      0x828 mac_core/patch/AR6320/v3/.output/AR6320/hw.3/lib/lib_maccore_patches.a(ar_wal_vdev_patch.o)
                                0xd20 (size before relaxing)
 .xt.prop       0x0000e820      0x2b8 mac_core/patch/AR6320/v3/.output/AR6320/hw.3/lib/lib_maccore_patches.a(ar_tx_q_enque_patch.o)
                                0x558 (size before relaxing)
 .xt.prop       0x0000ead8      0x594 mac_core/patch/AR6320/v3/.output/AR6320/hw.3/lib/lib_maccore_patches.a(tx_sched_patch.o)
                                0xa2c (size before relaxing)
 .xt.prop       0x0000f06c     0x1e48 mac_core/patch/AR6320/v3/.output/AR6320/hw.3/lib/lib_maccore_patches.a(ar_wal_tx_send_patch.o)
                               0x384c (size before relaxing)
 .xt.prop       0x00010eb4       0xfc mac_core/patch/AR6320/v3/.output/AR6320/hw.3/lib/lib_maccore_patches.a(ar_wal_chain_mgmt_patch.o)
                                0x270 (size before relaxing)
 .xt.prop       0x00010fb0     0x1104 mac_core/patch/AR6320/v3/.output/AR6320/hw.3/lib/lib_maccore_patches.a(ar_wal_peer_patch.o)
                               0x1c08 (size before relaxing)
 .xt.prop       0x000120b4      0x504 mac_core/patch/AR6320/v3/.output/AR6320/hw.3/lib/lib_maccore_patches.a(ar600P_txbf_patch.o)
                                0xd14 (size before relaxing)
 .xt.prop       0x000125b8       0x90 mac_core/patch/AR6320/v3/.output/AR6320/hw.3/lib/lib_maccore_patches.a(wal_pps_patch.o)
                                0x12c (size before relaxing)
 .xt.prop       0x00012648      0x6f0 mac_core/patch/AR6320/v3/.output/AR6320/hw.3/lib/lib_maccore_patches.a(ar_xmit_wifi_ip01_patch.o)
                               0x1098 (size before relaxing)
 .xt.prop       0x00012d38      0x234 mac_core/patch/AR6320/v3/.output/AR6320/hw.3/lib/lib_maccore_patches.a(ar_wal_channel_change_patch.o)
                                0x570 (size before relaxing)
 .xt.prop       0x00012f6c      0x7f8 mac_core/patch/AR6320/v3/.output/AR6320/hw.3/lib/lib_maccore_patches.a(ar_wal_rc_patch.o)
                                0xa2c (size before relaxing)
 .xt.prop       0x00013764       0x24 mac_core/patch/AR6320/v3/.output/AR6320/hw.3/lib/lib_maccore_patches.a(wal_rtt_patch.o)
                                 0x30 (size before relaxing)
 .xt.prop       0x00013788       0x24 mac_core/patch/AR6320/v3/.output/AR6320/hw.3/lib/lib_maccore_patches.a(whal_rtt_patch.o)
                                 0x30 (size before relaxing)
 .xt.prop       0x000137ac      0x444 mac_core/patch/AR6320/v3/.output/AR6320/hw.3/lib/lib_maccore_patches.a(dbglog_patch.o)
                                0x900 (size before relaxing)
 .xt.prop       0x00013bf0       0x84 mac_core/patch/AR6320/v3/.output/AR6320/hw.3/lib/lib_maccore_patches.a(ar600p_beacon_patch.o)
                                0x114 (size before relaxing)
 .xt.prop       0x00013c74      0x2f4 mac_core/patch/AR6320/v3/.output/AR6320/hw.3/lib/lib_maccore_patches.a(ar6000_power_patch.o)
                                0x5e8 (size before relaxing)
 .xt.prop       0x00013f68       0xb4 mac_core/patch/AR6320/v3/.output/AR6320/hw.3/lib/lib_maccore_patches.a(ar6000_interrupt_patch.o)
                                0x24c (size before relaxing)
 .xt.prop       0x0001401c      0x2dc mac_core/patch/AR6320/v3/.output/AR6320/hw.3/lib/lib_maccore_patches.a(cmnos_intrinf_patch.o)
                                0x72c (size before relaxing)
 .xt.prop       0x000142f8      0x288 mac_core/patch/AR6320/v3/.output/AR6320/hw.3/lib/lib_maccore_patches.a(patch_pcie.o)
                                0x6b4 (size before relaxing)
 .xt.prop       0x00014580      0x60c mac_core/patch/AR6320/v3/.output/AR6320/hw.3/lib/lib_maccore_patches.a(patch_usb.o)
                                0xa98 (size before relaxing)
 .xt.prop       0x00014b8c       0x90 mac_core/patch/AR6320/v3/.output/AR6320/hw.3/lib/lib_maccore_patches.a(wal_beacon_patch.o)
                                 0xcc (size before relaxing)
 .xt.prop       0x00014c1c      0x114 mac_core/patch/AR6320/v3/.output/AR6320/hw.3/lib/lib_maccore_patches.a(wal_swba_patch.o)
                                0x198 (size before relaxing)
 .xt.prop       0x00014d30      0x2a0 mac_core/patch/AR6320/v3/.output/AR6320/hw.3/lib/lib_maccore_patches.a(ar600P_retention_patch.o)
                                0x5e8 (size before relaxing)
 .xt.prop       0x00014fd0       0x18 mac_core/patch/AR6320/v3/.output/AR6320/hw.3/lib/lib_maccore_patches.a(ar_wal_rmc_patch.o)
                                 0x30 (size before relaxing)
 .xt.prop       0x00014fe8       0xa8 mac_core/patch/AR6320/v3/.output/AR6320/hw.3/lib/lib_maccore_patches.a(whal_rgc_patch.o)
 .xt.prop       0x00015090      0x12c mac_core/patch/AR6320/v3/.output/AR6320/hw.3/lib/lib_maccore_patches.a(patch_hif_ce.o)
                                0x228 (size before relaxing)
 .xt.prop       0x000151bc      0x2dc mac_core/patch/AR6320/v3/.output/AR6320/hw.3/lib/lib_maccore_patches.a(patch_whal_coex.o)
                                0x588 (size before relaxing)
 .xt.prop       0x00015498       0xf0 mac_core/patch/AR6320/v3/.output/AR6320/hw.3/lib/lib_maccore_patches.a(patch_whal_mws.o)
                                0x228 (size before relaxing)
 .xt.prop       0x00015588      0x2b8 mac_core/patch/AR6320/v3/.output/AR6320/hw.3/lib/lib_maccore_patches.a(patch_whal_mci.o)
                                0x444 (size before relaxing)
 .xt.prop       0x00015840       0xc0 mac_core/patch/AR6320/v3/.output/AR6320/hw.3/lib/lib_maccore_patches.a(ar_wal_tx_dm_patch.o)
                                0x168 (size before relaxing)
 .xt.prop       0x00015900      0x2f4 mac_core/patch/AR6320/v3/.output/AR6320/hw.3/lib/lib_maccore_patches.a(patch_copy_engine.o)
                                0x630 (size before relaxing)
 .xt.prop       0x00015bf4      0x294 mac_core/patch/AR6320/v3/.output/AR6320/hw.3/lib/lib_maccore_patches.a(wal_concurrency_patch.o)
                                0x300 (size before relaxing)
 .xt.prop       0x00015e88      0x450 mac_core/patch/AR6320/v3/.output/AR6320/hw.3/lib/lib_maccore_patches.a(ar_wal_tdls_patch.o)
                                0x654 (size before relaxing)
 .xt.prop       0x000162d8       0xcc mac_core/patch/AR6320/v3/.output/AR6320/hw.3/lib/lib_maccore_patches.a(cmnos_timer_patch.o)
                                0x15c (size before relaxing)
 .xt.prop       0x000163a4       0x54 mac_core/patch/AR6320/v3/.output/AR6320/hw.3/lib/lib_maccore_patches.a(ar_wal_tx_hcm_patch.o)
                                 0x6c (size before relaxing)
 .xt.prop       0x000163f8      0x390 mac_core/patch/AR6320/v3/.output/AR6320/hw.3/lib/lib_maccore_patches.a(ar_wal_tdls_conn_table_patch.o)
                                0x57c (size before relaxing)
 .xt.prop       0x00016788       0xf0 mac_core/patch/AR6320/v3/.output/AR6320/hw.3/lib/lib_maccore_patches.a(ar600P_recv_patch.o)
                                0x21c (size before relaxing)
 .xt.prop       0x00016878       0x6c mac_core/patch/AR6320/v3/.output/AR6320/hw.3/lib/lib_maccore_patches.a(os_install_wlan_extra_memory_patches.o)
                                 0xb4 (size before relaxing)
 .xt.prop       0x000168e4       0x9c mac_core/patch/AR6320/v3/.output/AR6320/hw.3/lib/lib_maccore_patches.a(patch_athos_main.o)
                                0x1c8 (size before relaxing)
 .xt.prop       0x00016980       0xe4 mac_core/patch/AR6320/v3/.output/AR6320/hw.3/lib/lib_maccore_patches.a(cmnos_misc_patch.o)
                                0x24c (size before relaxing)
 .xt.prop       0x00016a64       0xe4 mac_core/patch/AR6320/v3/.output/AR6320/hw.3/lib/lib_maccore_patches.a(sha1_patch.o)
                                0x144 (size before relaxing)
 .xt.prop       0x00016b48       0x60 mac_core/patch/AR6320/v3/.output/AR6320/hw.3/lib/lib_maccore_patches.a(patch_hif_sdio.o)
                                 0x78 (size before relaxing)
 .xt.prop       0x00016ba8      0x12c mac_core/patch/AR6320/v3/.output/AR6320/hw.3/lib/lib_maccore_patches.a(ar_wal_txbf_patch.o)
                                0x21c (size before relaxing)
 .xt.prop       0x00016cd4       0xfc mac_core/patch/AR6320/v3/.output/AR6320/hw.3/lib/lib_maccore_patches.a(wmi_dbgloghook_patch.o)
                                0x168 (size before relaxing)
 .xt.prop       0x00016dd0      0x1f8 mac_core/patch/AR6320/v3/.output/AR6320/hw.3/lib/lib_maccore_patches.a(cmnos_allocram_patch.o)
                                0x30c (size before relaxing)
 .xt.prop       0x00016fc8      0x9e4 mac_core/src/wal/whal/rtt/.output/AR6320/hw.3/lib/whal_rtt.a(whal_rtt.o)
                               0x12b4 (size before relaxing)
 .xt.prop       0x000179ac       0x3c halphy/patch/AR6320/v3/.output/AR6320/hw.3/lib/lib_halphy_patches.a(halphy_install_patches.o)
                                 0x90 (size before relaxing)
 .xt.prop       0x000179e8      0x390 halphy/patch/AR6320/v3/.output/AR6320/hw.3/lib/lib_halphy_patches.a(ar6000_nf_cal_patch.o)
                                0x864 (size before relaxing)
 .xt.prop       0x00017d78      0x348 halphy/patch/AR6320/v3/.output/AR6320/hw.3/lib/lib_halphy_patches.a(ar6000_ani_patch.o)
                                0x78c (size before relaxing)
 .xt.prop       0x000180c0      0x4b0 halphy/patch/AR6320/v3/.output/AR6320/hw.3/lib/lib_halphy_patches.a(ar6320_ini_patch.o)
                                0x9a8 (size before relaxing)
 .xt.prop       0x00018570      0xb34 halphy/patch/AR6320/v3/.output/AR6320/hw.3/lib/lib_halphy_patches.a(ar6320_tpc_config_patch.o)
                               0x162c (size before relaxing)
 .xt.prop       0x000190a4      0xbf4 halphy/patch/AR6320/v3/.output/AR6320/hw.3/lib/lib_halphy_patches.a(ar6320_eeprom_patch.o)
                               0x1884 (size before relaxing)
 .xt.prop       0x00019c98      0x420 halphy/patch/AR6320/v3/.output/AR6320/hw.3/lib/lib_halphy_patches.a(ar600P_reset_patch.o)
                                0xc90 (size before relaxing)
 .xt.prop       0x0001a0b8      0xffc halphy/patch/AR6320/v3/.output/AR6320/hw.3/lib/lib_halphy_patches.a(ar6000_paprd_patch.o)
                               0x21d8 (size before relaxing)
 .xt.prop       0x0001b0b4       0x48 halphy/patch/AR6320/v3/.output/AR6320/hw.3/lib/lib_halphy_patches.a(ar6000_phy_patch.o)
                                 0x9c (size before relaxing)
 .xt.prop       0x0001b0fc      0x804 mac_core/src/wal/AR/rtt/.output/AR6320/hw.3/lib/ar_wal_rtt.a(wal_rtt.o)
                                0xc78 (size before relaxing)
 .xt.prop       0x0001b900      0x300 mac_core/src/wal/AR/nan/.output/AR6320/hw.3/lib/ar_wal_nan.a(wal_nan_mac.o)
                                0x5c4 (size before relaxing)
 .xt.prop       0x0001bc00       0x90 /cad/tensilica/chips/peregrine/RE-2013.3-linux/peregrine/xtensa-elf/lib/xcc//libgcc.a(_divsi3.o)
 .xt.prop       0x0001bc90       0x6c /cad/tensilica/chips/peregrine/RE-2013.3-linux/peregrine/xtensa-elf/lib/xcc//libgcc.a(_modsi3.o)
 .xt.prop       0x0001bcfc       0x90 /cad/tensilica/chips/peregrine/RE-2013.3-linux/peregrine/xtensa-elf/lib/xcc//libgcc.a(_udivsi3.o)
 .xt.prop       0x0001bd8c       0x60 /cad/tensilica/chips/peregrine/RE-2013.3-linux/peregrine/xtensa-elf/lib/xcc//libgcc.a(_umodsi3.o)
 .xt.prop       0x0001bdec       0x30 /cad/tensilica/chips/peregrine/RE-2013.3-linux/peregrine/xtensa-elf/lib/xcc//libgcc.a(_ashrdi3.o)
 .xt.prop       0x0001be1c       0x30 /cad/tensilica/chips/peregrine/RE-2013.3-linux/peregrine/xtensa-elf/lib/xcc//libgcc.a(_lshrdi3.o)
 .xt.prop       0x0001be4c       0x18 /cad/tensilica/chips/peregrine/RE-2013.3-linux/peregrine/xtensa-elf/lib/xcc//libgcc.a(_muldi3.o)
 .xt.prop       0x0001be64      0x12c /cad/tensilica/chips/peregrine/RE-2013.3-linux/peregrine/xtensa-elf/lib/xcc//libgcc.a(_udivdi3.o)
                                0x1e0 (size before relaxing)
 .xt.prop       0x0001bf90       0x84 /cad/tensilica/chips/peregrine/RE-2013.3-linux/peregrine/xtensa-elf/lib/xcc//libgcc.a(lib2funcs.o)
                                 0x90 (size before relaxing)
 .xt.prop       0x0001c014       0x30 mac_core/src/wal/whal/init/.output/AR6320/hw.3/lib/libwhal_init.a(whal_init.o)
                                 0x60 (size before relaxing)
 .xt.prop       0x0001c044      0xa74 mac_core/apps/utf/AR6320/.output/AR6320/hw.3/lib/libar6320.a(whal_SCPC.o)
                               0x1140 (size before relaxing)
 .xt.prop       0x0001cab8      0x588 mac_core/apps/utf/AR6004/.output/AR6320/hw.3/lib/libar6004utf.a(dkkernel.o)
                                0x894 (size before relaxing)
 .xt.prop       0x0001d040      0x3cc mac_core/apps/utf/AR6004/.output/AR6320/hw.3/lib/libar6004utf.a(event.o)
                                0x4a4 (size before relaxing)
 .xt.prop       0x0001d40c      0x414 mac_core/apps/utf/AR6004/.output/AR6320/hw.3/lib/libar6004utf.a(hw.o)
                                0x738 (size before relaxing)
 .xt.prop       0x0001d820        0x0 mac_core/apps/utf/AR6004/.output/AR6320/hw.3/lib/libar6004utf.a(main.o)
                                 0x24 (size before relaxing)
 .xt.prop       0x0001d820      0x168 mac_core/src/misc/extend_alloc/.output/AR6320/hw.3/lib/libextendalloc.a(extend_allocate.o)
                                0x27c (size before relaxing)
 .xt.prop       0x0001d988      0xf00 mac_core/src/hostif/htc/.output/AR6320/hw.3/lib/libhtc.a(htc.o)
                               0x16a4 (size before relaxing)
 .xt.prop       0x0001e888       0x60 mac_core/src/misc/module_id/.output/AR6320/hw.3/lib/libmodule_id.a(module_id.o)
                                 0xa8 (size before relaxing)
 .xt.prop       0x0001e8e8       0xd8 mac_core/src/wal/whal/ini/.output/AR6320/hw.3/lib/libwhalini.a(whalini.o)
                                0x168 (size before relaxing)
 .xt.prop       0x0001e9c0      0x204 mac_core/src/utils/sm/.output/AR6320/hw.3/lib/libsm.a(sm.o)
                                0x378 (size before relaxing)
 .xt.prop       0x0001ebc4     0x4308 mac_core/src/wal/AR/coex/.output/AR6320/hw.3/lib/wal_coex.a(wal_coex.o)
                               0x6774 (size before relaxing)
 .xt.prop       0x00022ecc     0x2b74 mac_core/src/wal/AR/coex/.output/AR6320/hw.3/lib/wal_coex.a(wal_btcoex.o)
                               0x38b8 (size before relaxing)
 .xt.prop       0x00025a40     0x1590 mac_core/src/wal/AR/coex/.output/AR6320/hw.3/lib/wal_coex.a(wal_mwscoex.o)
                               0x204c (size before relaxing)
 .xt.prop       0x00026fd0      0x180 mac_core/src/wal/AR/coex/.output/AR6320/hw.3/lib/wal_coex.a(wal_mwscoex_crc.o)
                                0x210 (size before relaxing)
 .xt.prop       0x00027150      0xc18 mac_core/src/wal/AR/coex/.output/AR6320/hw.3/lib/wal_coex.a(qmi_idl_lib.o)
                                0xd14 (size before relaxing)
 .xt.prop       0x00027d68      0x378 mac_core/src/wal/AR/coex/.output/AR6320/hw.3/lib/wal_coex.a(qmi_idl_accessor.o)
 .xt.prop       0x000280e0      0x3e4 mac_core/src/wal/AR/coex/.output/AR6320/hw.3/lib/wal_coex.a(coexistence_service_v02.o)
                                0x3f0 (size before relaxing)
 .xt.prop       0x000284c4      0x798 mac_core/src/wal/whal/coex/.output/AR6320/hw.3/lib/whal_ar_coex.a(whal_coex.o)
                               0x11ac (size before relaxing)
 .xt.prop       0x00028c5c     0x1194 mac_core/src/wal/whal/coex/.output/AR6320/hw.3/lib/whal_ar_coex.a(whal_mci.o)
                               0x258c (size before relaxing)
 .xt.prop       0x00029df0      0x780 mac_core/src/wal/whal/coex/.output/AR6320/hw.3/lib/whal_ar_coex.a(whal_mws.o)
                                0xf84 (size before relaxing)
 .xt.prop       0x0002a570      0x2a0 mac_core/apps/lib/.output/AR6320/hw.3/lib/libapp.a(efusew.o)
                                0x5e8 (size before relaxing)
 .xt.prop       0x0002a810      0x3d8 mac_core/apps/lib/.output/AR6320/hw.3/lib/libapp.a(otpstreamw.o)
                                0x720 (size before relaxing)
 *(.gnu.linkonce.prop.*)

.xt.lit
 *(.xt.lit)
 *(.gnu.linkonce.p.*)

.athwlan.slc
 *(.athwlan.slc)

.athwlan.sla    0x00982e34        0x0
                0x00982e34                log_sla_start = ABSOLUTE (.)
 *(.athwlan.sla)
                0x00982e34                log_sla_finish = ABSOLUTE (.)

.athwlan.pack
 *(.athwlan.pack)

.memstats_desc  0x01000000     0x197e
                0x01000000                memstat_start = ABSOLUTE (.)
 *(.memstats_desc)
 .memstats_desc
                0x01000000       0x4e mac_core/apps/utf/commonUTF/.output/AR6320/hw.3/lib/libcommonutf.a(cmdProcessing.o)
 *fill*         0x0100004e        0x2 00
 .memstats_desc
                0x01000050       0x47 mac_core/apps/utf/wmiHostIF/.output/AR6320/hw.3/lib/libwmihostif.a(legHostIF.o)
 *fill*         0x01000097        0x9 00
 .memstats_desc
                0x010000a0       0xd5 mac_core/apps/utf/wmiHostIF/.output/AR6320/hw.3/lib/libwmihostif.a(wmi_tcmd.o)
 *fill*         0x01000175        0xb 00
 .memstats_desc
                0x01000180       0x4a mac_core/apps/utf/wmiHostIF/.output/AR6320/hw.3/lib/libwmihostif.a(htt_tgt_hif_svc.o)
 *fill*         0x010001ca        0x6 00
 .memstats_desc
                0x010001d0       0xb2 mac_core/src/wal/whal/reset/.output/AR6320/hw.3/lib/ar6000_cal.a(ar6320_cal.o)
 *fill*         0x01000282        0xe 00
 .memstats_desc
                0x01000290      0x354 mac_core/patch/AR6320/v3/.output/AR6320/hw.3/lib/lib_maccore_patches.a(ar_wal_phy_dev_patch.o)
 *fill*         0x010005e4        0xc 00
 .memstats_desc
                0x010005f0       0x8e mac_core/patch/AR6320/v3/.output/AR6320/hw.3/lib/lib_maccore_patches.a(pool_mgr_patch.o)
 *fill*         0x0100067e        0x2 00
 .memstats_desc
                0x01000680      0x239 mac_core/patch/AR6320/v3/.output/AR6320/hw.3/lib/lib_maccore_patches.a(ar_wal_rx_patch.o)
 *fill*         0x010008b9        0x7 00
 .memstats_desc
                0x010008c0      0x110 mac_core/patch/AR6320/v3/.output/AR6320/hw.3/lib/lib_maccore_patches.a(ar_wal_rx_offload_patch.o)
 .memstats_desc
                0x010009d0       0x48 mac_core/patch/AR6320/v3/.output/AR6320/hw.3/lib/lib_maccore_patches.a(tx_sched_patch.o)
 *fill*         0x01000a18        0x8 00
 .memstats_desc
                0x01000a20      0x247 mac_core/patch/AR6320/v3/.output/AR6320/hw.3/lib/lib_maccore_patches.a(ar_wal_tx_send_patch.o)
 *fill*         0x01000c67        0x9 00
 .memstats_desc
                0x01000c70      0x175 mac_core/patch/AR6320/v3/.output/AR6320/hw.3/lib/lib_maccore_patches.a(ar_wal_peer_patch.o)
 *fill*         0x01000de5        0xb 00
 .memstats_desc
                0x01000df0       0xe2 mac_core/patch/AR6320/v3/.output/AR6320/hw.3/lib/lib_maccore_patches.a(dbglog_patch.o)
 *fill*         0x01000ed2        0xe 00
 .memstats_desc
                0x01000ee0       0x71 mac_core/patch/AR6320/v3/.output/AR6320/hw.3/lib/lib_maccore_patches.a(ar600P_retention_patch.o)
 *fill*         0x01000f51        0xf 00
 .memstats_desc
                0x01000f60       0xdb mac_core/patch/AR6320/v3/.output/AR6320/hw.3/lib/lib_maccore_patches.a(ar_wal_tdls_patch.o)
 *fill*         0x0100103b        0x5 00
 .memstats_desc
                0x01001040       0x43 mac_core/src/wal/whal/rtt/.output/AR6320/hw.3/lib/whal_rtt.a(whal_rtt.o)
 *fill*         0x01001083        0xd 00
 .memstats_desc
                0x01001090       0x48 mac_core/src/wal/AR/rtt/.output/AR6320/hw.3/lib/ar_wal_rtt.a(wal_rtt.o)
 *fill*         0x010010d8        0x8 00
 .memstats_desc
                0x010010e0      0x13b mac_core/src/misc/extend_alloc/.output/AR6320/hw.3/lib/libextendalloc.a(extend_allocate.o)
 *fill*         0x0100121b        0x5 00
 .memstats_desc
                0x01001220       0xc2 mac_core/src/hostif/htc/.output/AR6320/hw.3/lib/libhtc.a(htc.o)
 *fill*         0x010012e2        0xe 00
 .memstats_desc
                0x010012f0       0x5f mac_core/src/misc/module_id/.output/AR6320/hw.3/lib/libmodule_id.a(module_id.o)
 *fill*         0x0100134f        0x1 00
 .memstats_desc
                0x01001350       0x69 mac_core/src/wal/whal/ini/.output/AR6320/hw.3/lib/libwhalini.a(whalini.o)
 *fill*         0x010013b9        0x7 00
 .memstats_desc
                0x010013c0       0x94 mac_core/src/utils/sm/.output/AR6320/hw.3/lib/libsm.a(sm.o)
 *fill*         0x01001454        0xc 00
 .memstats_desc
                0x01001460      0x274 mac_core/src/wal/AR/coex/.output/AR6320/hw.3/lib/wal_coex.a(wal_coex.o)
 *fill*         0x010016d4        0xc 00
 .memstats_desc
                0x010016e0       0x4b mac_core/src/wal/AR/coex/.output/AR6320/hw.3/lib/wal_coex.a(wal_btcoex.o)
 *fill*         0x0100172b        0x5 00
 .memstats_desc
                0x01001730       0xe8 mac_core/src/wal/AR/coex/.output/AR6320/hw.3/lib/wal_coex.a(wal_mwscoex.o)
 *fill*         0x01001818        0x8 00
 .memstats_desc
                0x01001820       0x4c mac_core/src/wal/whal/coex/.output/AR6320/hw.3/lib/whal_ar_coex.a(whal_coex.o)
 *fill*         0x0100186c        0x4 00
 .memstats_desc
                0x01001870      0x10e mac_core/src/wal/whal/coex/.output/AR6320/hw.3/lib/whal_ar_coex.a(whal_mci.o)
                0x00400000                PROVIDE (_indir_tbl, 0x400000)
                0x0040445c                PROVIDE (dbglog_config, 0x40445c)
                0x0092ed58                PROVIDE (dbglog_record_log_buf, 0x92ed58)
                0x0092e910                PROVIDE (dbglog_manage_log_buffer, 0x92e910)
                0x0092e9fc                PROVIDE (dbglog_add_argument, 0x92e9fc)
                0x00917258                PROVIDE (dbglog_resume, 0x917258)
                0x00917238                PROVIDE (dbglog_suspend, 0x917238)
                0x0093f0c0                PROVIDE (whalAttach, 0x93f0c0)
                0x00407e84                PROVIDE (whalIndirectionTable, 0x407e84)
                0x00413800                PROVIDE (whalAttachTable, 0x413800)
                0x0093c86c                PROVIDE (ar6320ProgIniTables, 0x93c86c)
                0x0093c938                PROVIDE (ar6320ProgTxFirTable, 0x93c938)
                0x004137f0                PROVIDE (whalChainMaskToNumChains, 0x4137f0)
                0x00919fac                PROVIDE (mboxhw_module_install, 0x919fac)
                0x00912a6c                PROVIDE (cmnos_allocram_module_install, 0x912a6c)
                0x009183b8                PROVIDE (gpio_module_install, 0x9183b8)
                0x009177e4                PROVIDE (dbglog_module_install, 0x9177e4)
                0x0091f030                PROVIDE (md5_module_install, 0x91f030)
                0x00952cb8                PROVIDE (memcpy, 0x952cb8)
                0x00952f4c                PROVIDE (memset, 0x952f4c)
                0x00952a18                PROVIDE (__divsi3, 0x952a18)
                0x00952acc                PROVIDE (__udivsi3, 0x952acc)
                0x00952b1c                PROVIDE (__umodsi3, 0x952b1c)
                0x00952a80                PROVIDE (__modsi3, 0x952a80)
                0x009514b8                PROVIDE (__udivdi3, 0x9514b8)
                0x00952b74                PROVIDE (__ashrdi3, 0x952b74)
                0x00916af8                PROVIDE (timer_insert, 0x916af8)
                0x00952c20                PROVIDE (memcmp, 0x952c20)
                0x00952db0                PROVIDE (memmove, 0x952db0)
                0x00951c7c                PROVIDE (strcpy, 0x951c7c)
                0x00951e58                PROVIDE (strncpy, 0x951e58)
                0x00951d0c                PROVIDE (strlen, 0x951d0c)
                0x00951b58                PROVIDE (strcmp, 0x951b58)
                0x00951d70                PROVIDE (strncmp, 0x951d70)
                0x00910700                PROVIDE (athos_block_all_intrlvl, 0x910700)
                0x00910714                PROVIDE (athos_restore_intrlvl, 0x910714)
                0x00913b60                PROVIDE (cmnos_delay_us, 0x913b60)
                0x009147e8                PROVIDE (cmnos_dsr_attach, 0x9147e8)
                0x00913b94                PROVIDE (cmnos_milliseconds, 0x913b94)
                0x00915be8                PROVIDE (cmnos_printf, 0x915be8)
                0x00913bdc                PROVIDE (cmnos_refclk_speed_get, 0x913bdc)
                0x00916bcc                PROVIDE (cmnos_timer_arm, 0x916bcc)
                0x00916c08                PROVIDE (cmnos_timer_disarm, 0x916c08)
                0x00916ac4                PROVIDE (cmnos_timer_setfn, 0x916ac4)
                0x00913c40                PROVIDE (cmnos_uart_frequency, 0x913c40)
                0x00914818                PROVIDE (cmnos_dsr_detach, 0x914818)
                0x00914894                PROVIDE (cmnos_intr_mask_inum, 0x914894)
                0x009148dc                PROVIDE (cmnos_intr_unmask_inum, 0x9148dc)
                0x0091482c                PROVIDE (cmnos_isr_attach, 0x91482c)
                0x00914880                PROVIDE (cmnos_isr_detach, 0x914880)
                0x00914920                PROVIDE (cmnos_intr_invoke_isr, 0x914920)
                0x00915554                PROVIDE (cmnos_power_syssleep_control, 0x915554)
                0x00916c98                PROVIDE (cmnos_timer_done, 0x916c98)
                0x0091554c                PROVIDE (cmnos_power_uart_control, 0x91554c)
                0x009160f8                PROVIDE (cmnos_serial_getc, 0x9160f8)
                0x00916024                PROVIDE (cmnos_serial_hwinit, 0x916024)
                0x00913c84                PROVIDE (cmnos_wlan_band_set, 0x913c84)
                0x00916ec8                PROVIDE (cmnos_wdt_enable, 0x916ec8)
                0x00912ab0                PROVIDE (cmnos_bddata_addr, 0x912ab0)
                0x00916e84                PROVIDE (cmnos_wdt_current_action, 0x916e84)
                0x00912a90                PROVIDE (cmnos_bddata_setup, 0x912a90)
                0x00914c44                PROVIDE (cmnos_system_reset, 0x914c44)
                0x00913b18                PROVIDE (cmnos_dcache_flush, 0x913b18)
                0x00913b28                PROVIDE (cmnos_dcache_invalidate, 0x913b28)
                0x00915174                PROVIDE (cmnos_target_id_get, 0x915174)
                0x00915180                PROVIDE (cmnos_is_host_present, 0x915180)
                0x00916f4c                PROVIDE (cmnos_wdt_disable, 0x916f4c)
                0x00916f90                PROVIDE (cmnos_wdt_restore, 0x916f90)
                0x0091268c                PROVIDE (cmnos_allocram, 0x91268c)
                0x00914b60                PROVIDE (cmnos_mbox_word_pop, 0x914b60)
                0x00914c60                PROVIDE (cmnos_mac_reset, 0x914c60)
                0x0091612c                PROVIDE (cmnos_serial_init, 0x91612c)
                0x00915c84                PROVIDE (cmnos_printf_init, 0x915c84)
                0x00952b90                PROVIDE (__lshrdi3, 0x952b90)
                0x00404490                PROVIDE (debug_timer, 0x404490)
                0x00404494                PROVIDE (debug_timerfn, 0x404494)
                0x00916a1c                PROVIDE (cmnos_timer_intr_set, 0x916a1c)
                0x00916e90                PROVIDE (cmnos_wdt_reset, 0x916e90)
                0x004131e0                PROVIDE (rfModeArray, 0x4131e0)
                0x00413220                PROVIDE (bandArray, 0x413220)
                0x009407f4                PROVIDE (ar6000SetWapiKeyidSearch, 0x9407f4)
                0x00940be0                PROVIDE (ar6000SetChannel, 0x940be0)
                0x0094d108                PROVIDE (ar6000EepromReset, 0x94d108)
                0x004115e0                PROVIDE (curr_band, 0x4115e0)
                0x0093a544                PROVIDE (ar6000PerCalibration, 0x93a544)
                0x004058f4                PROVIDE (pWhalAniIndirectionTable, 0x4058f4)
                0x009395b4                PROVIDE (ar6000SetSleepRegisters, 0x9395b4)
                0x0094d08c                PROVIDE (ar6000SetRegulatoryDomain, 0x94d08c)
                0x009398c0                PROVIDE (ar6000Reset, 0x9398c0)
                0x0093ddf8                PROVIDE (ar6000AllocateTxQueue, 0x93ddf8)
                0x0094cc24                PROVIDE (ar6000EepromSetTransmitPower, 0x94cc24)
                0x0093d190                PROVIDE (ar6000ResetTxQueue, 0x93d190)
                0x00401fc0                PROVIDE (board_data, 0x401fc0)
                0x00919400                PROVIDE (_MboxHW_AllocDMADesc, 0x919400)
                0x00919494                PROVIDE (_MboxHW_AllocInstallDMASentinel, 0x919494)
                0x00404570                PROVIDE (g_pMboxInstances, 0x404570)
                0x0094e144                PROVIDE (ar6000SetPowerCalTable, 0x94e144)
                0x0094ae94                PROVIDE (getLowerUpperIndex, 0x94ae94)
                0x0094b264                PROVIDE (fbin2freq, 0x94b264)
                0x0094ae50                PROVIDE (interpolate_round, 0x94ae50)
                0x009160b4                PROVIDE (cmnos_serial_putc, 0x9160b4)
                0x00413f20                PROVIDE (_bfp_api, 0x413f20)
                0x009192cc                PROVIDE (_spi_wait_part_done, 0x9192cc)
                0x00918888                PROVIDE (_i2c_wait_part_done, 0x918888)
                0x009193f4                PROVIDE (spi_nvramr_module_install, 0x9193f4)
                0x00918890                PROVIDE (i2c_nvramr_module_install, 0x918890)
                0x0041190c                PROVIDE (si_api, 0x41190c)
                0x004118d8                PROVIDE (nvram_configp, 0x4118d8)
                0x0040453c                PROVIDE (nvramr_api, 0x40453c)
                0x009393dc                PROVIDE (ar6000WriteAssocid, 0x9393dc)
                0x0091a3c0                PROVIDE (efuse_module_install, 0x91a3c0)
                0x00404580                PROVIDE (efuse_api, 0x404580)
                0x0091a5d0                PROVIDE (otpstream_read_module_install, 0x91a5d0)
                0x00404bdc                PROVIDE (otpstream_api, 0x404bdc)
                0x00404bd8                PROVIDE (otpstream_max_index, 0x404bd8)
                0x00404be4                PROVIDE (otpstream_index, 0x404be4)
                0x00404bd0                PROVIDE (otpstream_remaining, 0x404bd0)
                0x00404be8                PROVIDE (otpstream_start_index, 0x404be8)
                0x00404bed                PROVIDE (otpstream_POP_symbol, 0x404bed)
                0x00404bee                PROVIDE (otpstream_END_symbol, 0x404bee)
                0x00404bec                PROVIDE (otpstream_ESCAPE_symbol, 0x404bec)
                0x00404c14                PROVIDE (otpstream_escbytes_remaining, 0x404c14)
                0x00404be0                PROVIDE (otpstream_current_op, 0x404be0)
                0x009394ac                PROVIDE (ar6000SetOperatingMode, 0x9394ac)
                0x009203c4                PROVIDE (rc4_skip, 0x9203c4)
                0x004062f8                PROVIDE (pWhalPaprdIndirectionTable, 0x4062f8)
                0x0040a850                PROVIDE (pWhalEepromIndirectionTable, 0x40a850)
                0x0094b938                PROVIDE (ar6000EepromSetBoardValues, 0x94b938)
                0x0093a9b8                PROVIDE (ar6000GetCurrentTemp, 0x93a9b8)
                0x0040ab90                PROVIDE (g_bp, 0x40ab90)
                0x00413f1c                PROVIDE (_bfp_pvt_api, 0x413f1c)
                0x00936670                PROVIDE (ar6000PaprdHwEnable, 0x936670)
                0x0091d01c                PROVIDE (hif_module_install, 0x91d01c)
                0x0040a2e0                PROVIDE (eepromStruct, 0x40a2e0)
                0x0040a850                PROVIDE (pWhalEepromIndirectionTable, 0x40a850)
                0x00400a00                PROVIDE (boot_info, 0x400a00)
                0x00408924                PROVIDE (descProductString, 0x408924)
                0x00408920                PROVIDE (descManufacturerString, 0x408920)
                0x0040a050                PROVIDE (g_usb_bmi_info, 0x40a050)
                0x00910848                PROVIDE (athos_init_part2, 0x910848)
                0x00404d04                PROVIDE (g_hifUSBCtx, 0x404d04)
                0x004120c0                PROVIDE (_hif, 0x4120c0)
                0x0091a638                PROVIDE (_i2s_attach, 0x91a638)
                0x00411870                PROVIDE (malloc_api, 0x411870)
                0x00936794                PROVIDE (ar6000PaprdSetupTraining, 0x936794)
                0x00936770                PROVIDE (ar6000PaprdTrainingStopped, 0x936770)
                0x009369dc                PROVIDE (ar6000PaprdStopTraining, 0x9369dc)
                0x00936e44                PROVIDE (ar6000PaprdTrainNextGainIndex, 0x936e44)
                0x00937ce8                PROVIDE (ar6000PaprdCalibrationResetSM, 0x937ce8)
                0x00407da4                PROVIDE (pWhalResetIndirectionTable, 0x407da4)
                0x0041380c                PROVIDE (whalInternalIndirectionTable, 0x41380c)
                0x004085cc                PROVIDE (whalPreInitFn, 0x4085cc)
                0x009355d4                PROVIDE (ar6000NfGetCalHist, 0x9355d4)
                0x009396cc                PROVIDE (ar6000Set11nRegs, 0x9396cc)
                0x00939598                PROVIDE (ar6000ChannelSetCommon, 0x939598)
                0x00407e80                PROVIDE (gpAR6000WhalStruct, 0x407e80)
                0x0093ef00                PROVIDE (ar6000Attach, 0x93ef00)
                0x00952b5c                PROVIDE (__ashldi3, 0x952b5c)
                0x0093ca40                PROVIDE (ar6000ComputeTxTime, 0x93ca40)
                0x0040402c                PROVIDE (clock_info, 0x40402c)
                0x00404048                PROVIDE (cmnos_skip_bb_pll_init, 0x404048)
                0x00404024                PROVIDE (cmnos_cpu_speed, 0x404024)
                0x004115f0                PROVIDE (cmnos_clocking_table, 0x4115f0)
                0x00404038                PROVIDE (cmnos_skip_cpu_pll_init, 0x404038)
                0x00404020                PROVIDE (cmnos_cpu_pll_init_done, 0x404020)
                0x009355f4                PROVIDE (ar6000NfLimitRange, 0x9355f4)
                0x009474b4                PROVIDE (dma_lib_module_install, 0x9474b4)
                0x004137e0                PROVIDE (whalNumChannel, 0x4137e0)
                0x004137d8                PROVIDE (cipherToDescKeyType, 0x4137d8)
                0x00404bd4                PROVIDE (otpstream_min_index, 0x404bd4)
                0x00938294                PROVIDE (ar6000PaprdReset, 0x938294)
                0x00401e8c                PROVIDE (dma_local_bits, 0x401e8c)
                0x0091ed0c                PROVIDE (CE_module_install, 0x91ed0c)
                0x004122c0                PROVIDE (CE_API, 0x4122c0)
                0x0091dea0                PROVIDE (pipecfg_module_install, 0x91dea0)
                0x004120d0                PROVIDE (pipecfg_api, 0x4120d0)
                0x00404d90                PROVIDE (CE_pipe_config, 0x404d90)
                0x0041150c                PROVIDE (pcie_state, 0x41150c)
                0x00404584                PROVIDE (efuse_cache, 0x404584)
                0x0040a2c4                PROVIDE (gpMciStruct, 0x40a2c4)
                0x004085d0                PROVIDE (pWhalStruct, 0x4085d0)
                0x00401e34                PROVIDE (debug_iframe, 0x401e34)
                0x004122cc                PROVIDE (_qheap_fn, 0x4122cc)
                0x00412344                PROVIDE (_pool_mgr_fn, 0x412344)
                0x00404028                PROVIDE (cmnos_core_clk_div, 0x404028)
                0x00913bec                PROVIDE (cmnos_speed_to_hz, 0x913bec)
                0x00405070                PROVIDE (CE_id_to_state, 0x405070)
                0x00411540                PROVIDE (pcie_clock_gate_control, 0x411540)
                0x00411594                PROVIDE (pcie_txbuf_axi_gate_control, 0x411594)
                0x004122c4                PROVIDE (CE_per_engine_iteration_limit, 0x4122c4)
                0x004122c8                PROVIDE (CE_per_engine_max_reap, 0x4122c8)
                0x0041157c                PROVIDE (pcielp_ltr_handler, 0x41157c)
                0x00912248                PROVIDE (pcielp_ltr_get_platform_msg, 0x912248)
                0x00912328                PROVIDE (pcielp_ltr_enabled, 0x912328)
                0x009122ac                PROVIDE (pcielp_ltr_request_send, 0x9122ac)
                0x00912478                PROVIDE (pcielp_buffering_cfg, 0x912478)
                0x00401eb0                PROVIDE (pcielp_notify_event, 0x401eb0)
                0x00401ea8                PROVIDE (pcielp_notify_suspend, 0x401ea8)
                0x00411580                PROVIDE (pcielp_obff_handler, 0x411580)
                0x00405070                PROVIDE (CE_id_to_state, 0x405070)
                0x00411540                PROVIDE (pcie_clock_gate_control, 0x411540)
                0x00401ee0                PROVIDE (pcie_state_s, 0x401ee0)
                0x0091e008                PROVIDE (_CE_send, 0x91e008)
                0x00413640                PROVIDE (iniTable, 0x413640)
                0x00407de0                PROVIDE (iniTableDfs, 0x407de0)
                0x00941b08                PROVIDE (ar6000BeaconInit, 0x941b08)
                0x00941c64                PROVIDE (ar6000BeaconExit, 0x941c64)
                0x00941ccc                PROVIDE (ar6000SetNDPTimer, 0x941ccc)
                0x00941d60                PROVIDE (ar6000SetStaBeaconTimers, 0x941d60)
                0x009421fc                PROVIDE (ar6000ClearStaBeaconTimers, 0x9421fc)
                0x0094273c                PROVIDE (ar6000BeaconReset, 0x94273c)
                0x00942810                PROVIDE (ar6000SetQuiet, 0x942810)
                0x00411514                PROVIDE (pcie_config_space_init, 0x411514)
                0x00401ea0                PROVIDE (pcie_is_paused, 0x401ea0)
                0x0093d574                PROVIDE (ar6000CalcBitmapFailures, 0x93d574)
                0x00407e18                PROVIDE (g_dbg_skip_bt_per, 0x407e18)
                0x00942318                PROVIDE (ar6000GetTsf32, 0x942318)
                0x009422dc                PROVIDE (ar6000GetTsf64, 0x9422dc)
                0x0040a2c0                PROVIDE (gpWhalCoexStruct, 0x40a2c0)
                0x00412310                PROVIDE (aes_wrap_api, 0x412310)
                0x00412318                PROVIDE (SHA1ApiIndirectionTable, 0x412318)
                0x00938704                PROVIDE (ar6000RecvReset, 0x938704)
                0x00413180                PROVIDE (rx_comp_sizes, 0x413180)
                0x004122e4                PROVIDE (aes_int_api, 0x4122e4)
                0x004125a8                PROVIDE (wal_peer_api_tbl, 0x4125a8)
                0x004123c0                PROVIDE (wal_ast_api_tbl, 0x4123c0)
                0x00412560                PROVIDE (wal_peer_mcast_api_tbl, 0x412560)
                0x004128f0                PROVIDE (wal_rx_api_indir_tbl, 0x4128f0)
                0x00412528                PROVIDE (wal_local_frames_api_indir_tbl, 0x412528)
                0x004126c8                PROVIDE (wal_dev_api_tbl, 0x4126c8)
                0x004127f4                PROVIDE (_wal_rc_api_fn, 0x4127f4)
                0x00412e4c                PROVIDE (_wal_thermal_mgmt_api, 0x412e4c)
                0x004123dc                PROVIDE (wal_channel_change_api, 0x4123dc)
                0x00412ab4                PROVIDE (_tx_de_api, 0x412ab4)
                0x00412bb0                PROVIDE (wal_tx_send_api_indir_tbl, 0x412bb0)
                0x004123c8                PROVIDE (wal_chain_mgmt_api, 0x4123c8)
                0x00412454                PROVIDE (wal_pause_api_tbl, 0x412454)
                0x00412cf4                PROVIDE (_wal_beacon_api, 0x412cf4)
                0x00412c10                PROVIDE (wal_vdev_api_tbl, 0x412c10)
                0x00412e6c                PROVIDE (g_timer_api_tbl, 0x412e6c)
                0x00412af0                PROVIDE (tx_send_api_indir_tbl, 0x412af0)
                0x00412a88                PROVIDE (tx_dbg_api_indir_tbl, 0x412a88)
                0x004127c0                PROVIDE (tid_to_ac_map, 0x4127c0)
                0x00412780                PROVIDE (ac_to_tid_1_map, 0x412780)
                0x004058a0                PROVIDE (g_htt_tgt_rx_pkt_sel, 0x4058a0)
                0x004058b0                PROVIDE (g_htt_tgt_rx_comp_sel, 0x4058b0)
                0x00412b98                PROVIDE (g_dbg_subfrms_max, 0x412b98)
                0x0040588c                PROVIDE (g_dbg_aggr_ok, 0x40588c)
                0x00412658                PROVIDE (g_dbg_rx_reorder, 0x412658)
                0x0041235c                PROVIDE (g_dbg_wal_max_msdus, 0x41235c)
                0x00405420                PROVIDE (g_dbg_wal_stats, 0x405420)
                0x00412dd4                PROVIDE (wal_rtt_api, 0x412dd4)
                0x004058c0                PROVIDE (g_htt_tgt_rx_comp_offset_dwords, 0x4058c0)
                0x00412d64                PROVIDE (_wal_concurrency_api, 0x412d64)
                0x00405428                PROVIDE (g_walCoexApiTable, 0x405428)
                0x00412c90                PROVIDE (_tx_sch_api, 0x412c90)
                0x00412d88                PROVIDE (wal_pps_api_tbl, 0x412d88)
                0x00404d00                PROVIDE (HIF_CE_memcpy_hdl, 0x404d00)
                0x004129d4                PROVIDE (wal_spectral_api, 0x4129d4)
                0x004085c0                PROVIDE (g_whalCoexModuleApiTable, 0x4085c0)
                0x00412610                PROVIDE (wal_peer_internal_api_tbl, 0x412610)
                0x00412400                PROVIDE (_wal_pause_internal_api_tbl, 0x412400)
                0x00404534                PROVIDE (malloc_arena_default_block, 0x404534)
                0x00412e90                PROVIDE (module_id_api, 0x412e90)
                0x00412a4c                PROVIDE (wal_txbf_api_tbl, 0x412a4c)
                0x0091d148                PROVIDE (_HIF_CE_send_buffer, 0x91d148)
                0x00911bb0                PROVIDE (pcie_pause, 0x911bb0)
                0x00911ca0                PROVIDE (pcie_resume, 0x911ca0)
                0x0041152c                PROVIDE (pcie_clock_gate_bits, 0x41152c)
                0x00401ed8                PROVIDE (pcielp_l1ss_override, 0x401ed8)
                0x00411588                PROVIDE (pcielp_clkpm_handler, 0x411588)
                0x00411584                PROVIDE (pcielp_l1ss_handler, 0x411584)
                0x00411530                PROVIDE (pcie_workaround_bits, 0x411530)
                0x0041150c                PROVIDE (pcie_state, 0x41150c)
                0x0041151c                PROVIDE (gpio_pcie_reset_intr, 0x41151c)
                0x00411510                PROVIDE (pcie_set_bias_current, 0x411510)
                0x00911e24                PROVIDE (pcie_host_wake, 0x911e24)
                0x00911ea8                PROVIDE (pcie_host_awake_ack, 0x911ea8)
                0x00407da8                PROVIDE (whalConfigFlag, 0x407da8)
                0x00407d94                PROVIDE (waitForNfCalToComplete, 0x407d94)
                0x00412b44                PROVIDE (tx_send_internal_indir_tbl, 0x412b44)
                0x0041293c                PROVIDE (rx_internal_indir_tbl, 0x41293c)
                0x004129a0                PROVIDE (rx_ring_comp_orders, 0x4129a0)
                0x0040f000                PROVIDE (wal_decap_to_whal_decap, 0x40f000)
                0x00412394                PROVIDE (wal_ast_internal_api_tbl, 0x412394)
                0x00405654                PROVIDE (_g_rc_non_data_bw, 0x405654)
                0x00405884                PROVIDE (g_dbg_no_sw_retry, 0x405884)
                0x004127a0                PROVIDE (ac_to_tid_2_map, 0x4127a0)
                0x0040a068                PROVIDE (g_usb_bmi_flags, 0x40a068)
                0x00413d6c                PROVIDE (g_usb_diag_reset_delay_us, 0x413d6c)
                0x0040a06c                PROVIDE (g_usb_diag_reset_addr, 0x40a06c)
                0x0040a070                PROVIDE (g_usb_diag_reset_value, 0x40a070)
                0x00408ab4                PROVIDE (usb_snps_api, 0x408ab4)
                0x00413d70                PROVIDE (g_usb_warm_reset_no_wait, 0x413d70)
                0x00413c3c                PROVIDE (g_USB3PcdIndirectionTable, 0x413c3c)
                0x00413890                PROVIDE (g_USB3CilIndirectionTable, 0x413890)
                0x00944e60                PROVIDE (set_vendor_post_callback, 0x944e60)
                0x004120e0                PROVIDE (USB_OUT_pipe_config, 0x4120e0)
                0x00412110                PROVIDE (USB_IN_pipe_config, 0x412110)
                0x00412140                PROVIDE (default_service_to_USB_pipe_map, 0x412140)
                0x00411820                PROVIDE (timer_type_info, 0x411820)
                0x0093ae90                PROVIDE (rom_shadow_register, 0x93ae90)
                0x0093aae8                PROVIDE (ar6000ResetAttach, 0x93aae8)
                0x0094da18                PROVIDE (ar6000EepromAttach, 0x94da18)
                0x00948260                PROVIDE (whal_coex_module_install, 0x948260)
                0x00411858                PROVIDE (dbglog_dispatch_tbl, 0x411858)
                0x00916aac                PROVIDE (cmnos_timer_register_util_functions, 0x916aac)
                0x00916cbc                PROVIDE (cmnos_timer_handler, 0x916cbc)
                0x00916a68                PROVIDE (lf_timer_now_function, 0x916a68)
                0x00916a78                PROVIDE (lf_timer_millis_to_timer_ticks, 0x916a78)
                0x00916aac                PROVIDE (cmnos_timer_register_util_functions, 0x916aac)
                0x009143e0                PROVIDE (cmnos_timer_intr_clear, 0x9143e0)
                0x00411768                PROVIDE (hang_isr_error, 0x411768)
                0x00411770                PROVIDE (cmnos_lf_timer_info, 0x411770)
                0x00404060                PROVIDE (pending_timer_intrs, 0x404060)
                0x009143e0                PROVIDE (cmnos_timer_intr_clear, 0x9143e0)
                0x00412cec                PROVIDE (_wal_beacon_internal_api, 0x412cec)
                0x00412360                PROVIDE (_tx_q_enq_api, 0x412360)
                0x00412550                PROVIDE (local_frames_api_indir_tbl, 0x412550)
                0x00412abc                PROVIDE (_tx_dm_api, 0x412abc)
                0x00412bc4                PROVIDE (_wal_vdev_internal_api_tbl, 0x412bc4)
                0x00412990                PROVIDE (rx_api_indir_tbl, 0x412990)
                0x00412754                PROVIDE (_wal_pdev_api, 0x412754)
                0x004126a0                PROVIDE (_wal_dev_internal_api_tbl, 0x4126a0)
                0x00412d48                PROVIDE (_wal_concurrency_internal_api, 0x412d48)
                0x004044c0                PROVIDE (logtimer, 0x4044c0)
                0x0093aae8                PROVIDE (ar6000ResetAttach, 0x93aae8)
                0x0094239c                PROVIDE (ar6000GetBRssi, 0x94239c)
                0x0092aa5c                PROVIDE (_rx_resume, 0x92aa5c)
                0x00405838                PROVIDE (g_wal_de_cache, 0x405838)
                0x00405864                PROVIDE (g_dbg_de_cache_disable, 0x405864)
                0x00405868                PROVIDE (g_dbg_de_cache_stored, 0x405868)
                0x00412aa4                PROVIDE (_tx_de_internal_fn, 0x412aa4)
                0x0092ca80                PROVIDE (_tx_de_cache_match, 0x92ca80)
                0x004129d0                PROVIDE (rx_offload_api_indir_tbl, 0x4129d0)
                0x00412a38                PROVIDE (wal_tdls_api_tbl, 0x412a38)
                0x0040a870                PROVIDE (g_gtx_cfg, 0x40a870)
                0x00407db0                PROVIDE (p_ar6000InitCalStruct_fn, 0x407db0)
                0x00407c78                PROVIDE (pWhalNfCalIndirectionTable, 0x407c78)
                0x00407d98                PROVIDE (pWhalCalIndirectionTable, 0x407d98)
                0x009356a0                PROVIDE (ar6000InitNfCalStruct, 0x9356a0)
                0x00407dd8                PROVIDE (pWhalAGCCalIndirectionTable, 0x407dd8)
                0x00407dac                PROVIDE (pWhalRxDcCalIndirectionTable, 0x407dac)
                0x00407dc8                PROVIDE (pWhalAdcDcCalIndirectionTable, 0x407dc8)
                0x00407dd0                PROVIDE (pWhalAdcGainCalIndirectionTable, 0x407dd0)
                0x0093ba9c                PROVIDE (ar6000InitAdcDcCalStruct, 0x93ba9c)
                0x0093bb20                PROVIDE (ar6000InitAdcGainCalStruct, 0x93bb20)
                0x0093c4d8                PROVIDE (ar6000InitAGCCalStruct, 0x93c4d8)
                0x00405354                PROVIDE (time_report, 0x405354)
                0x00401f60                PROVIDE (arenas, 0x401f60)
                0x00911928                PROVIDE (pcie_enable, 0x911928)
                0x00411548                PROVIDE (pcie_addressing_config, 0x411548)
                0x0041154c                PROVIDE (pcie_interrupt_config, 0x41154c)
                0x00411504                PROVIDE (pcie_init_timer_handler, 0x411504)
                0x00411508                PROVIDE (pcie_init_timer_stop, 0x411508)
                0x009111ec                PROVIDE (check_idle, 0x9111ec)
                0x00411500                PROVIDE (pcie_init_timer_start, 0x411500)
                0x00411550                PROVIDE (pcie_pll_polls, 0x411550)
                0x00401ea4                PROVIDE (pcie_pll_assert_required, 0x401ea4)
                0x00411558                PROVIDE (pcie_set_clk_switch_wait, 0x411558)
                0x00411574                PROVIDE (pcie_pll_settle_short, 0x411574)
                0x0041155c                PROVIDE (pcie_pll_settle_long, 0x41155c)
                0x00915d48                PROVIDE (cmnos_retention_save_isr, 0x915d48)
                0x00910940                PROVIDE (athos_interrupt_handler, 0x910940)
                0x009102bc                PROVIDE (_xtos_set_interrupt_handler, 0x9102bc)
                0x00923088                PROVIDE (_ar_connection_pause_state_pause_send_n_event, 0x923088)
                0x0092dc0c                PROVIDE (tx_send_start_pn, 0x92dc0c)
                0x0092f520                PROVIDE (tx_send_pkt_info_do_cb, 0x92f520)
                0x00412b9c                PROVIDE (g_dbg_mpdu_spacing_tx, 0x412b9c)
                0x0040587c                PROVIDE (g_dbg_fixed_delim, 0x40587c)
                0x00412a98                PROVIDE (tx_dbg_internal_indir_tbl, 0x412a98)
                0x00405880                PROVIDE (g_ndpa_rate, 0x405880)
                0x00412ba8                PROVIDE (g_ndpa_preamble_type, 0x412ba8)
                0x00405881                PROVIDE (g_ndpa_bw, 0x405881)
                0x00405882                PROVIDE (g_ndp_bw, 0x405882)
                0x00412ba9                PROVIDE (g_ndp_nss, 0x412ba9)
                0x0092fe20                PROVIDE (_tx_send_proc_ppdu_done, 0x92fe20)
                0x009169f0                PROVIDE (cmnos_lf0_timer_arm, 0x9169f0)
                0x00407dd8                PROVIDE (pWhalAGCCalIndirectionTable, 0x407dd8)
                0x00911818                PROVIDE (pcie_set_target_l1, 0x911818)
                0x00911844                PROVIDE (pcie_clock_gate_control_internal, 0x911844)
                0x00412570                PROVIDE (wal_peer_pvt_api_tbl, 0x412570)
                0x00412370                PROVIDE (wal_ast_internal_tbl, 0x412370)
                0x009265cc                PROVIDE (_ar_wal_peer_wmmac_init, 0x9265cc)
                0x004129dc                PROVIDE (wal_tdls_ct_api_tbl, 0x4129dc)
                0x00945944                PROVIDE (_dwc_usb3_function_remote_wakeup, 0x945944)
                0x009468ac                PROVIDE (_handle_usb_reset_intr, 0x9468ac)
                0x0091e4b0                PROVIDE (dump_ce_registers, 0x91e4b0)
                0x0091e524                PROVIDE (dump_debug_registers, 0x91e524)
                0x0091e6dc                PROVIDE (AXI_ERROR_DETECTED, 0x91e6dc)
                0x00411554                PROVIDE (pcie_sw_save_phy_bias_l2, 0x411554)
                0x00401ec4                PROVIDE (ce_bmi_send, 0x401ec4)
                0x00401ec8                PROVIDE (ce_bmi_recv, 0x401ec8)
                0x00405070                PROVIDE (CE_id_to_state, 0x405070)
                0x00407e14                PROVIDE (g_last_bw, 0x407e14)
                0x0040a884                PROVIDE (cur_tbl_idx, 0x40a884)
                0x00407db8                PROVIDE (g_rfkill_enabled, 0x407db8)
                0x004117ec                PROVIDE (gp_cpu_addr_to_dma_addr, 0x4117ec)
                0x004117f0                PROVIDE (gp_dma_addr_to_cpu_addr, 0x4117f0)
                0x0095bc80                PROVIDE (_data_start_in_rom, 0x95bc80)
                0x004128d8                PROVIDE (_wal_rmc_api_fn, 0x4128d8)
                0x004117f4                PROVIDE (gp_soc_addr_read, 0x4117f4)
                0x004117f8                PROVIDE (gp_soc_addr_write, 0x4117f8)
                0x00412ad8                PROVIDE (_tx_hcm_api, 0x412ad8)
                0x0040a854                PROVIDE (g_GreenTx_cfg, 0x40a854)
                0x00405820                PROVIDE (g_txbfee_param, 0x405820)
                0x00405670                PROVIDE (g_rate_info_stats, 0x405670)
                0x004129b0                PROVIDE (rx_offload_internal_indir_tbl, 0x4129b0)
                0x00412cac                PROVIDE (g_dbg_sch_max_ppdu_per_tid, 0x412cac)
                0x00412cc0                PROVIDE (g_dbg_sch_max_ppdu_per_ac, 0x412cc0)
                0x00412670                PROVIDE (wal_key_type_hw2sw, 0x412670)
                0x00412690                PROVIDE (wal_key_ivmic_size, 0x412690)
                0x004058d4                PROVIDE (g_sched, 0x4058d4)
                0x00412cb0                PROVIDE (tx_sch_internal_indir_tbl, 0x412cb0)
                0x00412ba4                PROVIDE (g_dbg_burst_txoplimit, 0x412ba4)
                0x00412ca8                PROVIDE (g_dbg_sch_max_ppdu_per_tid_vo_vi, 0x412ca8)
                0x00405888                PROVIDE (g_dbg_vht_illegal_rate_err_cnt, 0x405888)
                0x00412b90                PROVIDE (g_dbg_txop_ignore, 0x412b90)
                0x009273ec                PROVIDE (_wal_pdev_resume, 0x9273ec)
                0x009263b8                PROVIDE (_ar_wal_peer_wmmac_events_callback_complete, 0x9263b8)
                0x0092656c                PROVIDE (_ar_wal_peer_wmmac_update, 0x92656c)
                0x0092646c                PROVIDE (_ar_wal_peer_wmmac_events_callback_block, 0x92646c)
                0x00412d7c                PROVIDE (ar_wal_pps_internal_api_tbl, 0x412d7c)
                0x00931f84                PROVIDE (_tx_sched_init, 0x931f84)
                0x00412cd0                PROVIDE (tx_sch_dispatch, 0x412cd0)
                0x00413ef0                PROVIDE (ar6000SpurMitApi, 0x413ef0)
                0x00934bfc                PROVIDE (ar6000_ani_get_listen_time, 0x934bfc)
                0x00934e70                PROVIDE (patch_ar6000_ani_reset, 0x934e70)
                0x009344ac                PROVIDE (ar6000_init_ani_struct, 0x9344ac)
                0x009345e4                PROVIDE (ar6000_search_ani_state, 0x9345e4)
                0x0040aa88                PROVIDE (pWhalEepromTpcConfigIndirectionTable, 0x40aa88)
                0x00401e90                PROVIDE (pcie_sw_prevent_config_missing, 0x401e90)
                0x00411518                PROVIDE (pcie_reset_gpio_set, 0x411518)
                0x00412e38                PROVIDE (_wal_swba_pvt_api, 0x412e38)
                0x00404374                PROVIDE (save_disable_syssleep, 0x404374)
                0x00915e3c                PROVIDE (cmnos_retention_restore_isr, 0x915e3c)
                0x00405658                PROVIDE (g_test_probe_set, 0x405658)
                0x0040564c                PROVIDE (g_test_probe_reset, 0x40564c)
                0x004128c0                PROVIDE (g_rc_probe_msdu_limit, 0x4128c0)
                0x00405654                PROVIDE (_g_rc_non_data_bw, 0x405654)
                0x00927bec                PROVIDE (_wal_test_rc_params_setup, 0x927bec)
                0x00928300                PROVIDE (_wal_non_data_rc_param_setup, 0x928300)
                0x009283a8                PROVIDE (_wal_local_frame_rate_setup, 0x9283a8)
                0x00407db4                PROVIDE (gp_retention_tbls, 0x407db4)
                0x00413810                PROVIDE (_whal_rgc_api_fn, 0x413810)
                0x0040a2c8                PROVIDE (g_mwswhal, 0x40a2c8)
                0x0092633c                PROVIDE (_ar_wal_peer_wmmac_remap_txq, 0x92633c)
                0x00926300                PROVIDE (_ar_wal_peer_wmmac_remap_qid, 0x926300)
                0x004128bd                PROVIDE (_g_rc_non_data_tries, 0x4128bd)
                0x00412e44                PROVIDE (_wal_swba_api, 0x412e44)
                0x0040407c                PROVIDE (g_dbg_dsr_last, 0x40407c)
                0x00404080                PROVIDE (g_dbg_dsr_pre, 0x404080)
                0x00404070                PROVIDE (dsr_handler_pre, 0x404070)
                0x00404088                PROVIDE (dsr_handler_post, 0x404088)
                0x0040ab98                PROVIDE (kernelstack, 0x40ab98)
                0x00404078                PROVIDE (pending_dsrs, 0x404078)
                0x00404090                PROVIDE (cmnos_intr_service, 0x404090)
                0x00404074                PROVIDE (cmnos_enabled_interrupts, 0x404074)
                0x00404084                PROVIDE (stackinit_flag, 0x404084)
                0x0092a6f4                PROVIDE (_rx_attach, 0x92a6f4)
                0x0092a974                PROVIDE (_rx_ring_reque_buffers, 0x92a974)
                0x0092906c                PROVIDE (_rx_ring_msdu_pop, 0x92906c)
                0x0092a928                PROVIDE (_rx_ring_intf_mac_init_wlanbuf_fn, 0x92a928)
                0x00932718                PROVIDE (_wal_beacon_vdev_set_beacon_config, 0x932718)
                0x00931dfc                PROVIDE (_wal_vdev_get_nexttbtt, 0x931dfc)
                0x0092d98c                PROVIDE (_tx_hcm_bin_alloc, 0x92d98c)
                0x0092d930                PROVIDE (_tx_hcm_attach, 0x92d930)
                0x00412760                PROVIDE (g_bb_wdog_known_signatures, 0x412760)
                0x00412cc4                PROVIDE (g_dbg_sch_max_ppdu_per_ac_vo_vi, 0x412cc4)
                0x0093077c                PROVIDE (_tx_frame_txq_timeout, 0x93077c)
                0x00412d6c                PROVIDE (walIntrSchedulerApiIndirectionTable, 0x412d6c)
                0x009517d4                PROVIDE (__umoddi3, 0x9517d4)
                0x00952ba8                PROVIDE (__muldi3, 0x952ba8)
                0x0092ac50                PROVIDE (_rx_setup_ring_for_offload, 0x92ac50)
                0x0092ad94                PROVIDE (_rx_restore_ring_from_offload, 0x92ad94)
                0x00929670                PROVIDE (_rx_data_reorder_flush, 0x929670)
                0x0040f004                PROVIDE (rx_ring_comp_order_local_pkt, 0x40f004)
                0x0092d98c                PROVIDE (_tx_hcm_bin_alloc, 0x92d98c)
                0x0092d930                PROVIDE (_tx_hcm_attach, 0x92d930)
                0x004117e4                PROVIDE (assloop, 0x4117e4)
                0x0091e6c0                PROVIDE (dump_rtc_registers, 0x91e6c0)
                0x009115b4                PROVIDE (_athos_interrupt_pcie_host, 0x9115b4)
                0x0091073c                PROVIDE (_athos_interrupt_mbox_host, 0x91073c)
                0x00400a00                PROVIDE (boot_info, 0x400a00)
                0x004117e4                PROVIDE (assloop, 0x4117e4)
                0x00405800                PROVIDE (g_drop_all_phy_errs, 0x405800)
                0x00412980                PROVIDE (rx_default_params, 0x412980)
                0x00412d6c                PROVIDE (walIntrSchedulerApiIndirectionTable, 0x412d6c)
                0x00938368                PROVIDE (ar6000PaprdAttach, 0x938368)
                0x00405900                PROVIDE (pPaprdStruct, 0x405900)
                0x004064e0                PROVIDE (txStatus_local, 0x4064e0)
                0x009357b4                PROVIDE (my_div, 0x9357b4)
                0x009357e8                PROVIDE (my_pow, 0x9357e8)
                0x00935c04                PROVIDE (calc_G_fxp, 0x935c04)
                0x009376a0                PROVIDE (ar6000TableIndexrangeGet, 0x9376a0)
                0x00413021                PROVIDE (sqLimit, 0x413021)
                0x00413020                PROVIDE (sqBestLimit, 0x413020)
                0x00935700                PROVIDE (change_start_coarse_fine_idx, 0x935700)
                0x00406300                PROVIDE (forceclockBW2g, 0x406300)
                0x00406301                PROVIDE (forceclockBW5g, 0x406301)
                0x004062fc                PROVIDE (LNASETTING, 0x4062fc)
                0x00935f84                PROVIDE (ar6000PaprdCleanRetrainTimes, 0x935f84)
                0x00405904                PROVIDE (paprdStruct, 0x405904)
                0x00412a24                PROVIDE (wal_tdls_internal_api_tbl, 0x412a24)
                0x004087a0                PROVIDE (gRflpPriv, 0x4087a0)
                0x0092310c                PROVIDE (_ar_connection_pause_state_block_entry, 0x92310c)
                0x0040f004                PROVIDE (rx_ring_comp_order_local_pkt, 0x40f004)
                0x0093d84c                PROVIDE (ar6000ProcTxDesc, 0x93d84c)
                0x0093c990                PROVIDE (compute_ldpc_extra_sym, 0x93c990)
                0x009376fc                PROVIDE (ar6000PaprdFindUntrainedTable, 0x9376fc)
                0x004124a4                PROVIDE (_wal_pause_pvt_api_tbl, 0x4124a4)
                0x00917168                PROVIDE (dbglog_flushbuf_timer, 0x917168)
                0x00404370                PROVIDE (sleep_disable_refcnt, 0x404370)
                0x0091073c                PROVIDE (_athos_interrupt_mbox_host, 0x91073c)
                0x0040eb98                PROVIDE (__stack, 0x40eb98)
                0x0094734c                PROVIDE (__dma_remove_buf, 0x94734c)
                0x00400e30                PROVIDE (_Pri_2_Stack, 0x400e30)
                0x00401380                PROVIDE (_Pri_3_Stack, 0x401380)
                0x004018d0                PROVIDE (_Pri_4_Stack, 0x4018d0)
                0x00404050                PROVIDE (mcerr_error_valid, 0x404050)
                0x00404054                PROVIDE (mcerr_AHB_error, 0x404054)
                0x00404058                PROVIDE (mcerr_APB_error, 0x404058)
                0x00401e30                PROVIDE (debug_inum, 0x401e30)
                0x0091d624                PROVIDE (_HIF_SDIO_register_callback, 0x91d624)
                0x0092f7c8                PROVIDE (_wal_tx_send_calc_totaltries_mpdutime, 0x92f7c8)
                0x00413f50                PROVIDE (bfp_pvt_api_table, 0x413f50)
                0x0093d4a0                PROVIDE (ar6000SetTxQueueProps, 0x93d4a0)
                0x0093df64                PROVIDE (ar6000XmitReset, 0x93df64)
                0x0093c970                PROVIDE (ar6000InitXmitStruct, 0x93c970)
                0x004127e0                PROVIDE (rc_default_params, 0x4127e0)
                0x004128bf                PROVIDE (g_rc_bar_tries, 0x4128bf)
                0x00926fd4                PROVIDE (_wal_dev_baseband_timeout_handler, 0x926fd4)
                0x00927460                PROVIDE (_wal_pdev_get_cycle_counters, 0x927460)
                0x009267a4                PROVIDE (_wal_dev_attach, 0x9267a4)
                0x00915f88                PROVIDE (cmnos_retention_init, 0x915f88)
                0x0092d448                PROVIDE (_tx_de_eapol_proc, 0x92d448)
                0x0092d724                PROVIDE (_wal_tx_de_setup_dscp_mapping, 0x92d724)
                0x00923770                PROVIDE (_local_data_frame_send_with_rate, 0x923770)
                0x0092b648                PROVIDE (_rx_offload_attach, 0x92b648)
                0x0093183c                PROVIDE (_wal_vdev_up, 0x93183c)
                0x00930e9c                PROVIDE (_wal_vdev_detach, 0x930e9c)
                0x00930da0                PROVIDE (_wal_vdev_attach, 0x930da0)
                0x0093198c                PROVIDE (_wal_vdev_down, 0x93198c)
                0x009311d0                PROVIDE (_wal_vdev_reconfig, 0x9311d0)
                0x00931558                PROVIDE (_wal_vdev_start, 0x931558)
                0x00930400                PROVIDE (_tx_send_check_tx_ppdu_fail_threshold, 0x930400)
                0x0092f988                PROVIDE (_tx_send_proc_mpdu_swdone, 0x92f988)
                0x0092fa88                PROVIDE (_tx_send_remove_swdone_mpdus, 0x92fa88)
                0x0092e408                PROVIDE (_tx_send_config_ba_state, 0x92e408)
                0x00924f1c                PROVIDE (_wal_peer_get_param, 0x924f1c)
                0x00924a68                PROVIDE (_wal_peer_set_param, 0x924a68)
                0x00925abc                PROVIDE (_ar_wal_peer_free_tid, 0x925abc)
                0x00925b88                PROVIDE (_ar_wal_peer_tidq_empty, 0x925b88)
                0x0092582c                PROVIDE (_ar_wal_peer_attach, 0x92582c)
                0x009430e8                PROVIDE (ar6000TxbfeeSetCBIndex, 0x9430e8)
                0x00943160                PROVIDE (ar6000TxbfeeSetNGIndex, 0x943160)
                0x009431e8                PROVIDE (ar6000TxbfeeInit, 0x9431e8)
                0x0093ceb8                PROVIDE (ar6000StopTxDma, 0x93ceb8)
                0x00914770                PROVIDE (cmnos_intr_dsrs_pending, 0x914770)
                0x0093b0d0                PROVIDE (ar6000RetentionRadioLongshiftRestore, 0x93b0d0)
                0x0091e838                PROVIDE (_CE_send_cb_register, 0x91e838)
                0x0091e85c                PROVIDE (_CE_recv_cb_register, 0x91e85c)
                0x0091e880                PROVIDE (_CE_watermark_cb_register, 0x91e880)
                0x00932d30                PROVIDE (_wal_concurrency_vdev_attach, 0x932d30)
                0x0092c084                PROVIDE (_wal_tdls_set_param, 0x92c084)
                0x0092c198                PROVIDE (_wal_tdls_get_param, 0x92c198)
                0x009384d8                PROVIDE (ar6000SetRxFilter, 0x9384d8)
                0x00912910                PROVIDE (cmnos_allocram_append_extra_block, 0x912910)
                0x00940048                PROVIDE (ar6000EnableInterrupts, 0x940048)
                0x00940378                PROVIDE (ar6000DisableInterrupts, 0x940378)
                0x00947d30                PROVIDE (_whal_coex_cal_start, 0x947d30)
                0x00947d50                PROVIDE (_whal_coex_cal_end, 0x947d50)
                0x00915040                PROVIDE (cmnos_assfail, 0x915040)
                0x009125a0                PROVIDE (cmnos_allocram_init, 0x9125a0)
                0x009140cc                PROVIDE (cmnos_memctlr_isr, 0x9140cc)
                0x00914068                PROVIDE (cmnos_invalid_isr, 0x914068)
                0x0040404c                PROVIDE (cmnos_memctlr_isr_count, 0x40404c)
                0x00412e54                PROVIDE (g_timer_internal_api_tbl, 0x412e54)
                0x00412a80                PROVIDE (ar_wal_txbf_internal_api_tbl, 0x412a80)
                0x00408714                PROVIDE (interruptStruct, 0x408714)
                0x0092c57c                PROVIDE (_wal_txbfee_init, 0x92c57c)
                0x0093fddc                PROVIDE (ar6000GetPendingInterrupts, 0x93fddc)
                0x00413240                PROVIDE (is_mac_first_save, 0x413240)
                0x00929464                PROVIDE (_rx_pkt_info_do_cb, 0x929464)
                0x009380f4                PROVIDE (ar6000PaprdSmTimer, 0x9380f4)
                0x00406310                PROVIDE (txDesc_local, 0x406310)
                0x004065e0                PROVIDE (mpdu_local, 0x4065e0)
                0x00406610                PROVIDE (pkt_buffer_seg1_local, 0x406610)
                0x00406c00                PROVIDE (paprd_fdp_buffer, 0x406c00)
                0x00931a30                PROVIDE (_wal_vdev_set_param, 0x931a30)
                0x00405640                PROVIDE (g_dbg_num_bb_timeout, 0x405640)
                0x00405644                PROVIDE (g_dbg_spin_watchdog_sig, 0x405644)
                0x00405648                PROVIDE (g_dbg_no_bb_reset, 0x405648)
OUTPUT(.output/AR6320/hw.3/image/utf.out elf32-xtensa-le)

.debug_ranges   0x00000000       0x20
 .debug_ranges  0x00000000       0x20 /cad/tensilica/chips/peregrine/RE-2013.3-linux/peregrine/xtensa-elf/lib/xcc//libgcc.a(lib2funcs.o)
